
prosthesis_knee.elf:     file format elf32-littlearm

Sections:
Idx Name          Size      VMA       LMA       File off  Algn
  0 .isr_vector   00000188  08000000  08000000  00010000  2**0
                  CONTENTS, ALLOC, LOAD, READONLY, DATA
  1 .text         00006838  08000188  08000188  00010188  2**3
                  CONTENTS, ALLOC, LOAD, READONLY, CODE
  2 .rodata       000000b8  080069c0  080069c0  000169c0  2**3
                  CONTENTS, ALLOC, LOAD, READONLY, DATA
  3 .ARM.extab    00000000  08006a78  08006a78  00020080  2**0
                  CONTENTS
  4 .ARM          00000000  08006a78  08006a78  00020080  2**0
                  CONTENTS
  5 .preinit_array 00000000  08006a78  08006a78  00020080  2**0
                  CONTENTS, ALLOC, LOAD, DATA
  6 .init_array   00000004  08006a78  08006a78  00016a78  2**2
                  CONTENTS, ALLOC, LOAD, DATA
  7 .fini_array   00000004  08006a7c  08006a7c  00016a7c  2**2
                  CONTENTS, ALLOC, LOAD, DATA
  8 .data         00000080  20000000  08006a80  00020000  2**2
                  CONTENTS, ALLOC, LOAD, DATA
  9 .bss          00000520  20000080  08006b00  00020080  2**3
                  ALLOC
 10 ._user_heap_stack 00000600  200005a0  08006b00  000205a0  2**0
                  ALLOC
 11 .ARM.attributes 00000030  00000000  00000000  00020080  2**0
                  CONTENTS, READONLY
 12 .debug_info   0000b97a  00000000  00000000  000200b0  2**0
                  CONTENTS, READONLY, DEBUGGING, OCTETS
 13 .debug_abbrev 000026b5  00000000  00000000  0002ba2a  2**0
                  CONTENTS, READONLY, DEBUGGING, OCTETS
 14 .debug_aranges 00000d68  00000000  00000000  0002e0e0  2**3
                  CONTENTS, READONLY, DEBUGGING, OCTETS
 15 .debug_ranges 00000c10  00000000  00000000  0002ee48  2**3
                  CONTENTS, READONLY, DEBUGGING, OCTETS
 16 .debug_macro  00023fb7  00000000  00000000  0002fa58  2**0
                  CONTENTS, READONLY, DEBUGGING, OCTETS
 17 .debug_line   0000c0cc  00000000  00000000  00053a0f  2**0
                  CONTENTS, READONLY, DEBUGGING, OCTETS
 18 .debug_str    000c1b5d  00000000  00000000  0005fadb  2**0
                  CONTENTS, READONLY, DEBUGGING, OCTETS
 19 .comment      00000050  00000000  00000000  00121638  2**0
                  CONTENTS, READONLY
 20 .debug_frame  00003af0  00000000  00000000  00121688  2**2
                  CONTENTS, READONLY, DEBUGGING, OCTETS

Disassembly of section .text:

08000188 <__do_global_dtors_aux>:
 8000188:	b510      	push	{r4, lr}
 800018a:	4c05      	ldr	r4, [pc, #20]	; (80001a0 <__do_global_dtors_aux+0x18>)
 800018c:	7823      	ldrb	r3, [r4, #0]
 800018e:	b933      	cbnz	r3, 800019e <__do_global_dtors_aux+0x16>
 8000190:	4b04      	ldr	r3, [pc, #16]	; (80001a4 <__do_global_dtors_aux+0x1c>)
 8000192:	b113      	cbz	r3, 800019a <__do_global_dtors_aux+0x12>
 8000194:	4804      	ldr	r0, [pc, #16]	; (80001a8 <__do_global_dtors_aux+0x20>)
 8000196:	f3af 8000 	nop.w
 800019a:	2301      	movs	r3, #1
 800019c:	7023      	strb	r3, [r4, #0]
 800019e:	bd10      	pop	{r4, pc}
 80001a0:	20000080 	.word	0x20000080
 80001a4:	00000000 	.word	0x00000000
 80001a8:	080069a8 	.word	0x080069a8

080001ac <frame_dummy>:
 80001ac:	b508      	push	{r3, lr}
 80001ae:	4b03      	ldr	r3, [pc, #12]	; (80001bc <frame_dummy+0x10>)
 80001b0:	b11b      	cbz	r3, 80001ba <frame_dummy+0xe>
 80001b2:	4903      	ldr	r1, [pc, #12]	; (80001c0 <frame_dummy+0x14>)
 80001b4:	4803      	ldr	r0, [pc, #12]	; (80001c4 <frame_dummy+0x18>)
 80001b6:	f3af 8000 	nop.w
 80001ba:	bd08      	pop	{r3, pc}
 80001bc:	00000000 	.word	0x00000000
 80001c0:	20000084 	.word	0x20000084
 80001c4:	080069a8 	.word	0x080069a8

080001c8 <__aeabi_drsub>:
 80001c8:	f081 4100 	eor.w	r1, r1, #2147483648	; 0x80000000
 80001cc:	e002      	b.n	80001d4 <__adddf3>
 80001ce:	bf00      	nop

080001d0 <__aeabi_dsub>:
 80001d0:	f083 4300 	eor.w	r3, r3, #2147483648	; 0x80000000

080001d4 <__adddf3>:
 80001d4:	b530      	push	{r4, r5, lr}
 80001d6:	ea4f 0441 	mov.w	r4, r1, lsl #1
 80001da:	ea4f 0543 	mov.w	r5, r3, lsl #1
 80001de:	ea94 0f05 	teq	r4, r5
 80001e2:	bf08      	it	eq
 80001e4:	ea90 0f02 	teqeq	r0, r2
 80001e8:	bf1f      	itttt	ne
 80001ea:	ea54 0c00 	orrsne.w	ip, r4, r0
 80001ee:	ea55 0c02 	orrsne.w	ip, r5, r2
 80001f2:	ea7f 5c64 	mvnsne.w	ip, r4, asr #21
 80001f6:	ea7f 5c65 	mvnsne.w	ip, r5, asr #21
 80001fa:	f000 80e2 	beq.w	80003c2 <__adddf3+0x1ee>
 80001fe:	ea4f 5454 	mov.w	r4, r4, lsr #21
 8000202:	ebd4 5555 	rsbs	r5, r4, r5, lsr #21
 8000206:	bfb8      	it	lt
 8000208:	426d      	neglt	r5, r5
 800020a:	dd0c      	ble.n	8000226 <__adddf3+0x52>
 800020c:	442c      	add	r4, r5
 800020e:	ea80 0202 	eor.w	r2, r0, r2
 8000212:	ea81 0303 	eor.w	r3, r1, r3
 8000216:	ea82 0000 	eor.w	r0, r2, r0
 800021a:	ea83 0101 	eor.w	r1, r3, r1
 800021e:	ea80 0202 	eor.w	r2, r0, r2
 8000222:	ea81 0303 	eor.w	r3, r1, r3
 8000226:	2d36      	cmp	r5, #54	; 0x36
 8000228:	bf88      	it	hi
 800022a:	bd30      	pophi	{r4, r5, pc}
 800022c:	f011 4f00 	tst.w	r1, #2147483648	; 0x80000000
 8000230:	ea4f 3101 	mov.w	r1, r1, lsl #12
 8000234:	f44f 1c80 	mov.w	ip, #1048576	; 0x100000
 8000238:	ea4c 3111 	orr.w	r1, ip, r1, lsr #12
 800023c:	d002      	beq.n	8000244 <__adddf3+0x70>
 800023e:	4240      	negs	r0, r0
 8000240:	eb61 0141 	sbc.w	r1, r1, r1, lsl #1
 8000244:	f013 4f00 	tst.w	r3, #2147483648	; 0x80000000
 8000248:	ea4f 3303 	mov.w	r3, r3, lsl #12
 800024c:	ea4c 3313 	orr.w	r3, ip, r3, lsr #12
 8000250:	d002      	beq.n	8000258 <__adddf3+0x84>
 8000252:	4252      	negs	r2, r2
 8000254:	eb63 0343 	sbc.w	r3, r3, r3, lsl #1
 8000258:	ea94 0f05 	teq	r4, r5
 800025c:	f000 80a7 	beq.w	80003ae <__adddf3+0x1da>
 8000260:	f1a4 0401 	sub.w	r4, r4, #1
 8000264:	f1d5 0e20 	rsbs	lr, r5, #32
 8000268:	db0d      	blt.n	8000286 <__adddf3+0xb2>
 800026a:	fa02 fc0e 	lsl.w	ip, r2, lr
 800026e:	fa22 f205 	lsr.w	r2, r2, r5
 8000272:	1880      	adds	r0, r0, r2
 8000274:	f141 0100 	adc.w	r1, r1, #0
 8000278:	fa03 f20e 	lsl.w	r2, r3, lr
 800027c:	1880      	adds	r0, r0, r2
 800027e:	fa43 f305 	asr.w	r3, r3, r5
 8000282:	4159      	adcs	r1, r3
 8000284:	e00e      	b.n	80002a4 <__adddf3+0xd0>
 8000286:	f1a5 0520 	sub.w	r5, r5, #32
 800028a:	f10e 0e20 	add.w	lr, lr, #32
 800028e:	2a01      	cmp	r2, #1
 8000290:	fa03 fc0e 	lsl.w	ip, r3, lr
 8000294:	bf28      	it	cs
 8000296:	f04c 0c02 	orrcs.w	ip, ip, #2
 800029a:	fa43 f305 	asr.w	r3, r3, r5
 800029e:	18c0      	adds	r0, r0, r3
 80002a0:	eb51 71e3 	adcs.w	r1, r1, r3, asr #31
 80002a4:	f001 4500 	and.w	r5, r1, #2147483648	; 0x80000000
 80002a8:	d507      	bpl.n	80002ba <__adddf3+0xe6>
 80002aa:	f04f 0e00 	mov.w	lr, #0
 80002ae:	f1dc 0c00 	rsbs	ip, ip, #0
 80002b2:	eb7e 0000 	sbcs.w	r0, lr, r0
 80002b6:	eb6e 0101 	sbc.w	r1, lr, r1
 80002ba:	f5b1 1f80 	cmp.w	r1, #1048576	; 0x100000
 80002be:	d31b      	bcc.n	80002f8 <__adddf3+0x124>
 80002c0:	f5b1 1f00 	cmp.w	r1, #2097152	; 0x200000
 80002c4:	d30c      	bcc.n	80002e0 <__adddf3+0x10c>
 80002c6:	0849      	lsrs	r1, r1, #1
 80002c8:	ea5f 0030 	movs.w	r0, r0, rrx
 80002cc:	ea4f 0c3c 	mov.w	ip, ip, rrx
 80002d0:	f104 0401 	add.w	r4, r4, #1
 80002d4:	ea4f 5244 	mov.w	r2, r4, lsl #21
 80002d8:	f512 0f80 	cmn.w	r2, #4194304	; 0x400000
 80002dc:	f080 809a 	bcs.w	8000414 <__adddf3+0x240>
 80002e0:	f1bc 4f00 	cmp.w	ip, #2147483648	; 0x80000000
 80002e4:	bf08      	it	eq
 80002e6:	ea5f 0c50 	movseq.w	ip, r0, lsr #1
 80002ea:	f150 0000 	adcs.w	r0, r0, #0
 80002ee:	eb41 5104 	adc.w	r1, r1, r4, lsl #20
 80002f2:	ea41 0105 	orr.w	r1, r1, r5
 80002f6:	bd30      	pop	{r4, r5, pc}
 80002f8:	ea5f 0c4c 	movs.w	ip, ip, lsl #1
 80002fc:	4140      	adcs	r0, r0
 80002fe:	eb41 0101 	adc.w	r1, r1, r1
 8000302:	3c01      	subs	r4, #1
 8000304:	bf28      	it	cs
 8000306:	f5b1 1f80 	cmpcs.w	r1, #1048576	; 0x100000
 800030a:	d2e9      	bcs.n	80002e0 <__adddf3+0x10c>
 800030c:	f091 0f00 	teq	r1, #0
 8000310:	bf04      	itt	eq
 8000312:	4601      	moveq	r1, r0
 8000314:	2000      	moveq	r0, #0
 8000316:	fab1 f381 	clz	r3, r1
 800031a:	bf08      	it	eq
 800031c:	3320      	addeq	r3, #32
 800031e:	f1a3 030b 	sub.w	r3, r3, #11
 8000322:	f1b3 0220 	subs.w	r2, r3, #32
 8000326:	da0c      	bge.n	8000342 <__adddf3+0x16e>
 8000328:	320c      	adds	r2, #12
 800032a:	dd08      	ble.n	800033e <__adddf3+0x16a>
 800032c:	f102 0c14 	add.w	ip, r2, #20
 8000330:	f1c2 020c 	rsb	r2, r2, #12
 8000334:	fa01 f00c 	lsl.w	r0, r1, ip
 8000338:	fa21 f102 	lsr.w	r1, r1, r2
 800033c:	e00c      	b.n	8000358 <__adddf3+0x184>
 800033e:	f102 0214 	add.w	r2, r2, #20
 8000342:	bfd8      	it	le
 8000344:	f1c2 0c20 	rsble	ip, r2, #32
 8000348:	fa01 f102 	lsl.w	r1, r1, r2
 800034c:	fa20 fc0c 	lsr.w	ip, r0, ip
 8000350:	bfdc      	itt	le
 8000352:	ea41 010c 	orrle.w	r1, r1, ip
 8000356:	4090      	lslle	r0, r2
 8000358:	1ae4      	subs	r4, r4, r3
 800035a:	bfa2      	ittt	ge
 800035c:	eb01 5104 	addge.w	r1, r1, r4, lsl #20
 8000360:	4329      	orrge	r1, r5
 8000362:	bd30      	popge	{r4, r5, pc}
 8000364:	ea6f 0404 	mvn.w	r4, r4
 8000368:	3c1f      	subs	r4, #31
 800036a:	da1c      	bge.n	80003a6 <__adddf3+0x1d2>
 800036c:	340c      	adds	r4, #12
 800036e:	dc0e      	bgt.n	800038e <__adddf3+0x1ba>
 8000370:	f104 0414 	add.w	r4, r4, #20
 8000374:	f1c4 0220 	rsb	r2, r4, #32
 8000378:	fa20 f004 	lsr.w	r0, r0, r4
 800037c:	fa01 f302 	lsl.w	r3, r1, r2
 8000380:	ea40 0003 	orr.w	r0, r0, r3
 8000384:	fa21 f304 	lsr.w	r3, r1, r4
 8000388:	ea45 0103 	orr.w	r1, r5, r3
 800038c:	bd30      	pop	{r4, r5, pc}
 800038e:	f1c4 040c 	rsb	r4, r4, #12
 8000392:	f1c4 0220 	rsb	r2, r4, #32
 8000396:	fa20 f002 	lsr.w	r0, r0, r2
 800039a:	fa01 f304 	lsl.w	r3, r1, r4
 800039e:	ea40 0003 	orr.w	r0, r0, r3
 80003a2:	4629      	mov	r1, r5
 80003a4:	bd30      	pop	{r4, r5, pc}
 80003a6:	fa21 f004 	lsr.w	r0, r1, r4
 80003aa:	4629      	mov	r1, r5
 80003ac:	bd30      	pop	{r4, r5, pc}
 80003ae:	f094 0f00 	teq	r4, #0
 80003b2:	f483 1380 	eor.w	r3, r3, #1048576	; 0x100000
 80003b6:	bf06      	itte	eq
 80003b8:	f481 1180 	eoreq.w	r1, r1, #1048576	; 0x100000
 80003bc:	3401      	addeq	r4, #1
 80003be:	3d01      	subne	r5, #1
 80003c0:	e74e      	b.n	8000260 <__adddf3+0x8c>
 80003c2:	ea7f 5c64 	mvns.w	ip, r4, asr #21
 80003c6:	bf18      	it	ne
 80003c8:	ea7f 5c65 	mvnsne.w	ip, r5, asr #21
 80003cc:	d029      	beq.n	8000422 <__adddf3+0x24e>
 80003ce:	ea94 0f05 	teq	r4, r5
 80003d2:	bf08      	it	eq
 80003d4:	ea90 0f02 	teqeq	r0, r2
 80003d8:	d005      	beq.n	80003e6 <__adddf3+0x212>
 80003da:	ea54 0c00 	orrs.w	ip, r4, r0
 80003de:	bf04      	itt	eq
 80003e0:	4619      	moveq	r1, r3
 80003e2:	4610      	moveq	r0, r2
 80003e4:	bd30      	pop	{r4, r5, pc}
 80003e6:	ea91 0f03 	teq	r1, r3
 80003ea:	bf1e      	ittt	ne
 80003ec:	2100      	movne	r1, #0
 80003ee:	2000      	movne	r0, #0
 80003f0:	bd30      	popne	{r4, r5, pc}
 80003f2:	ea5f 5c54 	movs.w	ip, r4, lsr #21
 80003f6:	d105      	bne.n	8000404 <__adddf3+0x230>
 80003f8:	0040      	lsls	r0, r0, #1
 80003fa:	4149      	adcs	r1, r1
 80003fc:	bf28      	it	cs
 80003fe:	f041 4100 	orrcs.w	r1, r1, #2147483648	; 0x80000000
 8000402:	bd30      	pop	{r4, r5, pc}
 8000404:	f514 0480 	adds.w	r4, r4, #4194304	; 0x400000
 8000408:	bf3c      	itt	cc
 800040a:	f501 1180 	addcc.w	r1, r1, #1048576	; 0x100000
 800040e:	bd30      	popcc	{r4, r5, pc}
 8000410:	f001 4500 	and.w	r5, r1, #2147483648	; 0x80000000
 8000414:	f045 41fe 	orr.w	r1, r5, #2130706432	; 0x7f000000
 8000418:	f441 0170 	orr.w	r1, r1, #15728640	; 0xf00000
 800041c:	f04f 0000 	mov.w	r0, #0
 8000420:	bd30      	pop	{r4, r5, pc}
 8000422:	ea7f 5c64 	mvns.w	ip, r4, asr #21
 8000426:	bf1a      	itte	ne
 8000428:	4619      	movne	r1, r3
 800042a:	4610      	movne	r0, r2
 800042c:	ea7f 5c65 	mvnseq.w	ip, r5, asr #21
 8000430:	bf1c      	itt	ne
 8000432:	460b      	movne	r3, r1
 8000434:	4602      	movne	r2, r0
 8000436:	ea50 3401 	orrs.w	r4, r0, r1, lsl #12
 800043a:	bf06      	itte	eq
 800043c:	ea52 3503 	orrseq.w	r5, r2, r3, lsl #12
 8000440:	ea91 0f03 	teqeq	r1, r3
 8000444:	f441 2100 	orrne.w	r1, r1, #524288	; 0x80000
 8000448:	bd30      	pop	{r4, r5, pc}
 800044a:	bf00      	nop

0800044c <__aeabi_ui2d>:
 800044c:	f090 0f00 	teq	r0, #0
 8000450:	bf04      	itt	eq
 8000452:	2100      	moveq	r1, #0
 8000454:	4770      	bxeq	lr
 8000456:	b530      	push	{r4, r5, lr}
 8000458:	f44f 6480 	mov.w	r4, #1024	; 0x400
 800045c:	f104 0432 	add.w	r4, r4, #50	; 0x32
 8000460:	f04f 0500 	mov.w	r5, #0
 8000464:	f04f 0100 	mov.w	r1, #0
 8000468:	e750      	b.n	800030c <__adddf3+0x138>
 800046a:	bf00      	nop

0800046c <__aeabi_i2d>:
 800046c:	f090 0f00 	teq	r0, #0
 8000470:	bf04      	itt	eq
 8000472:	2100      	moveq	r1, #0
 8000474:	4770      	bxeq	lr
 8000476:	b530      	push	{r4, r5, lr}
 8000478:	f44f 6480 	mov.w	r4, #1024	; 0x400
 800047c:	f104 0432 	add.w	r4, r4, #50	; 0x32
 8000480:	f010 4500 	ands.w	r5, r0, #2147483648	; 0x80000000
 8000484:	bf48      	it	mi
 8000486:	4240      	negmi	r0, r0
 8000488:	f04f 0100 	mov.w	r1, #0
 800048c:	e73e      	b.n	800030c <__adddf3+0x138>
 800048e:	bf00      	nop

08000490 <__aeabi_f2d>:
 8000490:	0042      	lsls	r2, r0, #1
 8000492:	ea4f 01e2 	mov.w	r1, r2, asr #3
 8000496:	ea4f 0131 	mov.w	r1, r1, rrx
 800049a:	ea4f 7002 	mov.w	r0, r2, lsl #28
 800049e:	bf1f      	itttt	ne
 80004a0:	f012 437f 	andsne.w	r3, r2, #4278190080	; 0xff000000
 80004a4:	f093 4f7f 	teqne	r3, #4278190080	; 0xff000000
 80004a8:	f081 5160 	eorne.w	r1, r1, #939524096	; 0x38000000
 80004ac:	4770      	bxne	lr
 80004ae:	f032 427f 	bics.w	r2, r2, #4278190080	; 0xff000000
 80004b2:	bf08      	it	eq
 80004b4:	4770      	bxeq	lr
 80004b6:	f093 4f7f 	teq	r3, #4278190080	; 0xff000000
 80004ba:	bf04      	itt	eq
 80004bc:	f441 2100 	orreq.w	r1, r1, #524288	; 0x80000
 80004c0:	4770      	bxeq	lr
 80004c2:	b530      	push	{r4, r5, lr}
 80004c4:	f44f 7460 	mov.w	r4, #896	; 0x380
 80004c8:	f001 4500 	and.w	r5, r1, #2147483648	; 0x80000000
 80004cc:	f021 4100 	bic.w	r1, r1, #2147483648	; 0x80000000
 80004d0:	e71c      	b.n	800030c <__adddf3+0x138>
 80004d2:	bf00      	nop

080004d4 <__aeabi_ul2d>:
 80004d4:	ea50 0201 	orrs.w	r2, r0, r1
 80004d8:	bf08      	it	eq
 80004da:	4770      	bxeq	lr
 80004dc:	b530      	push	{r4, r5, lr}
 80004de:	f04f 0500 	mov.w	r5, #0
 80004e2:	e00a      	b.n	80004fa <__aeabi_l2d+0x16>

080004e4 <__aeabi_l2d>:
 80004e4:	ea50 0201 	orrs.w	r2, r0, r1
 80004e8:	bf08      	it	eq
 80004ea:	4770      	bxeq	lr
 80004ec:	b530      	push	{r4, r5, lr}
 80004ee:	f011 4500 	ands.w	r5, r1, #2147483648	; 0x80000000
 80004f2:	d502      	bpl.n	80004fa <__aeabi_l2d+0x16>
 80004f4:	4240      	negs	r0, r0
 80004f6:	eb61 0141 	sbc.w	r1, r1, r1, lsl #1
 80004fa:	f44f 6480 	mov.w	r4, #1024	; 0x400
 80004fe:	f104 0432 	add.w	r4, r4, #50	; 0x32
 8000502:	ea5f 5c91 	movs.w	ip, r1, lsr #22
 8000506:	f43f aed8 	beq.w	80002ba <__adddf3+0xe6>
 800050a:	f04f 0203 	mov.w	r2, #3
 800050e:	ea5f 0cdc 	movs.w	ip, ip, lsr #3
 8000512:	bf18      	it	ne
 8000514:	3203      	addne	r2, #3
 8000516:	ea5f 0cdc 	movs.w	ip, ip, lsr #3
 800051a:	bf18      	it	ne
 800051c:	3203      	addne	r2, #3
 800051e:	eb02 02dc 	add.w	r2, r2, ip, lsr #3
 8000522:	f1c2 0320 	rsb	r3, r2, #32
 8000526:	fa00 fc03 	lsl.w	ip, r0, r3
 800052a:	fa20 f002 	lsr.w	r0, r0, r2
 800052e:	fa01 fe03 	lsl.w	lr, r1, r3
 8000532:	ea40 000e 	orr.w	r0, r0, lr
 8000536:	fa21 f102 	lsr.w	r1, r1, r2
 800053a:	4414      	add	r4, r2
 800053c:	e6bd      	b.n	80002ba <__adddf3+0xe6>
 800053e:	bf00      	nop

08000540 <__aeabi_dmul>:
 8000540:	b570      	push	{r4, r5, r6, lr}
 8000542:	f04f 0cff 	mov.w	ip, #255	; 0xff
 8000546:	f44c 6ce0 	orr.w	ip, ip, #1792	; 0x700
 800054a:	ea1c 5411 	ands.w	r4, ip, r1, lsr #20
 800054e:	bf1d      	ittte	ne
 8000550:	ea1c 5513 	andsne.w	r5, ip, r3, lsr #20
 8000554:	ea94 0f0c 	teqne	r4, ip
 8000558:	ea95 0f0c 	teqne	r5, ip
 800055c:	f000 f8de 	bleq	800071c <__aeabi_dmul+0x1dc>
 8000560:	442c      	add	r4, r5
 8000562:	ea81 0603 	eor.w	r6, r1, r3
 8000566:	ea21 514c 	bic.w	r1, r1, ip, lsl #21
 800056a:	ea23 534c 	bic.w	r3, r3, ip, lsl #21
 800056e:	ea50 3501 	orrs.w	r5, r0, r1, lsl #12
 8000572:	bf18      	it	ne
 8000574:	ea52 3503 	orrsne.w	r5, r2, r3, lsl #12
 8000578:	f441 1180 	orr.w	r1, r1, #1048576	; 0x100000
 800057c:	f443 1380 	orr.w	r3, r3, #1048576	; 0x100000
 8000580:	d038      	beq.n	80005f4 <__aeabi_dmul+0xb4>
 8000582:	fba0 ce02 	umull	ip, lr, r0, r2
 8000586:	f04f 0500 	mov.w	r5, #0
 800058a:	fbe1 e502 	umlal	lr, r5, r1, r2
 800058e:	f006 4200 	and.w	r2, r6, #2147483648	; 0x80000000
 8000592:	fbe0 e503 	umlal	lr, r5, r0, r3
 8000596:	f04f 0600 	mov.w	r6, #0
 800059a:	fbe1 5603 	umlal	r5, r6, r1, r3
 800059e:	f09c 0f00 	teq	ip, #0
 80005a2:	bf18      	it	ne
 80005a4:	f04e 0e01 	orrne.w	lr, lr, #1
 80005a8:	f1a4 04ff 	sub.w	r4, r4, #255	; 0xff
 80005ac:	f5b6 7f00 	cmp.w	r6, #512	; 0x200
 80005b0:	f564 7440 	sbc.w	r4, r4, #768	; 0x300
 80005b4:	d204      	bcs.n	80005c0 <__aeabi_dmul+0x80>
 80005b6:	ea5f 0e4e 	movs.w	lr, lr, lsl #1
 80005ba:	416d      	adcs	r5, r5
 80005bc:	eb46 0606 	adc.w	r6, r6, r6
 80005c0:	ea42 21c6 	orr.w	r1, r2, r6, lsl #11
 80005c4:	ea41 5155 	orr.w	r1, r1, r5, lsr #21
 80005c8:	ea4f 20c5 	mov.w	r0, r5, lsl #11
 80005cc:	ea40 505e 	orr.w	r0, r0, lr, lsr #21
 80005d0:	ea4f 2ece 	mov.w	lr, lr, lsl #11
 80005d4:	f1b4 0cfd 	subs.w	ip, r4, #253	; 0xfd
 80005d8:	bf88      	it	hi
 80005da:	f5bc 6fe0 	cmphi.w	ip, #1792	; 0x700
 80005de:	d81e      	bhi.n	800061e <__aeabi_dmul+0xde>
 80005e0:	f1be 4f00 	cmp.w	lr, #2147483648	; 0x80000000
 80005e4:	bf08      	it	eq
 80005e6:	ea5f 0e50 	movseq.w	lr, r0, lsr #1
 80005ea:	f150 0000 	adcs.w	r0, r0, #0
 80005ee:	eb41 5104 	adc.w	r1, r1, r4, lsl #20
 80005f2:	bd70      	pop	{r4, r5, r6, pc}
 80005f4:	f006 4600 	and.w	r6, r6, #2147483648	; 0x80000000
 80005f8:	ea46 0101 	orr.w	r1, r6, r1
 80005fc:	ea40 0002 	orr.w	r0, r0, r2
 8000600:	ea81 0103 	eor.w	r1, r1, r3
 8000604:	ebb4 045c 	subs.w	r4, r4, ip, lsr #1
 8000608:	bfc2      	ittt	gt
 800060a:	ebd4 050c 	rsbsgt	r5, r4, ip
 800060e:	ea41 5104 	orrgt.w	r1, r1, r4, lsl #20
 8000612:	bd70      	popgt	{r4, r5, r6, pc}
 8000614:	f441 1180 	orr.w	r1, r1, #1048576	; 0x100000
 8000618:	f04f 0e00 	mov.w	lr, #0
 800061c:	3c01      	subs	r4, #1
 800061e:	f300 80ab 	bgt.w	8000778 <__aeabi_dmul+0x238>
 8000622:	f114 0f36 	cmn.w	r4, #54	; 0x36
 8000626:	bfde      	ittt	le
 8000628:	2000      	movle	r0, #0
 800062a:	f001 4100 	andle.w	r1, r1, #2147483648	; 0x80000000
 800062e:	bd70      	pople	{r4, r5, r6, pc}
 8000630:	f1c4 0400 	rsb	r4, r4, #0
 8000634:	3c20      	subs	r4, #32
 8000636:	da35      	bge.n	80006a4 <__aeabi_dmul+0x164>
 8000638:	340c      	adds	r4, #12
 800063a:	dc1b      	bgt.n	8000674 <__aeabi_dmul+0x134>
 800063c:	f104 0414 	add.w	r4, r4, #20
 8000640:	f1c4 0520 	rsb	r5, r4, #32
 8000644:	fa00 f305 	lsl.w	r3, r0, r5
 8000648:	fa20 f004 	lsr.w	r0, r0, r4
 800064c:	fa01 f205 	lsl.w	r2, r1, r5
 8000650:	ea40 0002 	orr.w	r0, r0, r2
 8000654:	f001 4200 	and.w	r2, r1, #2147483648	; 0x80000000
 8000658:	f021 4100 	bic.w	r1, r1, #2147483648	; 0x80000000
 800065c:	eb10 70d3 	adds.w	r0, r0, r3, lsr #31
 8000660:	fa21 f604 	lsr.w	r6, r1, r4
 8000664:	eb42 0106 	adc.w	r1, r2, r6
 8000668:	ea5e 0e43 	orrs.w	lr, lr, r3, lsl #1
 800066c:	bf08      	it	eq
 800066e:	ea20 70d3 	biceq.w	r0, r0, r3, lsr #31
 8000672:	bd70      	pop	{r4, r5, r6, pc}
 8000674:	f1c4 040c 	rsb	r4, r4, #12
 8000678:	f1c4 0520 	rsb	r5, r4, #32
 800067c:	fa00 f304 	lsl.w	r3, r0, r4
 8000680:	fa20 f005 	lsr.w	r0, r0, r5
 8000684:	fa01 f204 	lsl.w	r2, r1, r4
 8000688:	ea40 0002 	orr.w	r0, r0, r2
 800068c:	f001 4100 	and.w	r1, r1, #2147483648	; 0x80000000
 8000690:	eb10 70d3 	adds.w	r0, r0, r3, lsr #31
 8000694:	f141 0100 	adc.w	r1, r1, #0
 8000698:	ea5e 0e43 	orrs.w	lr, lr, r3, lsl #1
 800069c:	bf08      	it	eq
 800069e:	ea20 70d3 	biceq.w	r0, r0, r3, lsr #31
 80006a2:	bd70      	pop	{r4, r5, r6, pc}
 80006a4:	f1c4 0520 	rsb	r5, r4, #32
 80006a8:	fa00 f205 	lsl.w	r2, r0, r5
 80006ac:	ea4e 0e02 	orr.w	lr, lr, r2
 80006b0:	fa20 f304 	lsr.w	r3, r0, r4
 80006b4:	fa01 f205 	lsl.w	r2, r1, r5
 80006b8:	ea43 0302 	orr.w	r3, r3, r2
 80006bc:	fa21 f004 	lsr.w	r0, r1, r4
 80006c0:	f001 4100 	and.w	r1, r1, #2147483648	; 0x80000000
 80006c4:	fa21 f204 	lsr.w	r2, r1, r4
 80006c8:	ea20 0002 	bic.w	r0, r0, r2
 80006cc:	eb00 70d3 	add.w	r0, r0, r3, lsr #31
 80006d0:	ea5e 0e43 	orrs.w	lr, lr, r3, lsl #1
 80006d4:	bf08      	it	eq
 80006d6:	ea20 70d3 	biceq.w	r0, r0, r3, lsr #31
 80006da:	bd70      	pop	{r4, r5, r6, pc}
 80006dc:	f094 0f00 	teq	r4, #0
 80006e0:	d10f      	bne.n	8000702 <__aeabi_dmul+0x1c2>
 80006e2:	f001 4600 	and.w	r6, r1, #2147483648	; 0x80000000
 80006e6:	0040      	lsls	r0, r0, #1
 80006e8:	eb41 0101 	adc.w	r1, r1, r1
 80006ec:	f411 1f80 	tst.w	r1, #1048576	; 0x100000
 80006f0:	bf08      	it	eq
 80006f2:	3c01      	subeq	r4, #1
 80006f4:	d0f7      	beq.n	80006e6 <__aeabi_dmul+0x1a6>
 80006f6:	ea41 0106 	orr.w	r1, r1, r6
 80006fa:	f095 0f00 	teq	r5, #0
 80006fe:	bf18      	it	ne
 8000700:	4770      	bxne	lr
 8000702:	f003 4600 	and.w	r6, r3, #2147483648	; 0x80000000
 8000706:	0052      	lsls	r2, r2, #1
 8000708:	eb43 0303 	adc.w	r3, r3, r3
 800070c:	f413 1f80 	tst.w	r3, #1048576	; 0x100000
 8000710:	bf08      	it	eq
 8000712:	3d01      	subeq	r5, #1
 8000714:	d0f7      	beq.n	8000706 <__aeabi_dmul+0x1c6>
 8000716:	ea43 0306 	orr.w	r3, r3, r6
 800071a:	4770      	bx	lr
 800071c:	ea94 0f0c 	teq	r4, ip
 8000720:	ea0c 5513 	and.w	r5, ip, r3, lsr #20
 8000724:	bf18      	it	ne
 8000726:	ea95 0f0c 	teqne	r5, ip
 800072a:	d00c      	beq.n	8000746 <__aeabi_dmul+0x206>
 800072c:	ea50 0641 	orrs.w	r6, r0, r1, lsl #1
 8000730:	bf18      	it	ne
 8000732:	ea52 0643 	orrsne.w	r6, r2, r3, lsl #1
 8000736:	d1d1      	bne.n	80006dc <__aeabi_dmul+0x19c>
 8000738:	ea81 0103 	eor.w	r1, r1, r3
 800073c:	f001 4100 	and.w	r1, r1, #2147483648	; 0x80000000
 8000740:	f04f 0000 	mov.w	r0, #0
 8000744:	bd70      	pop	{r4, r5, r6, pc}
 8000746:	ea50 0641 	orrs.w	r6, r0, r1, lsl #1
 800074a:	bf06      	itte	eq
 800074c:	4610      	moveq	r0, r2
 800074e:	4619      	moveq	r1, r3
 8000750:	ea52 0643 	orrsne.w	r6, r2, r3, lsl #1
 8000754:	d019      	beq.n	800078a <__aeabi_dmul+0x24a>
 8000756:	ea94 0f0c 	teq	r4, ip
 800075a:	d102      	bne.n	8000762 <__aeabi_dmul+0x222>
 800075c:	ea50 3601 	orrs.w	r6, r0, r1, lsl #12
 8000760:	d113      	bne.n	800078a <__aeabi_dmul+0x24a>
 8000762:	ea95 0f0c 	teq	r5, ip
 8000766:	d105      	bne.n	8000774 <__aeabi_dmul+0x234>
 8000768:	ea52 3603 	orrs.w	r6, r2, r3, lsl #12
 800076c:	bf1c      	itt	ne
 800076e:	4610      	movne	r0, r2
 8000770:	4619      	movne	r1, r3
 8000772:	d10a      	bne.n	800078a <__aeabi_dmul+0x24a>
 8000774:	ea81 0103 	eor.w	r1, r1, r3
 8000778:	f001 4100 	and.w	r1, r1, #2147483648	; 0x80000000
 800077c:	f041 41fe 	orr.w	r1, r1, #2130706432	; 0x7f000000
 8000780:	f441 0170 	orr.w	r1, r1, #15728640	; 0xf00000
 8000784:	f04f 0000 	mov.w	r0, #0
 8000788:	bd70      	pop	{r4, r5, r6, pc}
 800078a:	f041 41fe 	orr.w	r1, r1, #2130706432	; 0x7f000000
 800078e:	f441 0178 	orr.w	r1, r1, #16252928	; 0xf80000
 8000792:	bd70      	pop	{r4, r5, r6, pc}

08000794 <__aeabi_ddiv>:
 8000794:	b570      	push	{r4, r5, r6, lr}
 8000796:	f04f 0cff 	mov.w	ip, #255	; 0xff
 800079a:	f44c 6ce0 	orr.w	ip, ip, #1792	; 0x700
 800079e:	ea1c 5411 	ands.w	r4, ip, r1, lsr #20
 80007a2:	bf1d      	ittte	ne
 80007a4:	ea1c 5513 	andsne.w	r5, ip, r3, lsr #20
 80007a8:	ea94 0f0c 	teqne	r4, ip
 80007ac:	ea95 0f0c 	teqne	r5, ip
 80007b0:	f000 f8a7 	bleq	8000902 <__aeabi_ddiv+0x16e>
 80007b4:	eba4 0405 	sub.w	r4, r4, r5
 80007b8:	ea81 0e03 	eor.w	lr, r1, r3
 80007bc:	ea52 3503 	orrs.w	r5, r2, r3, lsl #12
 80007c0:	ea4f 3101 	mov.w	r1, r1, lsl #12
 80007c4:	f000 8088 	beq.w	80008d8 <__aeabi_ddiv+0x144>
 80007c8:	ea4f 3303 	mov.w	r3, r3, lsl #12
 80007cc:	f04f 5580 	mov.w	r5, #268435456	; 0x10000000
 80007d0:	ea45 1313 	orr.w	r3, r5, r3, lsr #4
 80007d4:	ea43 6312 	orr.w	r3, r3, r2, lsr #24
 80007d8:	ea4f 2202 	mov.w	r2, r2, lsl #8
 80007dc:	ea45 1511 	orr.w	r5, r5, r1, lsr #4
 80007e0:	ea45 6510 	orr.w	r5, r5, r0, lsr #24
 80007e4:	ea4f 2600 	mov.w	r6, r0, lsl #8
 80007e8:	f00e 4100 	and.w	r1, lr, #2147483648	; 0x80000000
 80007ec:	429d      	cmp	r5, r3
 80007ee:	bf08      	it	eq
 80007f0:	4296      	cmpeq	r6, r2
 80007f2:	f144 04fd 	adc.w	r4, r4, #253	; 0xfd
 80007f6:	f504 7440 	add.w	r4, r4, #768	; 0x300
 80007fa:	d202      	bcs.n	8000802 <__aeabi_ddiv+0x6e>
 80007fc:	085b      	lsrs	r3, r3, #1
 80007fe:	ea4f 0232 	mov.w	r2, r2, rrx
 8000802:	1ab6      	subs	r6, r6, r2
 8000804:	eb65 0503 	sbc.w	r5, r5, r3
 8000808:	085b      	lsrs	r3, r3, #1
 800080a:	ea4f 0232 	mov.w	r2, r2, rrx
 800080e:	f44f 1080 	mov.w	r0, #1048576	; 0x100000
 8000812:	f44f 2c00 	mov.w	ip, #524288	; 0x80000
 8000816:	ebb6 0e02 	subs.w	lr, r6, r2
 800081a:	eb75 0e03 	sbcs.w	lr, r5, r3
 800081e:	bf22      	ittt	cs
 8000820:	1ab6      	subcs	r6, r6, r2
 8000822:	4675      	movcs	r5, lr
 8000824:	ea40 000c 	orrcs.w	r0, r0, ip
 8000828:	085b      	lsrs	r3, r3, #1
 800082a:	ea4f 0232 	mov.w	r2, r2, rrx
 800082e:	ebb6 0e02 	subs.w	lr, r6, r2
 8000832:	eb75 0e03 	sbcs.w	lr, r5, r3
 8000836:	bf22      	ittt	cs
 8000838:	1ab6      	subcs	r6, r6, r2
 800083a:	4675      	movcs	r5, lr
 800083c:	ea40 005c 	orrcs.w	r0, r0, ip, lsr #1
 8000840:	085b      	lsrs	r3, r3, #1
 8000842:	ea4f 0232 	mov.w	r2, r2, rrx
 8000846:	ebb6 0e02 	subs.w	lr, r6, r2
 800084a:	eb75 0e03 	sbcs.w	lr, r5, r3
 800084e:	bf22      	ittt	cs
 8000850:	1ab6      	subcs	r6, r6, r2
 8000852:	4675      	movcs	r5, lr
 8000854:	ea40 009c 	orrcs.w	r0, r0, ip, lsr #2
 8000858:	085b      	lsrs	r3, r3, #1
 800085a:	ea4f 0232 	mov.w	r2, r2, rrx
 800085e:	ebb6 0e02 	subs.w	lr, r6, r2
 8000862:	eb75 0e03 	sbcs.w	lr, r5, r3
 8000866:	bf22      	ittt	cs
 8000868:	1ab6      	subcs	r6, r6, r2
 800086a:	4675      	movcs	r5, lr
 800086c:	ea40 00dc 	orrcs.w	r0, r0, ip, lsr #3
 8000870:	ea55 0e06 	orrs.w	lr, r5, r6
 8000874:	d018      	beq.n	80008a8 <__aeabi_ddiv+0x114>
 8000876:	ea4f 1505 	mov.w	r5, r5, lsl #4
 800087a:	ea45 7516 	orr.w	r5, r5, r6, lsr #28
 800087e:	ea4f 1606 	mov.w	r6, r6, lsl #4
 8000882:	ea4f 03c3 	mov.w	r3, r3, lsl #3
 8000886:	ea43 7352 	orr.w	r3, r3, r2, lsr #29
 800088a:	ea4f 02c2 	mov.w	r2, r2, lsl #3
 800088e:	ea5f 1c1c 	movs.w	ip, ip, lsr #4
 8000892:	d1c0      	bne.n	8000816 <__aeabi_ddiv+0x82>
 8000894:	f411 1f80 	tst.w	r1, #1048576	; 0x100000
 8000898:	d10b      	bne.n	80008b2 <__aeabi_ddiv+0x11e>
 800089a:	ea41 0100 	orr.w	r1, r1, r0
 800089e:	f04f 0000 	mov.w	r0, #0
 80008a2:	f04f 4c00 	mov.w	ip, #2147483648	; 0x80000000
 80008a6:	e7b6      	b.n	8000816 <__aeabi_ddiv+0x82>
 80008a8:	f411 1f80 	tst.w	r1, #1048576	; 0x100000
 80008ac:	bf04      	itt	eq
 80008ae:	4301      	orreq	r1, r0
 80008b0:	2000      	moveq	r0, #0
 80008b2:	f1b4 0cfd 	subs.w	ip, r4, #253	; 0xfd
 80008b6:	bf88      	it	hi
 80008b8:	f5bc 6fe0 	cmphi.w	ip, #1792	; 0x700
 80008bc:	f63f aeaf 	bhi.w	800061e <__aeabi_dmul+0xde>
 80008c0:	ebb5 0c03 	subs.w	ip, r5, r3
 80008c4:	bf04      	itt	eq
 80008c6:	ebb6 0c02 	subseq.w	ip, r6, r2
 80008ca:	ea5f 0c50 	movseq.w	ip, r0, lsr #1
 80008ce:	f150 0000 	adcs.w	r0, r0, #0
 80008d2:	eb41 5104 	adc.w	r1, r1, r4, lsl #20
 80008d6:	bd70      	pop	{r4, r5, r6, pc}
 80008d8:	f00e 4e00 	and.w	lr, lr, #2147483648	; 0x80000000
 80008dc:	ea4e 3111 	orr.w	r1, lr, r1, lsr #12
 80008e0:	eb14 045c 	adds.w	r4, r4, ip, lsr #1
 80008e4:	bfc2      	ittt	gt
 80008e6:	ebd4 050c 	rsbsgt	r5, r4, ip
 80008ea:	ea41 5104 	orrgt.w	r1, r1, r4, lsl #20
 80008ee:	bd70      	popgt	{r4, r5, r6, pc}
 80008f0:	f441 1180 	orr.w	r1, r1, #1048576	; 0x100000
 80008f4:	f04f 0e00 	mov.w	lr, #0
 80008f8:	3c01      	subs	r4, #1
 80008fa:	e690      	b.n	800061e <__aeabi_dmul+0xde>
 80008fc:	ea45 0e06 	orr.w	lr, r5, r6
 8000900:	e68d      	b.n	800061e <__aeabi_dmul+0xde>
 8000902:	ea0c 5513 	and.w	r5, ip, r3, lsr #20
 8000906:	ea94 0f0c 	teq	r4, ip
 800090a:	bf08      	it	eq
 800090c:	ea95 0f0c 	teqeq	r5, ip
 8000910:	f43f af3b 	beq.w	800078a <__aeabi_dmul+0x24a>
 8000914:	ea94 0f0c 	teq	r4, ip
 8000918:	d10a      	bne.n	8000930 <__aeabi_ddiv+0x19c>
 800091a:	ea50 3401 	orrs.w	r4, r0, r1, lsl #12
 800091e:	f47f af34 	bne.w	800078a <__aeabi_dmul+0x24a>
 8000922:	ea95 0f0c 	teq	r5, ip
 8000926:	f47f af25 	bne.w	8000774 <__aeabi_dmul+0x234>
 800092a:	4610      	mov	r0, r2
 800092c:	4619      	mov	r1, r3
 800092e:	e72c      	b.n	800078a <__aeabi_dmul+0x24a>
 8000930:	ea95 0f0c 	teq	r5, ip
 8000934:	d106      	bne.n	8000944 <__aeabi_ddiv+0x1b0>
 8000936:	ea52 3503 	orrs.w	r5, r2, r3, lsl #12
 800093a:	f43f aefd 	beq.w	8000738 <__aeabi_dmul+0x1f8>
 800093e:	4610      	mov	r0, r2
 8000940:	4619      	mov	r1, r3
 8000942:	e722      	b.n	800078a <__aeabi_dmul+0x24a>
 8000944:	ea50 0641 	orrs.w	r6, r0, r1, lsl #1
 8000948:	bf18      	it	ne
 800094a:	ea52 0643 	orrsne.w	r6, r2, r3, lsl #1
 800094e:	f47f aec5 	bne.w	80006dc <__aeabi_dmul+0x19c>
 8000952:	ea50 0441 	orrs.w	r4, r0, r1, lsl #1
 8000956:	f47f af0d 	bne.w	8000774 <__aeabi_dmul+0x234>
 800095a:	ea52 0543 	orrs.w	r5, r2, r3, lsl #1
 800095e:	f47f aeeb 	bne.w	8000738 <__aeabi_dmul+0x1f8>
 8000962:	e712      	b.n	800078a <__aeabi_dmul+0x24a>

08000964 <__gedf2>:
 8000964:	f04f 3cff 	mov.w	ip, #4294967295
 8000968:	e006      	b.n	8000978 <__cmpdf2+0x4>
 800096a:	bf00      	nop

0800096c <__ledf2>:
 800096c:	f04f 0c01 	mov.w	ip, #1
 8000970:	e002      	b.n	8000978 <__cmpdf2+0x4>
 8000972:	bf00      	nop

08000974 <__cmpdf2>:
 8000974:	f04f 0c01 	mov.w	ip, #1
 8000978:	f84d cd04 	str.w	ip, [sp, #-4]!
 800097c:	ea4f 0c41 	mov.w	ip, r1, lsl #1
 8000980:	ea7f 5c6c 	mvns.w	ip, ip, asr #21
 8000984:	ea4f 0c43 	mov.w	ip, r3, lsl #1
 8000988:	bf18      	it	ne
 800098a:	ea7f 5c6c 	mvnsne.w	ip, ip, asr #21
 800098e:	d01b      	beq.n	80009c8 <__cmpdf2+0x54>
 8000990:	b001      	add	sp, #4
 8000992:	ea50 0c41 	orrs.w	ip, r0, r1, lsl #1
 8000996:	bf0c      	ite	eq
 8000998:	ea52 0c43 	orrseq.w	ip, r2, r3, lsl #1
 800099c:	ea91 0f03 	teqne	r1, r3
 80009a0:	bf02      	ittt	eq
 80009a2:	ea90 0f02 	teqeq	r0, r2
 80009a6:	2000      	moveq	r0, #0
 80009a8:	4770      	bxeq	lr
 80009aa:	f110 0f00 	cmn.w	r0, #0
 80009ae:	ea91 0f03 	teq	r1, r3
 80009b2:	bf58      	it	pl
 80009b4:	4299      	cmppl	r1, r3
 80009b6:	bf08      	it	eq
 80009b8:	4290      	cmpeq	r0, r2
 80009ba:	bf2c      	ite	cs
 80009bc:	17d8      	asrcs	r0, r3, #31
 80009be:	ea6f 70e3 	mvncc.w	r0, r3, asr #31
 80009c2:	f040 0001 	orr.w	r0, r0, #1
 80009c6:	4770      	bx	lr
 80009c8:	ea4f 0c41 	mov.w	ip, r1, lsl #1
 80009cc:	ea7f 5c6c 	mvns.w	ip, ip, asr #21
 80009d0:	d102      	bne.n	80009d8 <__cmpdf2+0x64>
 80009d2:	ea50 3c01 	orrs.w	ip, r0, r1, lsl #12
 80009d6:	d107      	bne.n	80009e8 <__cmpdf2+0x74>
 80009d8:	ea4f 0c43 	mov.w	ip, r3, lsl #1
 80009dc:	ea7f 5c6c 	mvns.w	ip, ip, asr #21
 80009e0:	d1d6      	bne.n	8000990 <__cmpdf2+0x1c>
 80009e2:	ea52 3c03 	orrs.w	ip, r2, r3, lsl #12
 80009e6:	d0d3      	beq.n	8000990 <__cmpdf2+0x1c>
 80009e8:	f85d 0b04 	ldr.w	r0, [sp], #4
 80009ec:	4770      	bx	lr
 80009ee:	bf00      	nop

080009f0 <__aeabi_cdrcmple>:
 80009f0:	4684      	mov	ip, r0
 80009f2:	4610      	mov	r0, r2
 80009f4:	4662      	mov	r2, ip
 80009f6:	468c      	mov	ip, r1
 80009f8:	4619      	mov	r1, r3
 80009fa:	4663      	mov	r3, ip
 80009fc:	e000      	b.n	8000a00 <__aeabi_cdcmpeq>
 80009fe:	bf00      	nop

08000a00 <__aeabi_cdcmpeq>:
 8000a00:	b501      	push	{r0, lr}
 8000a02:	f7ff ffb7 	bl	8000974 <__cmpdf2>
 8000a06:	2800      	cmp	r0, #0
 8000a08:	bf48      	it	mi
 8000a0a:	f110 0f00 	cmnmi.w	r0, #0
 8000a0e:	bd01      	pop	{r0, pc}

08000a10 <__aeabi_dcmpeq>:
 8000a10:	f84d ed08 	str.w	lr, [sp, #-8]!
 8000a14:	f7ff fff4 	bl	8000a00 <__aeabi_cdcmpeq>
 8000a18:	bf0c      	ite	eq
 8000a1a:	2001      	moveq	r0, #1
 8000a1c:	2000      	movne	r0, #0
 8000a1e:	f85d fb08 	ldr.w	pc, [sp], #8
 8000a22:	bf00      	nop

08000a24 <__aeabi_dcmplt>:
 8000a24:	f84d ed08 	str.w	lr, [sp, #-8]!
 8000a28:	f7ff ffea 	bl	8000a00 <__aeabi_cdcmpeq>
 8000a2c:	bf34      	ite	cc
 8000a2e:	2001      	movcc	r0, #1
 8000a30:	2000      	movcs	r0, #0
 8000a32:	f85d fb08 	ldr.w	pc, [sp], #8
 8000a36:	bf00      	nop

08000a38 <__aeabi_dcmple>:
 8000a38:	f84d ed08 	str.w	lr, [sp, #-8]!
 8000a3c:	f7ff ffe0 	bl	8000a00 <__aeabi_cdcmpeq>
 8000a40:	bf94      	ite	ls
 8000a42:	2001      	movls	r0, #1
 8000a44:	2000      	movhi	r0, #0
 8000a46:	f85d fb08 	ldr.w	pc, [sp], #8
 8000a4a:	bf00      	nop

08000a4c <__aeabi_dcmpge>:
 8000a4c:	f84d ed08 	str.w	lr, [sp, #-8]!
 8000a50:	f7ff ffce 	bl	80009f0 <__aeabi_cdrcmple>
 8000a54:	bf94      	ite	ls
 8000a56:	2001      	movls	r0, #1
 8000a58:	2000      	movhi	r0, #0
 8000a5a:	f85d fb08 	ldr.w	pc, [sp], #8
 8000a5e:	bf00      	nop

08000a60 <__aeabi_dcmpgt>:
 8000a60:	f84d ed08 	str.w	lr, [sp, #-8]!
 8000a64:	f7ff ffc4 	bl	80009f0 <__aeabi_cdrcmple>
 8000a68:	bf34      	ite	cc
 8000a6a:	2001      	movcc	r0, #1
 8000a6c:	2000      	movcs	r0, #0
 8000a6e:	f85d fb08 	ldr.w	pc, [sp], #8
 8000a72:	bf00      	nop

08000a74 <__aeabi_dcmpun>:
 8000a74:	ea4f 0c41 	mov.w	ip, r1, lsl #1
 8000a78:	ea7f 5c6c 	mvns.w	ip, ip, asr #21
 8000a7c:	d102      	bne.n	8000a84 <__aeabi_dcmpun+0x10>
 8000a7e:	ea50 3c01 	orrs.w	ip, r0, r1, lsl #12
 8000a82:	d10a      	bne.n	8000a9a <__aeabi_dcmpun+0x26>
 8000a84:	ea4f 0c43 	mov.w	ip, r3, lsl #1
 8000a88:	ea7f 5c6c 	mvns.w	ip, ip, asr #21
 8000a8c:	d102      	bne.n	8000a94 <__aeabi_dcmpun+0x20>
 8000a8e:	ea52 3c03 	orrs.w	ip, r2, r3, lsl #12
 8000a92:	d102      	bne.n	8000a9a <__aeabi_dcmpun+0x26>
 8000a94:	f04f 0000 	mov.w	r0, #0
 8000a98:	4770      	bx	lr
 8000a9a:	f04f 0001 	mov.w	r0, #1
 8000a9e:	4770      	bx	lr

08000aa0 <__aeabi_d2f>:
 8000aa0:	ea4f 0241 	mov.w	r2, r1, lsl #1
 8000aa4:	f1b2 43e0 	subs.w	r3, r2, #1879048192	; 0x70000000
 8000aa8:	bf24      	itt	cs
 8000aaa:	f5b3 1c00 	subscs.w	ip, r3, #2097152	; 0x200000
 8000aae:	f1dc 5cfe 	rsbscs	ip, ip, #532676608	; 0x1fc00000
 8000ab2:	d90d      	bls.n	8000ad0 <__aeabi_d2f+0x30>
 8000ab4:	f001 4c00 	and.w	ip, r1, #2147483648	; 0x80000000
 8000ab8:	ea4f 02c0 	mov.w	r2, r0, lsl #3
 8000abc:	ea4c 7050 	orr.w	r0, ip, r0, lsr #29
 8000ac0:	f1b2 4f00 	cmp.w	r2, #2147483648	; 0x80000000
 8000ac4:	eb40 0083 	adc.w	r0, r0, r3, lsl #2
 8000ac8:	bf08      	it	eq
 8000aca:	f020 0001 	biceq.w	r0, r0, #1
 8000ace:	4770      	bx	lr
 8000ad0:	f011 4f80 	tst.w	r1, #1073741824	; 0x40000000
 8000ad4:	d121      	bne.n	8000b1a <__aeabi_d2f+0x7a>
 8000ad6:	f113 7238 	adds.w	r2, r3, #48234496	; 0x2e00000
 8000ada:	bfbc      	itt	lt
 8000adc:	f001 4000 	andlt.w	r0, r1, #2147483648	; 0x80000000
 8000ae0:	4770      	bxlt	lr
 8000ae2:	f441 1180 	orr.w	r1, r1, #1048576	; 0x100000
 8000ae6:	ea4f 5252 	mov.w	r2, r2, lsr #21
 8000aea:	f1c2 0218 	rsb	r2, r2, #24
 8000aee:	f1c2 0c20 	rsb	ip, r2, #32
 8000af2:	fa10 f30c 	lsls.w	r3, r0, ip
 8000af6:	fa20 f002 	lsr.w	r0, r0, r2
 8000afa:	bf18      	it	ne
 8000afc:	f040 0001 	orrne.w	r0, r0, #1
 8000b00:	ea4f 23c1 	mov.w	r3, r1, lsl #11
 8000b04:	ea4f 23d3 	mov.w	r3, r3, lsr #11
 8000b08:	fa03 fc0c 	lsl.w	ip, r3, ip
 8000b0c:	ea40 000c 	orr.w	r0, r0, ip
 8000b10:	fa23 f302 	lsr.w	r3, r3, r2
 8000b14:	ea4f 0343 	mov.w	r3, r3, lsl #1
 8000b18:	e7cc      	b.n	8000ab4 <__aeabi_d2f+0x14>
 8000b1a:	ea7f 5362 	mvns.w	r3, r2, asr #21
 8000b1e:	d107      	bne.n	8000b30 <__aeabi_d2f+0x90>
 8000b20:	ea50 3301 	orrs.w	r3, r0, r1, lsl #12
 8000b24:	bf1e      	ittt	ne
 8000b26:	f04f 40fe 	movne.w	r0, #2130706432	; 0x7f000000
 8000b2a:	f440 0040 	orrne.w	r0, r0, #12582912	; 0xc00000
 8000b2e:	4770      	bxne	lr
 8000b30:	f001 4000 	and.w	r0, r1, #2147483648	; 0x80000000
 8000b34:	f040 40fe 	orr.w	r0, r0, #2130706432	; 0x7f000000
 8000b38:	f440 0000 	orr.w	r0, r0, #8388608	; 0x800000
 8000b3c:	4770      	bx	lr
 8000b3e:	bf00      	nop

08000b40 <LL_ADC_SetCommonPathInternalCh>:
 8000b40:	b480      	push	{r7}
 8000b42:	b083      	sub	sp, #12
 8000b44:	af00      	add	r7, sp, #0
 8000b46:	6078      	str	r0, [r7, #4]
 8000b48:	6039      	str	r1, [r7, #0]
 8000b4a:	687b      	ldr	r3, [r7, #4]
 8000b4c:	689b      	ldr	r3, [r3, #8]
 8000b4e:	f023 72e0 	bic.w	r2, r3, #29360128	; 0x1c00000
 8000b52:	683b      	ldr	r3, [r7, #0]
 8000b54:	431a      	orrs	r2, r3
 8000b56:	687b      	ldr	r3, [r7, #4]
 8000b58:	609a      	str	r2, [r3, #8]
 8000b5a:	bf00      	nop
 8000b5c:	370c      	adds	r7, #12
 8000b5e:	46bd      	mov	sp, r7
 8000b60:	f85d 7b04 	ldr.w	r7, [sp], #4
 8000b64:	4770      	bx	lr

08000b66 <LL_ADC_REG_SetSequencerRanks>:
 8000b66:	b480      	push	{r7}
 8000b68:	b087      	sub	sp, #28
 8000b6a:	af00      	add	r7, sp, #0
 8000b6c:	60f8      	str	r0, [r7, #12]
 8000b6e:	60b9      	str	r1, [r7, #8]
 8000b70:	607a      	str	r2, [r7, #4]
 8000b72:	68fb      	ldr	r3, [r7, #12]
 8000b74:	3330      	adds	r3, #48	; 0x30
 8000b76:	461a      	mov	r2, r3
 8000b78:	68bb      	ldr	r3, [r7, #8]
 8000b7a:	0a1b      	lsrs	r3, r3, #8
 8000b7c:	009b      	lsls	r3, r3, #2
 8000b7e:	f003 030c 	and.w	r3, r3, #12
 8000b82:	4413      	add	r3, r2
 8000b84:	617b      	str	r3, [r7, #20]
 8000b86:	697b      	ldr	r3, [r7, #20]
 8000b88:	681a      	ldr	r2, [r3, #0]
 8000b8a:	68bb      	ldr	r3, [r7, #8]
 8000b8c:	f003 031f 	and.w	r3, r3, #31
 8000b90:	211f      	movs	r1, #31
 8000b92:	fa01 f303 	lsl.w	r3, r1, r3
 8000b96:	43db      	mvns	r3, r3
 8000b98:	401a      	ands	r2, r3
 8000b9a:	687b      	ldr	r3, [r7, #4]
 8000b9c:	0e9b      	lsrs	r3, r3, #26
 8000b9e:	f003 011f 	and.w	r1, r3, #31
 8000ba2:	68bb      	ldr	r3, [r7, #8]
 8000ba4:	f003 031f 	and.w	r3, r3, #31
 8000ba8:	fa01 f303 	lsl.w	r3, r1, r3
 8000bac:	431a      	orrs	r2, r3
 8000bae:	697b      	ldr	r3, [r7, #20]
 8000bb0:	601a      	str	r2, [r3, #0]
 8000bb2:	bf00      	nop
 8000bb4:	371c      	adds	r7, #28
 8000bb6:	46bd      	mov	sp, r7
 8000bb8:	f85d 7b04 	ldr.w	r7, [sp], #4
 8000bbc:	4770      	bx	lr

08000bbe <LL_ADC_SetChannelSamplingTime>:
 8000bbe:	b480      	push	{r7}
 8000bc0:	b087      	sub	sp, #28
 8000bc2:	af00      	add	r7, sp, #0
 8000bc4:	60f8      	str	r0, [r7, #12]
 8000bc6:	60b9      	str	r1, [r7, #8]
 8000bc8:	607a      	str	r2, [r7, #4]
 8000bca:	68fb      	ldr	r3, [r7, #12]
 8000bcc:	3314      	adds	r3, #20
 8000bce:	461a      	mov	r2, r3
 8000bd0:	68bb      	ldr	r3, [r7, #8]
 8000bd2:	0e5b      	lsrs	r3, r3, #25
 8000bd4:	009b      	lsls	r3, r3, #2
 8000bd6:	f003 0304 	and.w	r3, r3, #4
 8000bda:	4413      	add	r3, r2
 8000bdc:	617b      	str	r3, [r7, #20]
 8000bde:	697b      	ldr	r3, [r7, #20]
 8000be0:	681a      	ldr	r2, [r3, #0]
 8000be2:	68bb      	ldr	r3, [r7, #8]
 8000be4:	0d1b      	lsrs	r3, r3, #20
 8000be6:	f003 031f 	and.w	r3, r3, #31
 8000bea:	2107      	movs	r1, #7
 8000bec:	fa01 f303 	lsl.w	r3, r1, r3
 8000bf0:	43db      	mvns	r3, r3
 8000bf2:	401a      	ands	r2, r3
 8000bf4:	68bb      	ldr	r3, [r7, #8]
 8000bf6:	0d1b      	lsrs	r3, r3, #20
 8000bf8:	f003 031f 	and.w	r3, r3, #31
 8000bfc:	6879      	ldr	r1, [r7, #4]
 8000bfe:	fa01 f303 	lsl.w	r3, r1, r3
 8000c02:	431a      	orrs	r2, r3
 8000c04:	697b      	ldr	r3, [r7, #20]
 8000c06:	601a      	str	r2, [r3, #0]
 8000c08:	bf00      	nop
 8000c0a:	371c      	adds	r7, #28
 8000c0c:	46bd      	mov	sp, r7
 8000c0e:	f85d 7b04 	ldr.w	r7, [sp], #4
 8000c12:	4770      	bx	lr

08000c14 <LL_ADC_SetChannelSingleDiff>:
 8000c14:	b480      	push	{r7}
 8000c16:	b085      	sub	sp, #20
 8000c18:	af00      	add	r7, sp, #0
 8000c1a:	60f8      	str	r0, [r7, #12]
 8000c1c:	60b9      	str	r1, [r7, #8]
 8000c1e:	607a      	str	r2, [r7, #4]
 8000c20:	68fb      	ldr	r3, [r7, #12]
 8000c22:	f8d3 20b0 	ldr.w	r2, [r3, #176]	; 0xb0
 8000c26:	68bb      	ldr	r3, [r7, #8]
 8000c28:	f3c3 0312 	ubfx	r3, r3, #0, #19
 8000c2c:	43db      	mvns	r3, r3
 8000c2e:	401a      	ands	r2, r3
 8000c30:	687b      	ldr	r3, [r7, #4]
 8000c32:	f003 0318 	and.w	r3, r3, #24
 8000c36:	4908      	ldr	r1, [pc, #32]	; (8000c58 <LL_ADC_SetChannelSingleDiff+0x44>)
 8000c38:	40d9      	lsrs	r1, r3
 8000c3a:	68bb      	ldr	r3, [r7, #8]
 8000c3c:	400b      	ands	r3, r1
 8000c3e:	f3c3 0312 	ubfx	r3, r3, #0, #19
 8000c42:	431a      	orrs	r2, r3
 8000c44:	68fb      	ldr	r3, [r7, #12]
 8000c46:	f8c3 20b0 	str.w	r2, [r3, #176]	; 0xb0
 8000c4a:	bf00      	nop
 8000c4c:	3714      	adds	r7, #20
 8000c4e:	46bd      	mov	sp, r7
 8000c50:	f85d 7b04 	ldr.w	r7, [sp], #4
 8000c54:	4770      	bx	lr
 8000c56:	bf00      	nop
 8000c58:	0007ffff 	.word	0x0007ffff

08000c5c <LL_ADC_DisableDeepPowerDown>:
 8000c5c:	b480      	push	{r7}
 8000c5e:	b083      	sub	sp, #12
 8000c60:	af00      	add	r7, sp, #0
 8000c62:	6078      	str	r0, [r7, #4]
 8000c64:	687b      	ldr	r3, [r7, #4]
 8000c66:	689b      	ldr	r3, [r3, #8]
 8000c68:	f023 4320 	bic.w	r3, r3, #2684354560	; 0xa0000000
 8000c6c:	f023 033f 	bic.w	r3, r3, #63	; 0x3f
 8000c70:	687a      	ldr	r2, [r7, #4]
 8000c72:	6093      	str	r3, [r2, #8]
 8000c74:	bf00      	nop
 8000c76:	370c      	adds	r7, #12
 8000c78:	46bd      	mov	sp, r7
 8000c7a:	f85d 7b04 	ldr.w	r7, [sp], #4
 8000c7e:	4770      	bx	lr

08000c80 <LL_ADC_EnableInternalRegulator>:
 8000c80:	b480      	push	{r7}
 8000c82:	b083      	sub	sp, #12
 8000c84:	af00      	add	r7, sp, #0
 8000c86:	6078      	str	r0, [r7, #4]
 8000c88:	687b      	ldr	r3, [r7, #4]
 8000c8a:	689b      	ldr	r3, [r3, #8]
 8000c8c:	f023 4310 	bic.w	r3, r3, #2415919104	; 0x90000000
 8000c90:	f023 033f 	bic.w	r3, r3, #63	; 0x3f
 8000c94:	f043 5280 	orr.w	r2, r3, #268435456	; 0x10000000
 8000c98:	687b      	ldr	r3, [r7, #4]
 8000c9a:	609a      	str	r2, [r3, #8]
 8000c9c:	bf00      	nop
 8000c9e:	370c      	adds	r7, #12
 8000ca0:	46bd      	mov	sp, r7
 8000ca2:	f85d 7b04 	ldr.w	r7, [sp], #4
 8000ca6:	4770      	bx	lr

08000ca8 <LL_RCC_SetADCClockSource>:
 8000ca8:	b480      	push	{r7}
 8000caa:	b083      	sub	sp, #12
 8000cac:	af00      	add	r7, sp, #0
 8000cae:	6078      	str	r0, [r7, #4]
 8000cb0:	4b07      	ldr	r3, [pc, #28]	; (8000cd0 <LL_RCC_SetADCClockSource+0x28>)
 8000cb2:	f8d3 3088 	ldr.w	r3, [r3, #136]	; 0x88
 8000cb6:	f023 5240 	bic.w	r2, r3, #805306368	; 0x30000000
 8000cba:	4905      	ldr	r1, [pc, #20]	; (8000cd0 <LL_RCC_SetADCClockSource+0x28>)
 8000cbc:	687b      	ldr	r3, [r7, #4]
 8000cbe:	4313      	orrs	r3, r2
 8000cc0:	f8c1 3088 	str.w	r3, [r1, #136]	; 0x88
 8000cc4:	bf00      	nop
 8000cc6:	370c      	adds	r7, #12
 8000cc8:	46bd      	mov	sp, r7
 8000cca:	f85d 7b04 	ldr.w	r7, [sp], #4
 8000cce:	4770      	bx	lr
 8000cd0:	40021000 	.word	0x40021000

08000cd4 <LL_AHB2_GRP1_EnableClock>:
 8000cd4:	b480      	push	{r7}
 8000cd6:	b085      	sub	sp, #20
 8000cd8:	af00      	add	r7, sp, #0
 8000cda:	6078      	str	r0, [r7, #4]
 8000cdc:	4b08      	ldr	r3, [pc, #32]	; (8000d00 <LL_AHB2_GRP1_EnableClock+0x2c>)
 8000cde:	6cda      	ldr	r2, [r3, #76]	; 0x4c
 8000ce0:	4907      	ldr	r1, [pc, #28]	; (8000d00 <LL_AHB2_GRP1_EnableClock+0x2c>)
 8000ce2:	687b      	ldr	r3, [r7, #4]
 8000ce4:	4313      	orrs	r3, r2
 8000ce6:	64cb      	str	r3, [r1, #76]	; 0x4c
 8000ce8:	4b05      	ldr	r3, [pc, #20]	; (8000d00 <LL_AHB2_GRP1_EnableClock+0x2c>)
 8000cea:	6cda      	ldr	r2, [r3, #76]	; 0x4c
 8000cec:	687b      	ldr	r3, [r7, #4]
 8000cee:	4013      	ands	r3, r2
 8000cf0:	60fb      	str	r3, [r7, #12]
 8000cf2:	68fb      	ldr	r3, [r7, #12]
 8000cf4:	bf00      	nop
 8000cf6:	3714      	adds	r7, #20
 8000cf8:	46bd      	mov	sp, r7
 8000cfa:	f85d 7b04 	ldr.w	r7, [sp], #4
 8000cfe:	4770      	bx	lr
 8000d00:	40021000 	.word	0x40021000

08000d04 <LL_GPIO_EnablePinAnalogControl>:
 8000d04:	b480      	push	{r7}
 8000d06:	b083      	sub	sp, #12
 8000d08:	af00      	add	r7, sp, #0
 8000d0a:	6078      	str	r0, [r7, #4]
 8000d0c:	6039      	str	r1, [r7, #0]
 8000d0e:	687b      	ldr	r3, [r7, #4]
 8000d10:	6ada      	ldr	r2, [r3, #44]	; 0x2c
 8000d12:	683b      	ldr	r3, [r7, #0]
 8000d14:	431a      	orrs	r2, r3
 8000d16:	687b      	ldr	r3, [r7, #4]
 8000d18:	62da      	str	r2, [r3, #44]	; 0x2c
 8000d1a:	bf00      	nop
 8000d1c:	370c      	adds	r7, #12
 8000d1e:	46bd      	mov	sp, r7
 8000d20:	f85d 7b04 	ldr.w	r7, [sp], #4
 8000d24:	4770      	bx	lr
	...

08000d28 <MX_ADC1_Init>:
 8000d28:	b580      	push	{r7, lr}
 8000d2a:	b094      	sub	sp, #80	; 0x50
 8000d2c:	af00      	add	r7, sp, #0
 8000d2e:	f107 0340 	add.w	r3, r7, #64	; 0x40
 8000d32:	2200      	movs	r2, #0
 8000d34:	601a      	str	r2, [r3, #0]
 8000d36:	605a      	str	r2, [r3, #4]
 8000d38:	609a      	str	r2, [r3, #8]
 8000d3a:	f107 0328 	add.w	r3, r7, #40	; 0x28
 8000d3e:	2200      	movs	r2, #0
 8000d40:	601a      	str	r2, [r3, #0]
 8000d42:	605a      	str	r2, [r3, #4]
 8000d44:	609a      	str	r2, [r3, #8]
 8000d46:	60da      	str	r2, [r3, #12]
 8000d48:	611a      	str	r2, [r3, #16]
 8000d4a:	615a      	str	r2, [r3, #20]
 8000d4c:	f107 0318 	add.w	r3, r7, #24
 8000d50:	2200      	movs	r2, #0
 8000d52:	601a      	str	r2, [r3, #0]
 8000d54:	605a      	str	r2, [r3, #4]
 8000d56:	609a      	str	r2, [r3, #8]
 8000d58:	60da      	str	r2, [r3, #12]
 8000d5a:	463b      	mov	r3, r7
 8000d5c:	2200      	movs	r2, #0
 8000d5e:	601a      	str	r2, [r3, #0]
 8000d60:	605a      	str	r2, [r3, #4]
 8000d62:	609a      	str	r2, [r3, #8]
 8000d64:	60da      	str	r2, [r3, #12]
 8000d66:	611a      	str	r2, [r3, #16]
 8000d68:	615a      	str	r2, [r3, #20]
 8000d6a:	f04f 5040 	mov.w	r0, #805306368	; 0x30000000
 8000d6e:	f7ff ff9b 	bl	8000ca8 <LL_RCC_SetADCClockSource>
 8000d72:	f44f 5000 	mov.w	r0, #8192	; 0x2000
 8000d76:	f7ff ffad 	bl	8000cd4 <LL_AHB2_GRP1_EnableClock>
 8000d7a:	2004      	movs	r0, #4
 8000d7c:	f7ff ffaa 	bl	8000cd4 <LL_AHB2_GRP1_EnableClock>
 8000d80:	2304      	movs	r3, #4
 8000d82:	603b      	str	r3, [r7, #0]
 8000d84:	2303      	movs	r3, #3
 8000d86:	607b      	str	r3, [r7, #4]
 8000d88:	2300      	movs	r3, #0
 8000d8a:	613b      	str	r3, [r7, #16]
 8000d8c:	463b      	mov	r3, r7
 8000d8e:	4619      	mov	r1, r3
 8000d90:	4831      	ldr	r0, [pc, #196]	; (8000e58 <MX_ADC1_Init+0x130>)
 8000d92:	f003 fed3 	bl	8004b3c <LL_GPIO_Init>
 8000d96:	2104      	movs	r1, #4
 8000d98:	482f      	ldr	r0, [pc, #188]	; (8000e58 <MX_ADC1_Init+0x130>)
 8000d9a:	f7ff ffb3 	bl	8000d04 <LL_GPIO_EnablePinAnalogControl>
 8000d9e:	2300      	movs	r3, #0
 8000da0:	643b      	str	r3, [r7, #64]	; 0x40
 8000da2:	2300      	movs	r3, #0
 8000da4:	647b      	str	r3, [r7, #68]	; 0x44
 8000da6:	2300      	movs	r3, #0
 8000da8:	64bb      	str	r3, [r7, #72]	; 0x48
 8000daa:	f107 0340 	add.w	r3, r7, #64	; 0x40
 8000dae:	4619      	mov	r1, r3
 8000db0:	482a      	ldr	r0, [pc, #168]	; (8000e5c <MX_ADC1_Init+0x134>)
 8000db2:	f003 fae1 	bl	8004378 <LL_ADC_Init>
 8000db6:	2300      	movs	r3, #0
 8000db8:	62bb      	str	r3, [r7, #40]	; 0x28
 8000dba:	2300      	movs	r3, #0
 8000dbc:	62fb      	str	r3, [r7, #44]	; 0x2c
 8000dbe:	2300      	movs	r3, #0
 8000dc0:	633b      	str	r3, [r7, #48]	; 0x30
 8000dc2:	2300      	movs	r3, #0
 8000dc4:	637b      	str	r3, [r7, #52]	; 0x34
 8000dc6:	2300      	movs	r3, #0
 8000dc8:	63bb      	str	r3, [r7, #56]	; 0x38
 8000dca:	2300      	movs	r3, #0
 8000dcc:	63fb      	str	r3, [r7, #60]	; 0x3c
 8000dce:	f107 0328 	add.w	r3, r7, #40	; 0x28
 8000dd2:	4619      	mov	r1, r3
 8000dd4:	4821      	ldr	r0, [pc, #132]	; (8000e5c <MX_ADC1_Init+0x134>)
 8000dd6:	f003 faf5 	bl	80043c4 <LL_ADC_REG_Init>
 8000dda:	2300      	movs	r3, #0
 8000ddc:	61bb      	str	r3, [r7, #24]
 8000dde:	2300      	movs	r3, #0
 8000de0:	61fb      	str	r3, [r7, #28]
 8000de2:	f107 0318 	add.w	r3, r7, #24
 8000de6:	4619      	mov	r1, r3
 8000de8:	481d      	ldr	r0, [pc, #116]	; (8000e60 <MX_ADC1_Init+0x138>)
 8000dea:	f003 fa7d 	bl	80042e8 <LL_ADC_CommonInit>
 8000dee:	2100      	movs	r1, #0
 8000df0:	481b      	ldr	r0, [pc, #108]	; (8000e60 <MX_ADC1_Init+0x138>)
 8000df2:	f7ff fea5 	bl	8000b40 <LL_ADC_SetCommonPathInternalCh>
 8000df6:	4819      	ldr	r0, [pc, #100]	; (8000e5c <MX_ADC1_Init+0x134>)
 8000df8:	f7ff ff30 	bl	8000c5c <LL_ADC_DisableDeepPowerDown>
 8000dfc:	4817      	ldr	r0, [pc, #92]	; (8000e5c <MX_ADC1_Init+0x134>)
 8000dfe:	f7ff ff3f 	bl	8000c80 <LL_ADC_EnableInternalRegulator>
 8000e02:	4b18      	ldr	r3, [pc, #96]	; (8000e64 <MX_ADC1_Init+0x13c>)
 8000e04:	681b      	ldr	r3, [r3, #0]
 8000e06:	099b      	lsrs	r3, r3, #6
 8000e08:	4a17      	ldr	r2, [pc, #92]	; (8000e68 <MX_ADC1_Init+0x140>)
 8000e0a:	fba2 2303 	umull	r2, r3, r2, r3
 8000e0e:	099a      	lsrs	r2, r3, #6
 8000e10:	4613      	mov	r3, r2
 8000e12:	009b      	lsls	r3, r3, #2
 8000e14:	4413      	add	r3, r2
 8000e16:	009b      	lsls	r3, r3, #2
 8000e18:	461a      	mov	r2, r3
 8000e1a:	4b14      	ldr	r3, [pc, #80]	; (8000e6c <MX_ADC1_Init+0x144>)
 8000e1c:	fba3 2302 	umull	r2, r3, r3, r2
 8000e20:	08db      	lsrs	r3, r3, #3
 8000e22:	64fb      	str	r3, [r7, #76]	; 0x4c
 8000e24:	e002      	b.n	8000e2c <MX_ADC1_Init+0x104>
 8000e26:	6cfb      	ldr	r3, [r7, #76]	; 0x4c
 8000e28:	3b01      	subs	r3, #1
 8000e2a:	64fb      	str	r3, [r7, #76]	; 0x4c
 8000e2c:	6cfb      	ldr	r3, [r7, #76]	; 0x4c
 8000e2e:	2b00      	cmp	r3, #0
 8000e30:	d1f9      	bne.n	8000e26 <MX_ADC1_Init+0xfe>
 8000e32:	4a0f      	ldr	r2, [pc, #60]	; (8000e70 <MX_ADC1_Init+0x148>)
 8000e34:	2106      	movs	r1, #6
 8000e36:	4809      	ldr	r0, [pc, #36]	; (8000e5c <MX_ADC1_Init+0x134>)
 8000e38:	f7ff fe95 	bl	8000b66 <LL_ADC_REG_SetSequencerRanks>
 8000e3c:	2200      	movs	r2, #0
 8000e3e:	490c      	ldr	r1, [pc, #48]	; (8000e70 <MX_ADC1_Init+0x148>)
 8000e40:	4806      	ldr	r0, [pc, #24]	; (8000e5c <MX_ADC1_Init+0x134>)
 8000e42:	f7ff febc 	bl	8000bbe <LL_ADC_SetChannelSamplingTime>
 8000e46:	227f      	movs	r2, #127	; 0x7f
 8000e48:	4909      	ldr	r1, [pc, #36]	; (8000e70 <MX_ADC1_Init+0x148>)
 8000e4a:	4804      	ldr	r0, [pc, #16]	; (8000e5c <MX_ADC1_Init+0x134>)
 8000e4c:	f7ff fee2 	bl	8000c14 <LL_ADC_SetChannelSingleDiff>
 8000e50:	bf00      	nop
 8000e52:	3750      	adds	r7, #80	; 0x50
 8000e54:	46bd      	mov	sp, r7
 8000e56:	bd80      	pop	{r7, pc}
 8000e58:	48000800 	.word	0x48000800
 8000e5c:	50040000 	.word	0x50040000
 8000e60:	50040300 	.word	0x50040300
 8000e64:	20000010 	.word	0x20000010
 8000e68:	053e2d63 	.word	0x053e2d63
 8000e6c:	cccccccd 	.word	0xcccccccd
 8000e70:	0c900008 	.word	0x0c900008

08000e74 <MX_ADC2_Init>:
 8000e74:	b580      	push	{r7, lr}
 8000e76:	b094      	sub	sp, #80	; 0x50
 8000e78:	af00      	add	r7, sp, #0
 8000e7a:	f107 0340 	add.w	r3, r7, #64	; 0x40
 8000e7e:	2200      	movs	r2, #0
 8000e80:	601a      	str	r2, [r3, #0]
 8000e82:	605a      	str	r2, [r3, #4]
 8000e84:	609a      	str	r2, [r3, #8]
 8000e86:	f107 0328 	add.w	r3, r7, #40	; 0x28
 8000e8a:	2200      	movs	r2, #0
 8000e8c:	601a      	str	r2, [r3, #0]
 8000e8e:	605a      	str	r2, [r3, #4]
 8000e90:	609a      	str	r2, [r3, #8]
 8000e92:	60da      	str	r2, [r3, #12]
 8000e94:	611a      	str	r2, [r3, #16]
 8000e96:	615a      	str	r2, [r3, #20]
 8000e98:	f107 0318 	add.w	r3, r7, #24
 8000e9c:	2200      	movs	r2, #0
 8000e9e:	601a      	str	r2, [r3, #0]
 8000ea0:	605a      	str	r2, [r3, #4]
 8000ea2:	609a      	str	r2, [r3, #8]
 8000ea4:	60da      	str	r2, [r3, #12]
 8000ea6:	463b      	mov	r3, r7
 8000ea8:	2200      	movs	r2, #0
 8000eaa:	601a      	str	r2, [r3, #0]
 8000eac:	605a      	str	r2, [r3, #4]
 8000eae:	609a      	str	r2, [r3, #8]
 8000eb0:	60da      	str	r2, [r3, #12]
 8000eb2:	611a      	str	r2, [r3, #16]
 8000eb4:	615a      	str	r2, [r3, #20]
 8000eb6:	f04f 5040 	mov.w	r0, #805306368	; 0x30000000
 8000eba:	f7ff fef5 	bl	8000ca8 <LL_RCC_SetADCClockSource>
 8000ebe:	f44f 5000 	mov.w	r0, #8192	; 0x2000
 8000ec2:	f7ff ff07 	bl	8000cd4 <LL_AHB2_GRP1_EnableClock>
 8000ec6:	2004      	movs	r0, #4
 8000ec8:	f7ff ff04 	bl	8000cd4 <LL_AHB2_GRP1_EnableClock>
 8000ecc:	2308      	movs	r3, #8
 8000ece:	603b      	str	r3, [r7, #0]
 8000ed0:	2303      	movs	r3, #3
 8000ed2:	607b      	str	r3, [r7, #4]
 8000ed4:	2300      	movs	r3, #0
 8000ed6:	613b      	str	r3, [r7, #16]
 8000ed8:	463b      	mov	r3, r7
 8000eda:	4619      	mov	r1, r3
 8000edc:	4830      	ldr	r0, [pc, #192]	; (8000fa0 <MX_ADC2_Init+0x12c>)
 8000ede:	f003 fe2d 	bl	8004b3c <LL_GPIO_Init>
 8000ee2:	2108      	movs	r1, #8
 8000ee4:	482e      	ldr	r0, [pc, #184]	; (8000fa0 <MX_ADC2_Init+0x12c>)
 8000ee6:	f7ff ff0d 	bl	8000d04 <LL_GPIO_EnablePinAnalogControl>
 8000eea:	2300      	movs	r3, #0
 8000eec:	643b      	str	r3, [r7, #64]	; 0x40
 8000eee:	2300      	movs	r3, #0
 8000ef0:	647b      	str	r3, [r7, #68]	; 0x44
 8000ef2:	2300      	movs	r3, #0
 8000ef4:	64bb      	str	r3, [r7, #72]	; 0x48
 8000ef6:	f107 0340 	add.w	r3, r7, #64	; 0x40
 8000efa:	4619      	mov	r1, r3
 8000efc:	4829      	ldr	r0, [pc, #164]	; (8000fa4 <MX_ADC2_Init+0x130>)
 8000efe:	f003 fa3b 	bl	8004378 <LL_ADC_Init>
 8000f02:	2300      	movs	r3, #0
 8000f04:	62bb      	str	r3, [r7, #40]	; 0x28
 8000f06:	2300      	movs	r3, #0
 8000f08:	62fb      	str	r3, [r7, #44]	; 0x2c
 8000f0a:	2300      	movs	r3, #0
 8000f0c:	633b      	str	r3, [r7, #48]	; 0x30
 8000f0e:	2300      	movs	r3, #0
 8000f10:	637b      	str	r3, [r7, #52]	; 0x34
 8000f12:	2300      	movs	r3, #0
 8000f14:	63bb      	str	r3, [r7, #56]	; 0x38
 8000f16:	2300      	movs	r3, #0
 8000f18:	63fb      	str	r3, [r7, #60]	; 0x3c
 8000f1a:	f107 0328 	add.w	r3, r7, #40	; 0x28
 8000f1e:	4619      	mov	r1, r3
 8000f20:	4820      	ldr	r0, [pc, #128]	; (8000fa4 <MX_ADC2_Init+0x130>)
 8000f22:	f003 fa4f 	bl	80043c4 <LL_ADC_REG_Init>
 8000f26:	2300      	movs	r3, #0
 8000f28:	61bb      	str	r3, [r7, #24]
 8000f2a:	f107 0318 	add.w	r3, r7, #24
 8000f2e:	4619      	mov	r1, r3
 8000f30:	481d      	ldr	r0, [pc, #116]	; (8000fa8 <MX_ADC2_Init+0x134>)
 8000f32:	f003 f9d9 	bl	80042e8 <LL_ADC_CommonInit>
 8000f36:	2100      	movs	r1, #0
 8000f38:	481b      	ldr	r0, [pc, #108]	; (8000fa8 <MX_ADC2_Init+0x134>)
 8000f3a:	f7ff fe01 	bl	8000b40 <LL_ADC_SetCommonPathInternalCh>
 8000f3e:	4819      	ldr	r0, [pc, #100]	; (8000fa4 <MX_ADC2_Init+0x130>)
 8000f40:	f7ff fe8c 	bl	8000c5c <LL_ADC_DisableDeepPowerDown>
 8000f44:	4817      	ldr	r0, [pc, #92]	; (8000fa4 <MX_ADC2_Init+0x130>)
 8000f46:	f7ff fe9b 	bl	8000c80 <LL_ADC_EnableInternalRegulator>
 8000f4a:	4b18      	ldr	r3, [pc, #96]	; (8000fac <MX_ADC2_Init+0x138>)
 8000f4c:	681b      	ldr	r3, [r3, #0]
 8000f4e:	099b      	lsrs	r3, r3, #6
 8000f50:	4a17      	ldr	r2, [pc, #92]	; (8000fb0 <MX_ADC2_Init+0x13c>)
 8000f52:	fba2 2303 	umull	r2, r3, r2, r3
 8000f56:	099a      	lsrs	r2, r3, #6
 8000f58:	4613      	mov	r3, r2
 8000f5a:	009b      	lsls	r3, r3, #2
 8000f5c:	4413      	add	r3, r2
 8000f5e:	009b      	lsls	r3, r3, #2
 8000f60:	461a      	mov	r2, r3
 8000f62:	4b14      	ldr	r3, [pc, #80]	; (8000fb4 <MX_ADC2_Init+0x140>)
 8000f64:	fba3 2302 	umull	r2, r3, r3, r2
 8000f68:	08db      	lsrs	r3, r3, #3
 8000f6a:	64fb      	str	r3, [r7, #76]	; 0x4c
 8000f6c:	e002      	b.n	8000f74 <MX_ADC2_Init+0x100>
 8000f6e:	6cfb      	ldr	r3, [r7, #76]	; 0x4c
 8000f70:	3b01      	subs	r3, #1
 8000f72:	64fb      	str	r3, [r7, #76]	; 0x4c
 8000f74:	6cfb      	ldr	r3, [r7, #76]	; 0x4c
 8000f76:	2b00      	cmp	r3, #0
 8000f78:	d1f9      	bne.n	8000f6e <MX_ADC2_Init+0xfa>
 8000f7a:	4a0f      	ldr	r2, [pc, #60]	; (8000fb8 <MX_ADC2_Init+0x144>)
 8000f7c:	2106      	movs	r1, #6
 8000f7e:	4809      	ldr	r0, [pc, #36]	; (8000fa4 <MX_ADC2_Init+0x130>)
 8000f80:	f7ff fdf1 	bl	8000b66 <LL_ADC_REG_SetSequencerRanks>
 8000f84:	2200      	movs	r2, #0
 8000f86:	490c      	ldr	r1, [pc, #48]	; (8000fb8 <MX_ADC2_Init+0x144>)
 8000f88:	4806      	ldr	r0, [pc, #24]	; (8000fa4 <MX_ADC2_Init+0x130>)
 8000f8a:	f7ff fe18 	bl	8000bbe <LL_ADC_SetChannelSamplingTime>
 8000f8e:	227f      	movs	r2, #127	; 0x7f
 8000f90:	4909      	ldr	r1, [pc, #36]	; (8000fb8 <MX_ADC2_Init+0x144>)
 8000f92:	4804      	ldr	r0, [pc, #16]	; (8000fa4 <MX_ADC2_Init+0x130>)
 8000f94:	f7ff fe3e 	bl	8000c14 <LL_ADC_SetChannelSingleDiff>
 8000f98:	bf00      	nop
 8000f9a:	3750      	adds	r7, #80	; 0x50
 8000f9c:	46bd      	mov	sp, r7
 8000f9e:	bd80      	pop	{r7, pc}
 8000fa0:	48000800 	.word	0x48000800
 8000fa4:	50040100 	.word	0x50040100
 8000fa8:	50040300 	.word	0x50040300
 8000fac:	20000010 	.word	0x20000010
 8000fb0:	053e2d63 	.word	0x053e2d63
 8000fb4:	cccccccd 	.word	0xcccccccd
 8000fb8:	10c00010 	.word	0x10c00010

08000fbc <LL_AHB2_GRP1_EnableClock>:
 8000fbc:	b480      	push	{r7}
 8000fbe:	b085      	sub	sp, #20
 8000fc0:	af00      	add	r7, sp, #0
 8000fc2:	6078      	str	r0, [r7, #4]
 8000fc4:	4b08      	ldr	r3, [pc, #32]	; (8000fe8 <LL_AHB2_GRP1_EnableClock+0x2c>)
 8000fc6:	6cda      	ldr	r2, [r3, #76]	; 0x4c
 8000fc8:	4907      	ldr	r1, [pc, #28]	; (8000fe8 <LL_AHB2_GRP1_EnableClock+0x2c>)
 8000fca:	687b      	ldr	r3, [r7, #4]
 8000fcc:	4313      	orrs	r3, r2
 8000fce:	64cb      	str	r3, [r1, #76]	; 0x4c
 8000fd0:	4b05      	ldr	r3, [pc, #20]	; (8000fe8 <LL_AHB2_GRP1_EnableClock+0x2c>)
 8000fd2:	6cda      	ldr	r2, [r3, #76]	; 0x4c
 8000fd4:	687b      	ldr	r3, [r7, #4]
 8000fd6:	4013      	ands	r3, r2
 8000fd8:	60fb      	str	r3, [r7, #12]
 8000fda:	68fb      	ldr	r3, [r7, #12]
 8000fdc:	bf00      	nop
 8000fde:	3714      	adds	r7, #20
 8000fe0:	46bd      	mov	sp, r7
 8000fe2:	f85d 7b04 	ldr.w	r7, [sp], #4
 8000fe6:	4770      	bx	lr
 8000fe8:	40021000 	.word	0x40021000

08000fec <LL_SYSCFG_SetEXTISource>:
 8000fec:	b480      	push	{r7}
 8000fee:	b087      	sub	sp, #28
 8000ff0:	af00      	add	r7, sp, #0
 8000ff2:	6078      	str	r0, [r7, #4]
 8000ff4:	6039      	str	r1, [r7, #0]
 8000ff6:	4a17      	ldr	r2, [pc, #92]	; (8001054 <LL_SYSCFG_SetEXTISource+0x68>)
 8000ff8:	683b      	ldr	r3, [r7, #0]
 8000ffa:	b2db      	uxtb	r3, r3
 8000ffc:	3302      	adds	r3, #2
 8000ffe:	f852 2023 	ldr.w	r2, [r2, r3, lsl #2]
 8001002:	683b      	ldr	r3, [r7, #0]
 8001004:	0c1b      	lsrs	r3, r3, #16
 8001006:	43db      	mvns	r3, r3
 8001008:	ea02 0103 	and.w	r1, r2, r3
 800100c:	683b      	ldr	r3, [r7, #0]
 800100e:	0c1b      	lsrs	r3, r3, #16
 8001010:	613b      	str	r3, [r7, #16]
 8001012:	693b      	ldr	r3, [r7, #16]
 8001014:	fa93 f3a3 	rbit	r3, r3
 8001018:	60fb      	str	r3, [r7, #12]
 800101a:	68fb      	ldr	r3, [r7, #12]
 800101c:	617b      	str	r3, [r7, #20]
 800101e:	697b      	ldr	r3, [r7, #20]
 8001020:	2b00      	cmp	r3, #0
 8001022:	d101      	bne.n	8001028 <LL_SYSCFG_SetEXTISource+0x3c>
 8001024:	2320      	movs	r3, #32
 8001026:	e003      	b.n	8001030 <LL_SYSCFG_SetEXTISource+0x44>
 8001028:	697b      	ldr	r3, [r7, #20]
 800102a:	fab3 f383 	clz	r3, r3
 800102e:	b2db      	uxtb	r3, r3
 8001030:	461a      	mov	r2, r3
 8001032:	687b      	ldr	r3, [r7, #4]
 8001034:	fa03 f202 	lsl.w	r2, r3, r2
 8001038:	4806      	ldr	r0, [pc, #24]	; (8001054 <LL_SYSCFG_SetEXTISource+0x68>)
 800103a:	683b      	ldr	r3, [r7, #0]
 800103c:	b2db      	uxtb	r3, r3
 800103e:	430a      	orrs	r2, r1
 8001040:	3302      	adds	r3, #2
 8001042:	f840 2023 	str.w	r2, [r0, r3, lsl #2]
 8001046:	bf00      	nop
 8001048:	371c      	adds	r7, #28
 800104a:	46bd      	mov	sp, r7
 800104c:	f85d 7b04 	ldr.w	r7, [sp], #4
 8001050:	4770      	bx	lr
 8001052:	bf00      	nop
 8001054:	40010000 	.word	0x40010000

08001058 <LL_GPIO_SetPinMode>:
 8001058:	b480      	push	{r7}
 800105a:	b08b      	sub	sp, #44	; 0x2c
 800105c:	af00      	add	r7, sp, #0
 800105e:	60f8      	str	r0, [r7, #12]
 8001060:	60b9      	str	r1, [r7, #8]
 8001062:	607a      	str	r2, [r7, #4]
 8001064:	68fb      	ldr	r3, [r7, #12]
 8001066:	681a      	ldr	r2, [r3, #0]
 8001068:	68bb      	ldr	r3, [r7, #8]
 800106a:	617b      	str	r3, [r7, #20]
 800106c:	697b      	ldr	r3, [r7, #20]
 800106e:	fa93 f3a3 	rbit	r3, r3
 8001072:	613b      	str	r3, [r7, #16]
 8001074:	693b      	ldr	r3, [r7, #16]
 8001076:	61bb      	str	r3, [r7, #24]
 8001078:	69bb      	ldr	r3, [r7, #24]
 800107a:	2b00      	cmp	r3, #0
 800107c:	d101      	bne.n	8001082 <LL_GPIO_SetPinMode+0x2a>
 800107e:	2320      	movs	r3, #32
 8001080:	e003      	b.n	800108a <LL_GPIO_SetPinMode+0x32>
 8001082:	69bb      	ldr	r3, [r7, #24]
 8001084:	fab3 f383 	clz	r3, r3
 8001088:	b2db      	uxtb	r3, r3
 800108a:	005b      	lsls	r3, r3, #1
 800108c:	2103      	movs	r1, #3
 800108e:	fa01 f303 	lsl.w	r3, r1, r3
 8001092:	43db      	mvns	r3, r3
 8001094:	401a      	ands	r2, r3
 8001096:	68bb      	ldr	r3, [r7, #8]
 8001098:	623b      	str	r3, [r7, #32]
 800109a:	6a3b      	ldr	r3, [r7, #32]
 800109c:	fa93 f3a3 	rbit	r3, r3
 80010a0:	61fb      	str	r3, [r7, #28]
 80010a2:	69fb      	ldr	r3, [r7, #28]
 80010a4:	627b      	str	r3, [r7, #36]	; 0x24
 80010a6:	6a7b      	ldr	r3, [r7, #36]	; 0x24
 80010a8:	2b00      	cmp	r3, #0
 80010aa:	d101      	bne.n	80010b0 <LL_GPIO_SetPinMode+0x58>
 80010ac:	2320      	movs	r3, #32
 80010ae:	e003      	b.n	80010b8 <LL_GPIO_SetPinMode+0x60>
 80010b0:	6a7b      	ldr	r3, [r7, #36]	; 0x24
 80010b2:	fab3 f383 	clz	r3, r3
 80010b6:	b2db      	uxtb	r3, r3
 80010b8:	005b      	lsls	r3, r3, #1
 80010ba:	6879      	ldr	r1, [r7, #4]
 80010bc:	fa01 f303 	lsl.w	r3, r1, r3
 80010c0:	431a      	orrs	r2, r3
 80010c2:	68fb      	ldr	r3, [r7, #12]
 80010c4:	601a      	str	r2, [r3, #0]
 80010c6:	bf00      	nop
 80010c8:	372c      	adds	r7, #44	; 0x2c
 80010ca:	46bd      	mov	sp, r7
 80010cc:	f85d 7b04 	ldr.w	r7, [sp], #4
 80010d0:	4770      	bx	lr

080010d2 <LL_GPIO_SetPinPull>:
 80010d2:	b480      	push	{r7}
 80010d4:	b08b      	sub	sp, #44	; 0x2c
 80010d6:	af00      	add	r7, sp, #0
 80010d8:	60f8      	str	r0, [r7, #12]
 80010da:	60b9      	str	r1, [r7, #8]
 80010dc:	607a      	str	r2, [r7, #4]
 80010de:	68fb      	ldr	r3, [r7, #12]
 80010e0:	68da      	ldr	r2, [r3, #12]
 80010e2:	68bb      	ldr	r3, [r7, #8]
 80010e4:	617b      	str	r3, [r7, #20]
 80010e6:	697b      	ldr	r3, [r7, #20]
 80010e8:	fa93 f3a3 	rbit	r3, r3
 80010ec:	613b      	str	r3, [r7, #16]
 80010ee:	693b      	ldr	r3, [r7, #16]
 80010f0:	61bb      	str	r3, [r7, #24]
 80010f2:	69bb      	ldr	r3, [r7, #24]
 80010f4:	2b00      	cmp	r3, #0
 80010f6:	d101      	bne.n	80010fc <LL_GPIO_SetPinPull+0x2a>
 80010f8:	2320      	movs	r3, #32
 80010fa:	e003      	b.n	8001104 <LL_GPIO_SetPinPull+0x32>
 80010fc:	69bb      	ldr	r3, [r7, #24]
 80010fe:	fab3 f383 	clz	r3, r3
 8001102:	b2db      	uxtb	r3, r3
 8001104:	005b      	lsls	r3, r3, #1
 8001106:	2103      	movs	r1, #3
 8001108:	fa01 f303 	lsl.w	r3, r1, r3
 800110c:	43db      	mvns	r3, r3
 800110e:	401a      	ands	r2, r3
 8001110:	68bb      	ldr	r3, [r7, #8]
 8001112:	623b      	str	r3, [r7, #32]
 8001114:	6a3b      	ldr	r3, [r7, #32]
 8001116:	fa93 f3a3 	rbit	r3, r3
 800111a:	61fb      	str	r3, [r7, #28]
 800111c:	69fb      	ldr	r3, [r7, #28]
 800111e:	627b      	str	r3, [r7, #36]	; 0x24
 8001120:	6a7b      	ldr	r3, [r7, #36]	; 0x24
 8001122:	2b00      	cmp	r3, #0
 8001124:	d101      	bne.n	800112a <LL_GPIO_SetPinPull+0x58>
 8001126:	2320      	movs	r3, #32
 8001128:	e003      	b.n	8001132 <LL_GPIO_SetPinPull+0x60>
 800112a:	6a7b      	ldr	r3, [r7, #36]	; 0x24
 800112c:	fab3 f383 	clz	r3, r3
 8001130:	b2db      	uxtb	r3, r3
 8001132:	005b      	lsls	r3, r3, #1
 8001134:	6879      	ldr	r1, [r7, #4]
 8001136:	fa01 f303 	lsl.w	r3, r1, r3
 800113a:	431a      	orrs	r2, r3
 800113c:	68fb      	ldr	r3, [r7, #12]
 800113e:	60da      	str	r2, [r3, #12]
 8001140:	bf00      	nop
 8001142:	372c      	adds	r7, #44	; 0x2c
 8001144:	46bd      	mov	sp, r7
 8001146:	f85d 7b04 	ldr.w	r7, [sp], #4
 800114a:	4770      	bx	lr

0800114c <LL_GPIO_ResetOutputPin>:
 800114c:	b480      	push	{r7}
 800114e:	b083      	sub	sp, #12
 8001150:	af00      	add	r7, sp, #0
 8001152:	6078      	str	r0, [r7, #4]
 8001154:	6039      	str	r1, [r7, #0]
 8001156:	687b      	ldr	r3, [r7, #4]
 8001158:	683a      	ldr	r2, [r7, #0]
 800115a:	629a      	str	r2, [r3, #40]	; 0x28
 800115c:	bf00      	nop
 800115e:	370c      	adds	r7, #12
 8001160:	46bd      	mov	sp, r7
 8001162:	f85d 7b04 	ldr.w	r7, [sp], #4
 8001166:	4770      	bx	lr

08001168 <MX_GPIO_Init>:
 8001168:	b580      	push	{r7, lr}
 800116a:	b08a      	sub	sp, #40	; 0x28
 800116c:	af00      	add	r7, sp, #0
 800116e:	f107 031c 	add.w	r3, r7, #28
 8001172:	2200      	movs	r2, #0
 8001174:	601a      	str	r2, [r3, #0]
 8001176:	605a      	str	r2, [r3, #4]
 8001178:	609a      	str	r2, [r3, #8]
 800117a:	1d3b      	adds	r3, r7, #4
 800117c:	2200      	movs	r2, #0
 800117e:	601a      	str	r2, [r3, #0]
 8001180:	605a      	str	r2, [r3, #4]
 8001182:	609a      	str	r2, [r3, #8]
 8001184:	60da      	str	r2, [r3, #12]
 8001186:	611a      	str	r2, [r3, #16]
 8001188:	615a      	str	r2, [r3, #20]
 800118a:	2004      	movs	r0, #4
 800118c:	f7ff ff16 	bl	8000fbc <LL_AHB2_GRP1_EnableClock>
 8001190:	2080      	movs	r0, #128	; 0x80
 8001192:	f7ff ff13 	bl	8000fbc <LL_AHB2_GRP1_EnableClock>
 8001196:	2001      	movs	r0, #1
 8001198:	f7ff ff10 	bl	8000fbc <LL_AHB2_GRP1_EnableClock>
 800119c:	2002      	movs	r0, #2
 800119e:	f7ff ff0d 	bl	8000fbc <LL_AHB2_GRP1_EnableClock>
 80011a2:	f44f 51c4 	mov.w	r1, #6272	; 0x1880
 80011a6:	4837      	ldr	r0, [pc, #220]	; (8001284 <MX_GPIO_Init+0x11c>)
 80011a8:	f7ff ffd0 	bl	800114c <LL_GPIO_ResetOutputPin>
 80011ac:	2140      	movs	r1, #64	; 0x40
 80011ae:	4836      	ldr	r0, [pc, #216]	; (8001288 <MX_GPIO_Init+0x120>)
 80011b0:	f7ff ffcc 	bl	800114c <LL_GPIO_ResetOutputPin>
 80011b4:	f44f 7180 	mov.w	r1, #256	; 0x100
 80011b8:	f04f 4090 	mov.w	r0, #1207959552	; 0x48000000
 80011bc:	f7ff ffc6 	bl	800114c <LL_GPIO_ResetOutputPin>
 80011c0:	4932      	ldr	r1, [pc, #200]	; (800128c <MX_GPIO_Init+0x124>)
 80011c2:	2002      	movs	r0, #2
 80011c4:	f7ff ff12 	bl	8000fec <LL_SYSCFG_SetEXTISource>
 80011c8:	f44f 5300 	mov.w	r3, #8192	; 0x2000
 80011cc:	61fb      	str	r3, [r7, #28]
 80011ce:	2300      	movs	r3, #0
 80011d0:	623b      	str	r3, [r7, #32]
 80011d2:	2301      	movs	r3, #1
 80011d4:	f887 3024 	strb.w	r3, [r7, #36]	; 0x24
 80011d8:	2300      	movs	r3, #0
 80011da:	f887 3025 	strb.w	r3, [r7, #37]	; 0x25
 80011de:	2302      	movs	r3, #2
 80011e0:	f887 3026 	strb.w	r3, [r7, #38]	; 0x26
 80011e4:	f107 031c 	add.w	r3, r7, #28
 80011e8:	4618      	mov	r0, r3
 80011ea:	f003 fa65 	bl	80046b8 <LL_EXTI_Init>
 80011ee:	2200      	movs	r2, #0
 80011f0:	f44f 5100 	mov.w	r1, #8192	; 0x2000
 80011f4:	4824      	ldr	r0, [pc, #144]	; (8001288 <MX_GPIO_Init+0x120>)
 80011f6:	f7ff ff6c 	bl	80010d2 <LL_GPIO_SetPinPull>
 80011fa:	2200      	movs	r2, #0
 80011fc:	f44f 5100 	mov.w	r1, #8192	; 0x2000
 8001200:	4821      	ldr	r0, [pc, #132]	; (8001288 <MX_GPIO_Init+0x120>)
 8001202:	f7ff ff29 	bl	8001058 <LL_GPIO_SetPinMode>
 8001206:	f44f 53c4 	mov.w	r3, #6272	; 0x1880
 800120a:	607b      	str	r3, [r7, #4]
 800120c:	2301      	movs	r3, #1
 800120e:	60bb      	str	r3, [r7, #8]
 8001210:	2300      	movs	r3, #0
 8001212:	60fb      	str	r3, [r7, #12]
 8001214:	2300      	movs	r3, #0
 8001216:	613b      	str	r3, [r7, #16]
 8001218:	2300      	movs	r3, #0
 800121a:	617b      	str	r3, [r7, #20]
 800121c:	1d3b      	adds	r3, r7, #4
 800121e:	4619      	mov	r1, r3
 8001220:	4818      	ldr	r0, [pc, #96]	; (8001284 <MX_GPIO_Init+0x11c>)
 8001222:	f003 fc8b 	bl	8004b3c <LL_GPIO_Init>
 8001226:	2340      	movs	r3, #64	; 0x40
 8001228:	607b      	str	r3, [r7, #4]
 800122a:	2301      	movs	r3, #1
 800122c:	60bb      	str	r3, [r7, #8]
 800122e:	2300      	movs	r3, #0
 8001230:	60fb      	str	r3, [r7, #12]
 8001232:	2300      	movs	r3, #0
 8001234:	613b      	str	r3, [r7, #16]
 8001236:	2300      	movs	r3, #0
 8001238:	617b      	str	r3, [r7, #20]
 800123a:	1d3b      	adds	r3, r7, #4
 800123c:	4619      	mov	r1, r3
 800123e:	4812      	ldr	r0, [pc, #72]	; (8001288 <MX_GPIO_Init+0x120>)
 8001240:	f003 fc7c 	bl	8004b3c <LL_GPIO_Init>
 8001244:	2380      	movs	r3, #128	; 0x80
 8001246:	607b      	str	r3, [r7, #4]
 8001248:	2300      	movs	r3, #0
 800124a:	60bb      	str	r3, [r7, #8]
 800124c:	2300      	movs	r3, #0
 800124e:	617b      	str	r3, [r7, #20]
 8001250:	1d3b      	adds	r3, r7, #4
 8001252:	4619      	mov	r1, r3
 8001254:	480c      	ldr	r0, [pc, #48]	; (8001288 <MX_GPIO_Init+0x120>)
 8001256:	f003 fc71 	bl	8004b3c <LL_GPIO_Init>
 800125a:	f44f 7380 	mov.w	r3, #256	; 0x100
 800125e:	607b      	str	r3, [r7, #4]
 8001260:	2301      	movs	r3, #1
 8001262:	60bb      	str	r3, [r7, #8]
 8001264:	2300      	movs	r3, #0
 8001266:	60fb      	str	r3, [r7, #12]
 8001268:	2300      	movs	r3, #0
 800126a:	613b      	str	r3, [r7, #16]
 800126c:	2300      	movs	r3, #0
 800126e:	617b      	str	r3, [r7, #20]
 8001270:	1d3b      	adds	r3, r7, #4
 8001272:	4619      	mov	r1, r3
 8001274:	f04f 4090 	mov.w	r0, #1207959552	; 0x48000000
 8001278:	f003 fc60 	bl	8004b3c <LL_GPIO_Init>
 800127c:	bf00      	nop
 800127e:	3728      	adds	r7, #40	; 0x28
 8001280:	46bd      	mov	sp, r7
 8001282:	bd80      	pop	{r7, pc}
 8001284:	48000400 	.word	0x48000400
 8001288:	48000800 	.word	0x48000800
 800128c:	00f00003 	.word	0x00f00003

08001290 <__NVIC_GetPriorityGrouping>:
 8001290:	b480      	push	{r7}
 8001292:	af00      	add	r7, sp, #0
 8001294:	4b04      	ldr	r3, [pc, #16]	; (80012a8 <__NVIC_GetPriorityGrouping+0x18>)
 8001296:	68db      	ldr	r3, [r3, #12]
 8001298:	0a1b      	lsrs	r3, r3, #8
 800129a:	f003 0307 	and.w	r3, r3, #7
 800129e:	4618      	mov	r0, r3
 80012a0:	46bd      	mov	sp, r7
 80012a2:	f85d 7b04 	ldr.w	r7, [sp], #4
 80012a6:	4770      	bx	lr
 80012a8:	e000ed00 	.word	0xe000ed00

080012ac <__NVIC_EnableIRQ>:
 80012ac:	b480      	push	{r7}
 80012ae:	b083      	sub	sp, #12
 80012b0:	af00      	add	r7, sp, #0
 80012b2:	4603      	mov	r3, r0
 80012b4:	71fb      	strb	r3, [r7, #7]
 80012b6:	f997 3007 	ldrsb.w	r3, [r7, #7]
 80012ba:	2b00      	cmp	r3, #0
 80012bc:	db0b      	blt.n	80012d6 <__NVIC_EnableIRQ+0x2a>
 80012be:	79fb      	ldrb	r3, [r7, #7]
 80012c0:	f003 021f 	and.w	r2, r3, #31
 80012c4:	4907      	ldr	r1, [pc, #28]	; (80012e4 <__NVIC_EnableIRQ+0x38>)
 80012c6:	f997 3007 	ldrsb.w	r3, [r7, #7]
 80012ca:	095b      	lsrs	r3, r3, #5
 80012cc:	2001      	movs	r0, #1
 80012ce:	fa00 f202 	lsl.w	r2, r0, r2
 80012d2:	f841 2023 	str.w	r2, [r1, r3, lsl #2]
 80012d6:	bf00      	nop
 80012d8:	370c      	adds	r7, #12
 80012da:	46bd      	mov	sp, r7
 80012dc:	f85d 7b04 	ldr.w	r7, [sp], #4
 80012e0:	4770      	bx	lr
 80012e2:	bf00      	nop
 80012e4:	e000e100 	.word	0xe000e100

080012e8 <__NVIC_SetPriority>:
 80012e8:	b480      	push	{r7}
 80012ea:	b083      	sub	sp, #12
 80012ec:	af00      	add	r7, sp, #0
 80012ee:	4603      	mov	r3, r0
 80012f0:	6039      	str	r1, [r7, #0]
 80012f2:	71fb      	strb	r3, [r7, #7]
 80012f4:	f997 3007 	ldrsb.w	r3, [r7, #7]
 80012f8:	2b00      	cmp	r3, #0
 80012fa:	db0a      	blt.n	8001312 <__NVIC_SetPriority+0x2a>
 80012fc:	683b      	ldr	r3, [r7, #0]
 80012fe:	b2da      	uxtb	r2, r3
 8001300:	490c      	ldr	r1, [pc, #48]	; (8001334 <__NVIC_SetPriority+0x4c>)
 8001302:	f997 3007 	ldrsb.w	r3, [r7, #7]
 8001306:	0112      	lsls	r2, r2, #4
 8001308:	b2d2      	uxtb	r2, r2
 800130a:	440b      	add	r3, r1
 800130c:	f883 2300 	strb.w	r2, [r3, #768]	; 0x300
 8001310:	e00a      	b.n	8001328 <__NVIC_SetPriority+0x40>
 8001312:	683b      	ldr	r3, [r7, #0]
 8001314:	b2da      	uxtb	r2, r3
 8001316:	4908      	ldr	r1, [pc, #32]	; (8001338 <__NVIC_SetPriority+0x50>)
 8001318:	79fb      	ldrb	r3, [r7, #7]
 800131a:	f003 030f 	and.w	r3, r3, #15
 800131e:	3b04      	subs	r3, #4
 8001320:	0112      	lsls	r2, r2, #4
 8001322:	b2d2      	uxtb	r2, r2
 8001324:	440b      	add	r3, r1
 8001326:	761a      	strb	r2, [r3, #24]
 8001328:	bf00      	nop
 800132a:	370c      	adds	r7, #12
 800132c:	46bd      	mov	sp, r7
 800132e:	f85d 7b04 	ldr.w	r7, [sp], #4
 8001332:	4770      	bx	lr
 8001334:	e000e100 	.word	0xe000e100
 8001338:	e000ed00 	.word	0xe000ed00

0800133c <NVIC_EncodePriority>:
 800133c:	b480      	push	{r7}
 800133e:	b089      	sub	sp, #36	; 0x24
 8001340:	af00      	add	r7, sp, #0
 8001342:	60f8      	str	r0, [r7, #12]
 8001344:	60b9      	str	r1, [r7, #8]
 8001346:	607a      	str	r2, [r7, #4]
 8001348:	68fb      	ldr	r3, [r7, #12]
 800134a:	f003 0307 	and.w	r3, r3, #7
 800134e:	61fb      	str	r3, [r7, #28]
 8001350:	69fb      	ldr	r3, [r7, #28]
 8001352:	f1c3 0307 	rsb	r3, r3, #7
 8001356:	2b04      	cmp	r3, #4
 8001358:	bf28      	it	cs
 800135a:	2304      	movcs	r3, #4
 800135c:	61bb      	str	r3, [r7, #24]
 800135e:	69fb      	ldr	r3, [r7, #28]
 8001360:	3304      	adds	r3, #4
 8001362:	2b06      	cmp	r3, #6
 8001364:	d902      	bls.n	800136c <NVIC_EncodePriority+0x30>
 8001366:	69fb      	ldr	r3, [r7, #28]
 8001368:	3b03      	subs	r3, #3
 800136a:	e000      	b.n	800136e <NVIC_EncodePriority+0x32>
 800136c:	2300      	movs	r3, #0
 800136e:	617b      	str	r3, [r7, #20]
 8001370:	f04f 32ff 	mov.w	r2, #4294967295
 8001374:	69bb      	ldr	r3, [r7, #24]
 8001376:	fa02 f303 	lsl.w	r3, r2, r3
 800137a:	43da      	mvns	r2, r3
 800137c:	68bb      	ldr	r3, [r7, #8]
 800137e:	401a      	ands	r2, r3
 8001380:	697b      	ldr	r3, [r7, #20]
 8001382:	409a      	lsls	r2, r3
 8001384:	f04f 31ff 	mov.w	r1, #4294967295
 8001388:	697b      	ldr	r3, [r7, #20]
 800138a:	fa01 f303 	lsl.w	r3, r1, r3
 800138e:	43d9      	mvns	r1, r3
 8001390:	687b      	ldr	r3, [r7, #4]
 8001392:	400b      	ands	r3, r1
 8001394:	4313      	orrs	r3, r2
 8001396:	4618      	mov	r0, r3
 8001398:	3724      	adds	r7, #36	; 0x24
 800139a:	46bd      	mov	sp, r7
 800139c:	f85d 7b04 	ldr.w	r7, [sp], #4
 80013a0:	4770      	bx	lr

080013a2 <LL_LPTIM_SetUpdateMode>:
 80013a2:	b480      	push	{r7}
 80013a4:	b083      	sub	sp, #12
 80013a6:	af00      	add	r7, sp, #0
 80013a8:	6078      	str	r0, [r7, #4]
 80013aa:	6039      	str	r1, [r7, #0]
 80013ac:	687b      	ldr	r3, [r7, #4]
 80013ae:	68db      	ldr	r3, [r3, #12]
 80013b0:	f423 0280 	bic.w	r2, r3, #4194304	; 0x400000
 80013b4:	683b      	ldr	r3, [r7, #0]
 80013b6:	431a      	orrs	r2, r3
 80013b8:	687b      	ldr	r3, [r7, #4]
 80013ba:	60da      	str	r2, [r3, #12]
 80013bc:	bf00      	nop
 80013be:	370c      	adds	r7, #12
 80013c0:	46bd      	mov	sp, r7
 80013c2:	f85d 7b04 	ldr.w	r7, [sp], #4
 80013c6:	4770      	bx	lr

080013c8 <LL_LPTIM_SetCounterMode>:
 80013c8:	b480      	push	{r7}
 80013ca:	b083      	sub	sp, #12
 80013cc:	af00      	add	r7, sp, #0
 80013ce:	6078      	str	r0, [r7, #4]
 80013d0:	6039      	str	r1, [r7, #0]
 80013d2:	687b      	ldr	r3, [r7, #4]
 80013d4:	68db      	ldr	r3, [r3, #12]
 80013d6:	f423 0200 	bic.w	r2, r3, #8388608	; 0x800000
 80013da:	683b      	ldr	r3, [r7, #0]
 80013dc:	431a      	orrs	r2, r3
 80013de:	687b      	ldr	r3, [r7, #4]
 80013e0:	60da      	str	r2, [r3, #12]
 80013e2:	bf00      	nop
 80013e4:	370c      	adds	r7, #12
 80013e6:	46bd      	mov	sp, r7
 80013e8:	f85d 7b04 	ldr.w	r7, [sp], #4
 80013ec:	4770      	bx	lr

080013ee <LL_LPTIM_SetPolarity>:
 80013ee:	b480      	push	{r7}
 80013f0:	b083      	sub	sp, #12
 80013f2:	af00      	add	r7, sp, #0
 80013f4:	6078      	str	r0, [r7, #4]
 80013f6:	6039      	str	r1, [r7, #0]
 80013f8:	687b      	ldr	r3, [r7, #4]
 80013fa:	68db      	ldr	r3, [r3, #12]
 80013fc:	f423 1200 	bic.w	r2, r3, #2097152	; 0x200000
 8001400:	683b      	ldr	r3, [r7, #0]
 8001402:	431a      	orrs	r2, r3
 8001404:	687b      	ldr	r3, [r7, #4]
 8001406:	60da      	str	r2, [r3, #12]
 8001408:	bf00      	nop
 800140a:	370c      	adds	r7, #12
 800140c:	46bd      	mov	sp, r7
 800140e:	f85d 7b04 	ldr.w	r7, [sp], #4
 8001412:	4770      	bx	lr

08001414 <LL_LPTIM_SetPrescaler>:
 8001414:	b480      	push	{r7}
 8001416:	b083      	sub	sp, #12
 8001418:	af00      	add	r7, sp, #0
 800141a:	6078      	str	r0, [r7, #4]
 800141c:	6039      	str	r1, [r7, #0]
 800141e:	687b      	ldr	r3, [r7, #4]
 8001420:	68db      	ldr	r3, [r3, #12]
 8001422:	f423 6260 	bic.w	r2, r3, #3584	; 0xe00
 8001426:	683b      	ldr	r3, [r7, #0]
 8001428:	431a      	orrs	r2, r3
 800142a:	687b      	ldr	r3, [r7, #4]
 800142c:	60da      	str	r2, [r3, #12]
 800142e:	bf00      	nop
 8001430:	370c      	adds	r7, #12
 8001432:	46bd      	mov	sp, r7
 8001434:	f85d 7b04 	ldr.w	r7, [sp], #4
 8001438:	4770      	bx	lr

0800143a <LL_LPTIM_SetInput1Src>:
 800143a:	b480      	push	{r7}
 800143c:	b083      	sub	sp, #12
 800143e:	af00      	add	r7, sp, #0
 8001440:	6078      	str	r0, [r7, #4]
 8001442:	6039      	str	r1, [r7, #0]
 8001444:	687b      	ldr	r3, [r7, #4]
 8001446:	6a1b      	ldr	r3, [r3, #32]
 8001448:	f023 0203 	bic.w	r2, r3, #3
 800144c:	683b      	ldr	r3, [r7, #0]
 800144e:	431a      	orrs	r2, r3
 8001450:	687b      	ldr	r3, [r7, #4]
 8001452:	621a      	str	r2, [r3, #32]
 8001454:	bf00      	nop
 8001456:	370c      	adds	r7, #12
 8001458:	46bd      	mov	sp, r7
 800145a:	f85d 7b04 	ldr.w	r7, [sp], #4
 800145e:	4770      	bx	lr

08001460 <LL_LPTIM_TrigSw>:
 8001460:	b480      	push	{r7}
 8001462:	b083      	sub	sp, #12
 8001464:	af00      	add	r7, sp, #0
 8001466:	6078      	str	r0, [r7, #4]
 8001468:	687b      	ldr	r3, [r7, #4]
 800146a:	68db      	ldr	r3, [r3, #12]
 800146c:	f423 22c0 	bic.w	r2, r3, #393216	; 0x60000
 8001470:	687b      	ldr	r3, [r7, #4]
 8001472:	60da      	str	r2, [r3, #12]
 8001474:	bf00      	nop
 8001476:	370c      	adds	r7, #12
 8001478:	46bd      	mov	sp, r7
 800147a:	f85d 7b04 	ldr.w	r7, [sp], #4
 800147e:	4770      	bx	lr

08001480 <LL_LPTIM_SetClockSource>:
 8001480:	b480      	push	{r7}
 8001482:	b083      	sub	sp, #12
 8001484:	af00      	add	r7, sp, #0
 8001486:	6078      	str	r0, [r7, #4]
 8001488:	6039      	str	r1, [r7, #0]
 800148a:	687b      	ldr	r3, [r7, #4]
 800148c:	68db      	ldr	r3, [r3, #12]
 800148e:	f023 0201 	bic.w	r2, r3, #1
 8001492:	683b      	ldr	r3, [r7, #0]
 8001494:	431a      	orrs	r2, r3
 8001496:	687b      	ldr	r3, [r7, #4]
 8001498:	60da      	str	r2, [r3, #12]
 800149a:	bf00      	nop
 800149c:	370c      	adds	r7, #12
 800149e:	46bd      	mov	sp, r7
 80014a0:	f85d 7b04 	ldr.w	r7, [sp], #4
 80014a4:	4770      	bx	lr
	...

080014a8 <LL_RCC_SetLPTIMClockSource>:
 80014a8:	b480      	push	{r7}
 80014aa:	b083      	sub	sp, #12
 80014ac:	af00      	add	r7, sp, #0
 80014ae:	6078      	str	r0, [r7, #4]
 80014b0:	4b09      	ldr	r3, [pc, #36]	; (80014d8 <LL_RCC_SetLPTIMClockSource+0x30>)
 80014b2:	f8d3 2088 	ldr.w	r2, [r3, #136]	; 0x88
 80014b6:	687b      	ldr	r3, [r7, #4]
 80014b8:	0c1b      	lsrs	r3, r3, #16
 80014ba:	041b      	lsls	r3, r3, #16
 80014bc:	43db      	mvns	r3, r3
 80014be:	401a      	ands	r2, r3
 80014c0:	687b      	ldr	r3, [r7, #4]
 80014c2:	041b      	lsls	r3, r3, #16
 80014c4:	4904      	ldr	r1, [pc, #16]	; (80014d8 <LL_RCC_SetLPTIMClockSource+0x30>)
 80014c6:	4313      	orrs	r3, r2
 80014c8:	f8c1 3088 	str.w	r3, [r1, #136]	; 0x88
 80014cc:	bf00      	nop
 80014ce:	370c      	adds	r7, #12
 80014d0:	46bd      	mov	sp, r7
 80014d2:	f85d 7b04 	ldr.w	r7, [sp], #4
 80014d6:	4770      	bx	lr
 80014d8:	40021000 	.word	0x40021000

080014dc <LL_APB1_GRP2_EnableClock>:
 80014dc:	b480      	push	{r7}
 80014de:	b085      	sub	sp, #20
 80014e0:	af00      	add	r7, sp, #0
 80014e2:	6078      	str	r0, [r7, #4]
 80014e4:	4b08      	ldr	r3, [pc, #32]	; (8001508 <LL_APB1_GRP2_EnableClock+0x2c>)
 80014e6:	6dda      	ldr	r2, [r3, #92]	; 0x5c
 80014e8:	4907      	ldr	r1, [pc, #28]	; (8001508 <LL_APB1_GRP2_EnableClock+0x2c>)
 80014ea:	687b      	ldr	r3, [r7, #4]
 80014ec:	4313      	orrs	r3, r2
 80014ee:	65cb      	str	r3, [r1, #92]	; 0x5c
 80014f0:	4b05      	ldr	r3, [pc, #20]	; (8001508 <LL_APB1_GRP2_EnableClock+0x2c>)
 80014f2:	6dda      	ldr	r2, [r3, #92]	; 0x5c
 80014f4:	687b      	ldr	r3, [r7, #4]
 80014f6:	4013      	ands	r3, r2
 80014f8:	60fb      	str	r3, [r7, #12]
 80014fa:	68fb      	ldr	r3, [r7, #12]
 80014fc:	bf00      	nop
 80014fe:	3714      	adds	r7, #20
 8001500:	46bd      	mov	sp, r7
 8001502:	f85d 7b04 	ldr.w	r7, [sp], #4
 8001506:	4770      	bx	lr
 8001508:	40021000 	.word	0x40021000

0800150c <MX_LPTIM2_Init>:
 800150c:	b580      	push	{r7, lr}
 800150e:	af00      	add	r7, sp, #0
 8001510:	f04f 1030 	mov.w	r0, #3145776	; 0x300030
 8001514:	f7ff ffc8 	bl	80014a8 <LL_RCC_SetLPTIMClockSource>
 8001518:	2020      	movs	r0, #32
 800151a:	f7ff ffdf 	bl	80014dc <LL_APB1_GRP2_EnableClock>
 800151e:	f7ff feb7 	bl	8001290 <__NVIC_GetPriorityGrouping>
 8001522:	4603      	mov	r3, r0
 8001524:	2200      	movs	r2, #0
 8001526:	2100      	movs	r1, #0
 8001528:	4618      	mov	r0, r3
 800152a:	f7ff ff07 	bl	800133c <NVIC_EncodePriority>
 800152e:	4603      	mov	r3, r0
 8001530:	4619      	mov	r1, r3
 8001532:	2042      	movs	r0, #66	; 0x42
 8001534:	f7ff fed8 	bl	80012e8 <__NVIC_SetPriority>
 8001538:	2042      	movs	r0, #66	; 0x42
 800153a:	f7ff feb7 	bl	80012ac <__NVIC_EnableIRQ>
 800153e:	2100      	movs	r1, #0
 8001540:	480d      	ldr	r0, [pc, #52]	; (8001578 <MX_LPTIM2_Init+0x6c>)
 8001542:	f7ff ff9d 	bl	8001480 <LL_LPTIM_SetClockSource>
 8001546:	2100      	movs	r1, #0
 8001548:	480b      	ldr	r0, [pc, #44]	; (8001578 <MX_LPTIM2_Init+0x6c>)
 800154a:	f7ff ff63 	bl	8001414 <LL_LPTIM_SetPrescaler>
 800154e:	2100      	movs	r1, #0
 8001550:	4809      	ldr	r0, [pc, #36]	; (8001578 <MX_LPTIM2_Init+0x6c>)
 8001552:	f7ff ff4c 	bl	80013ee <LL_LPTIM_SetPolarity>
 8001556:	2100      	movs	r1, #0
 8001558:	4807      	ldr	r0, [pc, #28]	; (8001578 <MX_LPTIM2_Init+0x6c>)
 800155a:	f7ff ff22 	bl	80013a2 <LL_LPTIM_SetUpdateMode>
 800155e:	2100      	movs	r1, #0
 8001560:	4805      	ldr	r0, [pc, #20]	; (8001578 <MX_LPTIM2_Init+0x6c>)
 8001562:	f7ff ff31 	bl	80013c8 <LL_LPTIM_SetCounterMode>
 8001566:	4804      	ldr	r0, [pc, #16]	; (8001578 <MX_LPTIM2_Init+0x6c>)
 8001568:	f7ff ff7a 	bl	8001460 <LL_LPTIM_TrigSw>
 800156c:	2100      	movs	r1, #0
 800156e:	4802      	ldr	r0, [pc, #8]	; (8001578 <MX_LPTIM2_Init+0x6c>)
 8001570:	f7ff ff63 	bl	800143a <LL_LPTIM_SetInput1Src>
 8001574:	bf00      	nop
 8001576:	bd80      	pop	{r7, pc}
 8001578:	40009400 	.word	0x40009400

0800157c <__NVIC_SetPriorityGrouping>:
           In case of a conflict between priority grouping and available
           priority bits (__NVIC_PRIO_BITS), the smallest possible priority group is set.
  \param [in]      PriorityGroup  Priority grouping field.
 */
__STATIC_INLINE void __NVIC_SetPriorityGrouping(uint32_t PriorityGroup)
{
 800157c:	b480      	push	{r7}
 800157e:	b085      	sub	sp, #20
 8001580:	af00      	add	r7, sp, #0
 8001582:	6078      	str	r0, [r7, #4]
  uint32_t reg_value;
  uint32_t PriorityGroupTmp = (PriorityGroup & (uint32_t)0x07UL);             /* only values 0..7 are used          */
 8001584:	687b      	ldr	r3, [r7, #4]
 8001586:	f003 0307 	and.w	r3, r3, #7
 800158a:	60fb      	str	r3, [r7, #12]

  reg_value  =  SCB->AIRCR;                                                   /* read old register configuration    */
 800158c:	4b0c      	ldr	r3, [pc, #48]	; (80015c0 <__NVIC_SetPriorityGrouping+0x44>)
 800158e:	68db      	ldr	r3, [r3, #12]
 8001590:	60bb      	str	r3, [r7, #8]
  reg_value &= ~((uint32_t)(SCB_AIRCR_VECTKEY_Msk | SCB_AIRCR_PRIGROUP_Msk)); /* clear bits to change               */
 8001592:	68ba      	ldr	r2, [r7, #8]
 8001594:	f64f 03ff 	movw	r3, #63743	; 0xf8ff
 8001598:	4013      	ands	r3, r2
 800159a:	60bb      	str	r3, [r7, #8]
  reg_value  =  (reg_value                                   |
                ((uint32_t)0x5FAUL << SCB_AIRCR_VECTKEY_Pos) |
                (PriorityGroupTmp << SCB_AIRCR_PRIGROUP_Pos)  );              /* Insert write key and priority group */
 800159c:	68fb      	ldr	r3, [r7, #12]
 800159e:	021a      	lsls	r2, r3, #8
                ((uint32_t)0x5FAUL << SCB_AIRCR_VECTKEY_Pos) |
 80015a0:	68bb      	ldr	r3, [r7, #8]
 80015a2:	4313      	orrs	r3, r2
  reg_value  =  (reg_value                                   |
 80015a4:	f043 63bf 	orr.w	r3, r3, #100139008	; 0x5f80000
 80015a8:	f443 3300 	orr.w	r3, r3, #131072	; 0x20000
 80015ac:	60bb      	str	r3, [r7, #8]
  SCB->AIRCR =  reg_value;
 80015ae:	4a04      	ldr	r2, [pc, #16]	; (80015c0 <__NVIC_SetPriorityGrouping+0x44>)
 80015b0:	68bb      	ldr	r3, [r7, #8]
 80015b2:	60d3      	str	r3, [r2, #12]
}
 80015b4:	bf00      	nop
 80015b6:	3714      	adds	r7, #20
 80015b8:	46bd      	mov	sp, r7
 80015ba:	f85d 7b04 	ldr.w	r7, [sp], #4
 80015be:	4770      	bx	lr
 80015c0:	e000ed00 	.word	0xe000ed00

080015c4 <LL_ADC_Enable>:
  * @rmtoll CR       ADEN           LL_ADC_Enable
  * @param  ADCx ADC instance
  * @retval None
  */
__STATIC_INLINE void LL_ADC_Enable(ADC_TypeDef *ADCx)
{
 80015c4:	b480      	push	{r7}
 80015c6:	b083      	sub	sp, #12
 80015c8:	af00      	add	r7, sp, #0
 80015ca:	6078      	str	r0, [r7, #4]
  /* Note: Write register with some additional bits forced to state reset     */
  /*       instead of modifying only the selected bit for this function,      */
  /*       to not interfere with bits with HW property "rs".                  */
  MODIFY_REG(ADCx->CR,
 80015cc:	687b      	ldr	r3, [r7, #4]
 80015ce:	689b      	ldr	r3, [r3, #8]
 80015d0:	f023 4300 	bic.w	r3, r3, #2147483648	; 0x80000000
 80015d4:	f023 033f 	bic.w	r3, r3, #63	; 0x3f
 80015d8:	f043 0201 	orr.w	r2, r3, #1
 80015dc:	687b      	ldr	r3, [r7, #4]
 80015de:	609a      	str	r2, [r3, #8]
             ADC_CR_BITS_PROPERTY_RS,
             ADC_CR_ADEN);
}
 80015e0:	bf00      	nop
 80015e2:	370c      	adds	r7, #12
 80015e4:	46bd      	mov	sp, r7
 80015e6:	f85d 7b04 	ldr.w	r7, [sp], #4
 80015ea:	4770      	bx	lr

080015ec <LL_LPTIM_Enable>:
  * @rmtoll CR           ENABLE        LL_LPTIM_Enable
  * @param  LPTIMx Low-Power Timer instance
  * @retval None
  */
__STATIC_INLINE void LL_LPTIM_Enable(LPTIM_TypeDef *LPTIMx)
{
 80015ec:	b480      	push	{r7}
 80015ee:	b083      	sub	sp, #12
 80015f0:	af00      	add	r7, sp, #0
 80015f2:	6078      	str	r0, [r7, #4]
  SET_BIT(LPTIMx->CR, LPTIM_CR_ENABLE);
 80015f4:	687b      	ldr	r3, [r7, #4]
 80015f6:	691b      	ldr	r3, [r3, #16]
 80015f8:	f043 0201 	orr.w	r2, r3, #1
 80015fc:	687b      	ldr	r3, [r7, #4]
 80015fe:	611a      	str	r2, [r3, #16]
}
 8001600:	bf00      	nop
 8001602:	370c      	adds	r7, #12
 8001604:	46bd      	mov	sp, r7
 8001606:	f85d 7b04 	ldr.w	r7, [sp], #4
 800160a:	4770      	bx	lr

0800160c <LL_LPTIM_StartCounter>:
  *         @arg @ref LL_LPTIM_OPERATING_MODE_CONTINUOUS
  *         @arg @ref LL_LPTIM_OPERATING_MODE_ONESHOT
  * @retval None
  */
__STATIC_INLINE void LL_LPTIM_StartCounter(LPTIM_TypeDef *LPTIMx, uint32_t OperatingMode)
{
 800160c:	b480      	push	{r7}
 800160e:	b083      	sub	sp, #12
 8001610:	af00      	add	r7, sp, #0
 8001612:	6078      	str	r0, [r7, #4]
 8001614:	6039      	str	r1, [r7, #0]
  MODIFY_REG(LPTIMx->CR, LPTIM_CR_CNTSTRT | LPTIM_CR_SNGSTRT, OperatingMode);
 8001616:	687b      	ldr	r3, [r7, #4]
 8001618:	691b      	ldr	r3, [r3, #16]
 800161a:	f023 0206 	bic.w	r2, r3, #6
 800161e:	683b      	ldr	r3, [r7, #0]
 8001620:	431a      	orrs	r2, r3
 8001622:	687b      	ldr	r3, [r7, #4]
 8001624:	611a      	str	r2, [r3, #16]
}
 8001626:	bf00      	nop
 8001628:	370c      	adds	r7, #12
 800162a:	46bd      	mov	sp, r7
 800162c:	f85d 7b04 	ldr.w	r7, [sp], #4
 8001630:	4770      	bx	lr

08001632 <LL_LPTIM_SetAutoReload>:
  * @param  LPTIMx Low-Power Timer instance
  * @param  AutoReload Value between Min_Data=0x0001 and Max_Data=0xFFFF
  * @retval None
  */
__STATIC_INLINE void LL_LPTIM_SetAutoReload(LPTIM_TypeDef *LPTIMx, uint32_t AutoReload)
{
 8001632:	b480      	push	{r7}
 8001634:	b083      	sub	sp, #12
 8001636:	af00      	add	r7, sp, #0
 8001638:	6078      	str	r0, [r7, #4]
 800163a:	6039      	str	r1, [r7, #0]
  MODIFY_REG(LPTIMx->ARR, LPTIM_ARR_ARR, AutoReload);
 800163c:	687b      	ldr	r3, [r7, #4]
 800163e:	699b      	ldr	r3, [r3, #24]
 8001640:	0c1b      	lsrs	r3, r3, #16
 8001642:	041b      	lsls	r3, r3, #16
 8001644:	683a      	ldr	r2, [r7, #0]
 8001646:	431a      	orrs	r2, r3
 8001648:	687b      	ldr	r3, [r7, #4]
 800164a:	619a      	str	r2, [r3, #24]
}
 800164c:	bf00      	nop
 800164e:	370c      	adds	r7, #12
 8001650:	46bd      	mov	sp, r7
 8001652:	f85d 7b04 	ldr.w	r7, [sp], #4
 8001656:	4770      	bx	lr

08001658 <LL_LPTIM_EnableIT_ARRM>:
  * @rmtoll IER          ARRMIE        LL_LPTIM_EnableIT_ARRM
  * @param  LPTIMx Low-Power Timer instance
  * @retval None
  */
__STATIC_INLINE void LL_LPTIM_EnableIT_ARRM(LPTIM_TypeDef *LPTIMx)
{
 8001658:	b480      	push	{r7}
 800165a:	b083      	sub	sp, #12
 800165c:	af00      	add	r7, sp, #0
 800165e:	6078      	str	r0, [r7, #4]
  SET_BIT(LPTIMx->IER, LPTIM_IER_ARRMIE);
 8001660:	687b      	ldr	r3, [r7, #4]
 8001662:	689b      	ldr	r3, [r3, #8]
 8001664:	f043 0202 	orr.w	r2, r3, #2
 8001668:	687b      	ldr	r3, [r7, #4]
 800166a:	609a      	str	r2, [r3, #8]
}
 800166c:	bf00      	nop
 800166e:	370c      	adds	r7, #12
 8001670:	46bd      	mov	sp, r7
 8001672:	f85d 7b04 	ldr.w	r7, [sp], #4
 8001676:	4770      	bx	lr

08001678 <LL_RCC_LSE_Enable>:
  * @brief  Enable  Low Speed External (LSE) crystal.
  * @rmtoll BDCR         LSEON         LL_RCC_LSE_Enable
  * @retval None
  */
__STATIC_INLINE void LL_RCC_LSE_Enable(void)
{
 8001678:	b480      	push	{r7}
 800167a:	af00      	add	r7, sp, #0
  SET_BIT(RCC->BDCR, RCC_BDCR_LSEON);
 800167c:	4b06      	ldr	r3, [pc, #24]	; (8001698 <LL_RCC_LSE_Enable+0x20>)
 800167e:	f8d3 3090 	ldr.w	r3, [r3, #144]	; 0x90
 8001682:	4a05      	ldr	r2, [pc, #20]	; (8001698 <LL_RCC_LSE_Enable+0x20>)
 8001684:	f043 0301 	orr.w	r3, r3, #1
 8001688:	f8c2 3090 	str.w	r3, [r2, #144]	; 0x90
}
 800168c:	bf00      	nop
 800168e:	46bd      	mov	sp, r7
 8001690:	f85d 7b04 	ldr.w	r7, [sp], #4
 8001694:	4770      	bx	lr
 8001696:	bf00      	nop
 8001698:	40021000 	.word	0x40021000

0800169c <LL_RCC_LSE_SetDriveCapability>:
  *         @arg @ref LL_RCC_LSEDRIVE_MEDIUMHIGH
  *         @arg @ref LL_RCC_LSEDRIVE_HIGH
  * @retval None
  */
__STATIC_INLINE void LL_RCC_LSE_SetDriveCapability(uint32_t LSEDrive)
{
 800169c:	b480      	push	{r7}
 800169e:	b083      	sub	sp, #12
 80016a0:	af00      	add	r7, sp, #0
 80016a2:	6078      	str	r0, [r7, #4]
  MODIFY_REG(RCC->BDCR, RCC_BDCR_LSEDRV, LSEDrive);
 80016a4:	4b07      	ldr	r3, [pc, #28]	; (80016c4 <LL_RCC_LSE_SetDriveCapability+0x28>)
 80016a6:	f8d3 3090 	ldr.w	r3, [r3, #144]	; 0x90
 80016aa:	f023 0218 	bic.w	r2, r3, #24
 80016ae:	4905      	ldr	r1, [pc, #20]	; (80016c4 <LL_RCC_LSE_SetDriveCapability+0x28>)
 80016b0:	687b      	ldr	r3, [r7, #4]
 80016b2:	4313      	orrs	r3, r2
 80016b4:	f8c1 3090 	str.w	r3, [r1, #144]	; 0x90
}
 80016b8:	bf00      	nop
 80016ba:	370c      	adds	r7, #12
 80016bc:	46bd      	mov	sp, r7
 80016be:	f85d 7b04 	ldr.w	r7, [sp], #4
 80016c2:	4770      	bx	lr
 80016c4:	40021000 	.word	0x40021000

080016c8 <LL_RCC_LSE_IsReady>:
  * @brief  Check if LSE oscillator Ready
  * @rmtoll BDCR         LSERDY        LL_RCC_LSE_IsReady
  * @retval State of bit (1 or 0).
  */
__STATIC_INLINE uint32_t LL_RCC_LSE_IsReady(void)
{
 80016c8:	b480      	push	{r7}
 80016ca:	af00      	add	r7, sp, #0
  return ((READ_BIT(RCC->BDCR, RCC_BDCR_LSERDY) == RCC_BDCR_LSERDY) ? 1UL : 0UL);
 80016cc:	4b07      	ldr	r3, [pc, #28]	; (80016ec <LL_RCC_LSE_IsReady+0x24>)
 80016ce:	f8d3 3090 	ldr.w	r3, [r3, #144]	; 0x90
 80016d2:	f003 0302 	and.w	r3, r3, #2
 80016d6:	2b02      	cmp	r3, #2
 80016d8:	d101      	bne.n	80016de <LL_RCC_LSE_IsReady+0x16>
 80016da:	2301      	movs	r3, #1
 80016dc:	e000      	b.n	80016e0 <LL_RCC_LSE_IsReady+0x18>
 80016de:	2300      	movs	r3, #0
}
 80016e0:	4618      	mov	r0, r3
 80016e2:	46bd      	mov	sp, r7
 80016e4:	f85d 7b04 	ldr.w	r7, [sp], #4
 80016e8:	4770      	bx	lr
 80016ea:	bf00      	nop
 80016ec:	40021000 	.word	0x40021000

080016f0 <LL_RCC_MSI_Enable>:
  * @brief  Enable MSI oscillator
  * @rmtoll CR           MSION         LL_RCC_MSI_Enable
  * @retval None
  */
__STATIC_INLINE void LL_RCC_MSI_Enable(void)
{
 80016f0:	b480      	push	{r7}
 80016f2:	af00      	add	r7, sp, #0
  SET_BIT(RCC->CR, RCC_CR_MSION);
 80016f4:	4b05      	ldr	r3, [pc, #20]	; (800170c <LL_RCC_MSI_Enable+0x1c>)
 80016f6:	681b      	ldr	r3, [r3, #0]
 80016f8:	4a04      	ldr	r2, [pc, #16]	; (800170c <LL_RCC_MSI_Enable+0x1c>)
 80016fa:	f043 0301 	orr.w	r3, r3, #1
 80016fe:	6013      	str	r3, [r2, #0]
}
 8001700:	bf00      	nop
 8001702:	46bd      	mov	sp, r7
 8001704:	f85d 7b04 	ldr.w	r7, [sp], #4
 8001708:	4770      	bx	lr
 800170a:	bf00      	nop
 800170c:	40021000 	.word	0x40021000

08001710 <LL_RCC_MSI_IsReady>:
  * @brief  Check if MSI oscillator Ready
  * @rmtoll CR           MSIRDY        LL_RCC_MSI_IsReady
  * @retval State of bit (1 or 0).
  */
__STATIC_INLINE uint32_t LL_RCC_MSI_IsReady(void)
{
 8001710:	b480      	push	{r7}
 8001712:	af00      	add	r7, sp, #0
  return ((READ_BIT(RCC->CR, RCC_CR_MSIRDY) == RCC_CR_MSIRDY) ? 1UL : 0UL);
 8001714:	4b06      	ldr	r3, [pc, #24]	; (8001730 <LL_RCC_MSI_IsReady+0x20>)
 8001716:	681b      	ldr	r3, [r3, #0]
 8001718:	f003 0302 	and.w	r3, r3, #2
 800171c:	2b02      	cmp	r3, #2
 800171e:	d101      	bne.n	8001724 <LL_RCC_MSI_IsReady+0x14>
 8001720:	2301      	movs	r3, #1
 8001722:	e000      	b.n	8001726 <LL_RCC_MSI_IsReady+0x16>
 8001724:	2300      	movs	r3, #0
}
 8001726:	4618      	mov	r0, r3
 8001728:	46bd      	mov	sp, r7
 800172a:	f85d 7b04 	ldr.w	r7, [sp], #4
 800172e:	4770      	bx	lr
 8001730:	40021000 	.word	0x40021000

08001734 <LL_RCC_MSI_EnablePLLMode>:
  *       ready
  * @rmtoll CR           MSIPLLEN      LL_RCC_MSI_EnablePLLMode
  * @retval None
  */
__STATIC_INLINE void LL_RCC_MSI_EnablePLLMode(void)
{
 8001734:	b480      	push	{r7}
 8001736:	af00      	add	r7, sp, #0
  SET_BIT(RCC->CR, RCC_CR_MSIPLLEN);
 8001738:	4b05      	ldr	r3, [pc, #20]	; (8001750 <LL_RCC_MSI_EnablePLLMode+0x1c>)
 800173a:	681b      	ldr	r3, [r3, #0]
 800173c:	4a04      	ldr	r2, [pc, #16]	; (8001750 <LL_RCC_MSI_EnablePLLMode+0x1c>)
 800173e:	f043 0304 	orr.w	r3, r3, #4
 8001742:	6013      	str	r3, [r2, #0]
}
 8001744:	bf00      	nop
 8001746:	46bd      	mov	sp, r7
 8001748:	f85d 7b04 	ldr.w	r7, [sp], #4
 800174c:	4770      	bx	lr
 800174e:	bf00      	nop
 8001750:	40021000 	.word	0x40021000

08001754 <LL_RCC_MSI_EnableRangeSelection>:
  *       MSISRANGE
  * @rmtoll CR           MSIRGSEL      LL_RCC_MSI_EnableRangeSelection
  * @retval None
  */
__STATIC_INLINE void LL_RCC_MSI_EnableRangeSelection(void)
{
 8001754:	b480      	push	{r7}
 8001756:	af00      	add	r7, sp, #0
  SET_BIT(RCC->CR, RCC_CR_MSIRGSEL);
 8001758:	4b05      	ldr	r3, [pc, #20]	; (8001770 <LL_RCC_MSI_EnableRangeSelection+0x1c>)
 800175a:	681b      	ldr	r3, [r3, #0]
 800175c:	4a04      	ldr	r2, [pc, #16]	; (8001770 <LL_RCC_MSI_EnableRangeSelection+0x1c>)
 800175e:	f043 0308 	orr.w	r3, r3, #8
 8001762:	6013      	str	r3, [r2, #0]
}
 8001764:	bf00      	nop
 8001766:	46bd      	mov	sp, r7
 8001768:	f85d 7b04 	ldr.w	r7, [sp], #4
 800176c:	4770      	bx	lr
 800176e:	bf00      	nop
 8001770:	40021000 	.word	0x40021000

08001774 <LL_RCC_MSI_SetRange>:
  *         @arg @ref LL_RCC_MSIRANGE_10
  *         @arg @ref LL_RCC_MSIRANGE_11
  * @retval None
  */
__STATIC_INLINE void LL_RCC_MSI_SetRange(uint32_t Range)
{
 8001774:	b480      	push	{r7}
 8001776:	b083      	sub	sp, #12
 8001778:	af00      	add	r7, sp, #0
 800177a:	6078      	str	r0, [r7, #4]
  MODIFY_REG(RCC->CR, RCC_CR_MSIRANGE, Range);
 800177c:	4b06      	ldr	r3, [pc, #24]	; (8001798 <LL_RCC_MSI_SetRange+0x24>)
 800177e:	681b      	ldr	r3, [r3, #0]
 8001780:	f023 02f0 	bic.w	r2, r3, #240	; 0xf0
 8001784:	4904      	ldr	r1, [pc, #16]	; (8001798 <LL_RCC_MSI_SetRange+0x24>)
 8001786:	687b      	ldr	r3, [r7, #4]
 8001788:	4313      	orrs	r3, r2
 800178a:	600b      	str	r3, [r1, #0]
}
 800178c:	bf00      	nop
 800178e:	370c      	adds	r7, #12
 8001790:	46bd      	mov	sp, r7
 8001792:	f85d 7b04 	ldr.w	r7, [sp], #4
 8001796:	4770      	bx	lr
 8001798:	40021000 	.word	0x40021000

0800179c <LL_RCC_MSI_SetCalibTrimming>:
  * @rmtoll ICSCR        MSITRIM       LL_RCC_MSI_SetCalibTrimming
  * @param  Value Between Min_Data = 0 and Max_Data = 255
  * @retval None
  */
__STATIC_INLINE void LL_RCC_MSI_SetCalibTrimming(uint32_t Value)
{
 800179c:	b480      	push	{r7}
 800179e:	b083      	sub	sp, #12
 80017a0:	af00      	add	r7, sp, #0
 80017a2:	6078      	str	r0, [r7, #4]
  MODIFY_REG(RCC->ICSCR, RCC_ICSCR_MSITRIM, Value << RCC_ICSCR_MSITRIM_Pos);
 80017a4:	4b07      	ldr	r3, [pc, #28]	; (80017c4 <LL_RCC_MSI_SetCalibTrimming+0x28>)
 80017a6:	685b      	ldr	r3, [r3, #4]
 80017a8:	f423 427f 	bic.w	r2, r3, #65280	; 0xff00
 80017ac:	687b      	ldr	r3, [r7, #4]
 80017ae:	021b      	lsls	r3, r3, #8
 80017b0:	4904      	ldr	r1, [pc, #16]	; (80017c4 <LL_RCC_MSI_SetCalibTrimming+0x28>)
 80017b2:	4313      	orrs	r3, r2
 80017b4:	604b      	str	r3, [r1, #4]
}
 80017b6:	bf00      	nop
 80017b8:	370c      	adds	r7, #12
 80017ba:	46bd      	mov	sp, r7
 80017bc:	f85d 7b04 	ldr.w	r7, [sp], #4
 80017c0:	4770      	bx	lr
 80017c2:	bf00      	nop
 80017c4:	40021000 	.word	0x40021000

080017c8 <LL_RCC_SetSysClkSource>:
  *         @arg @ref LL_RCC_SYS_CLKSOURCE_HSE
  *         @arg @ref LL_RCC_SYS_CLKSOURCE_PLL
  * @retval None
  */
__STATIC_INLINE void LL_RCC_SetSysClkSource(uint32_t Source)
{
 80017c8:	b480      	push	{r7}
 80017ca:	b083      	sub	sp, #12
 80017cc:	af00      	add	r7, sp, #0
 80017ce:	6078      	str	r0, [r7, #4]
  MODIFY_REG(RCC->CFGR, RCC_CFGR_SW, Source);
 80017d0:	4b06      	ldr	r3, [pc, #24]	; (80017ec <LL_RCC_SetSysClkSource+0x24>)
 80017d2:	689b      	ldr	r3, [r3, #8]
 80017d4:	f023 0203 	bic.w	r2, r3, #3
 80017d8:	4904      	ldr	r1, [pc, #16]	; (80017ec <LL_RCC_SetSysClkSource+0x24>)
 80017da:	687b      	ldr	r3, [r7, #4]
 80017dc:	4313      	orrs	r3, r2
 80017de:	608b      	str	r3, [r1, #8]
}
 80017e0:	bf00      	nop
 80017e2:	370c      	adds	r7, #12
 80017e4:	46bd      	mov	sp, r7
 80017e6:	f85d 7b04 	ldr.w	r7, [sp], #4
 80017ea:	4770      	bx	lr
 80017ec:	40021000 	.word	0x40021000

080017f0 <LL_RCC_GetSysClkSource>:
  *         @arg @ref LL_RCC_SYS_CLKSOURCE_STATUS_HSI
  *         @arg @ref LL_RCC_SYS_CLKSOURCE_STATUS_HSE
  *         @arg @ref LL_RCC_SYS_CLKSOURCE_STATUS_PLL
  */
__STATIC_INLINE uint32_t LL_RCC_GetSysClkSource(void)
{
 80017f0:	b480      	push	{r7}
 80017f2:	af00      	add	r7, sp, #0
  return (uint32_t)(READ_BIT(RCC->CFGR, RCC_CFGR_SWS));
 80017f4:	4b04      	ldr	r3, [pc, #16]	; (8001808 <LL_RCC_GetSysClkSource+0x18>)
 80017f6:	689b      	ldr	r3, [r3, #8]
 80017f8:	f003 030c 	and.w	r3, r3, #12
}
 80017fc:	4618      	mov	r0, r3
 80017fe:	46bd      	mov	sp, r7
 8001800:	f85d 7b04 	ldr.w	r7, [sp], #4
 8001804:	4770      	bx	lr
 8001806:	bf00      	nop
 8001808:	40021000 	.word	0x40021000

0800180c <LL_RCC_SetAHBPrescaler>:
  *         @arg @ref LL_RCC_SYSCLK_DIV_256
  *         @arg @ref LL_RCC_SYSCLK_DIV_512
  * @retval None
  */
__STATIC_INLINE void LL_RCC_SetAHBPrescaler(uint32_t Prescaler)
{
 800180c:	b480      	push	{r7}
 800180e:	b083      	sub	sp, #12
 8001810:	af00      	add	r7, sp, #0
 8001812:	6078      	str	r0, [r7, #4]
  MODIFY_REG(RCC->CFGR, RCC_CFGR_HPRE, Prescaler);
 8001814:	4b06      	ldr	r3, [pc, #24]	; (8001830 <LL_RCC_SetAHBPrescaler+0x24>)
 8001816:	689b      	ldr	r3, [r3, #8]
 8001818:	f023 02f0 	bic.w	r2, r3, #240	; 0xf0
 800181c:	4904      	ldr	r1, [pc, #16]	; (8001830 <LL_RCC_SetAHBPrescaler+0x24>)
 800181e:	687b      	ldr	r3, [r7, #4]
 8001820:	4313      	orrs	r3, r2
 8001822:	608b      	str	r3, [r1, #8]
}
 8001824:	bf00      	nop
 8001826:	370c      	adds	r7, #12
 8001828:	46bd      	mov	sp, r7
 800182a:	f85d 7b04 	ldr.w	r7, [sp], #4
 800182e:	4770      	bx	lr
 8001830:	40021000 	.word	0x40021000

08001834 <LL_RCC_SetAPB1Prescaler>:
  *         @arg @ref LL_RCC_APB1_DIV_8
  *         @arg @ref LL_RCC_APB1_DIV_16
  * @retval None
  */
__STATIC_INLINE void LL_RCC_SetAPB1Prescaler(uint32_t Prescaler)
{
 8001834:	b480      	push	{r7}
 8001836:	b083      	sub	sp, #12
 8001838:	af00      	add	r7, sp, #0
 800183a:	6078      	str	r0, [r7, #4]
  MODIFY_REG(RCC->CFGR, RCC_CFGR_PPRE1, Prescaler);
 800183c:	4b06      	ldr	r3, [pc, #24]	; (8001858 <LL_RCC_SetAPB1Prescaler+0x24>)
 800183e:	689b      	ldr	r3, [r3, #8]
 8001840:	f423 62e0 	bic.w	r2, r3, #1792	; 0x700
 8001844:	4904      	ldr	r1, [pc, #16]	; (8001858 <LL_RCC_SetAPB1Prescaler+0x24>)
 8001846:	687b      	ldr	r3, [r7, #4]
 8001848:	4313      	orrs	r3, r2
 800184a:	608b      	str	r3, [r1, #8]
}
 800184c:	bf00      	nop
 800184e:	370c      	adds	r7, #12
 8001850:	46bd      	mov	sp, r7
 8001852:	f85d 7b04 	ldr.w	r7, [sp], #4
 8001856:	4770      	bx	lr
 8001858:	40021000 	.word	0x40021000

0800185c <LL_RCC_SetAPB2Prescaler>:
  *         @arg @ref LL_RCC_APB2_DIV_8
  *         @arg @ref LL_RCC_APB2_DIV_16
  * @retval None
  */
__STATIC_INLINE void LL_RCC_SetAPB2Prescaler(uint32_t Prescaler)
{
 800185c:	b480      	push	{r7}
 800185e:	b083      	sub	sp, #12
 8001860:	af00      	add	r7, sp, #0
 8001862:	6078      	str	r0, [r7, #4]
  MODIFY_REG(RCC->CFGR, RCC_CFGR_PPRE2, Prescaler);
 8001864:	4b06      	ldr	r3, [pc, #24]	; (8001880 <LL_RCC_SetAPB2Prescaler+0x24>)
 8001866:	689b      	ldr	r3, [r3, #8]
 8001868:	f423 5260 	bic.w	r2, r3, #14336	; 0x3800
 800186c:	4904      	ldr	r1, [pc, #16]	; (8001880 <LL_RCC_SetAPB2Prescaler+0x24>)
 800186e:	687b      	ldr	r3, [r7, #4]
 8001870:	4313      	orrs	r3, r2
 8001872:	608b      	str	r3, [r1, #8]
}
 8001874:	bf00      	nop
 8001876:	370c      	adds	r7, #12
 8001878:	46bd      	mov	sp, r7
 800187a:	f85d 7b04 	ldr.w	r7, [sp], #4
 800187e:	4770      	bx	lr
 8001880:	40021000 	.word	0x40021000

08001884 <LL_RCC_PLL_Enable>:
  * @brief  Enable PLL
  * @rmtoll CR           PLLON         LL_RCC_PLL_Enable
  * @retval None
  */
__STATIC_INLINE void LL_RCC_PLL_Enable(void)
{
 8001884:	b480      	push	{r7}
 8001886:	af00      	add	r7, sp, #0
  SET_BIT(RCC->CR, RCC_CR_PLLON);
 8001888:	4b05      	ldr	r3, [pc, #20]	; (80018a0 <LL_RCC_PLL_Enable+0x1c>)
 800188a:	681b      	ldr	r3, [r3, #0]
 800188c:	4a04      	ldr	r2, [pc, #16]	; (80018a0 <LL_RCC_PLL_Enable+0x1c>)
 800188e:	f043 7380 	orr.w	r3, r3, #16777216	; 0x1000000
 8001892:	6013      	str	r3, [r2, #0]
}
 8001894:	bf00      	nop
 8001896:	46bd      	mov	sp, r7
 8001898:	f85d 7b04 	ldr.w	r7, [sp], #4
 800189c:	4770      	bx	lr
 800189e:	bf00      	nop
 80018a0:	40021000 	.word	0x40021000

080018a4 <LL_RCC_PLL_IsReady>:
  * @brief  Check if PLL Ready
  * @rmtoll CR           PLLRDY        LL_RCC_PLL_IsReady
  * @retval State of bit (1 or 0).
  */
__STATIC_INLINE uint32_t LL_RCC_PLL_IsReady(void)
{
 80018a4:	b480      	push	{r7}
 80018a6:	af00      	add	r7, sp, #0
  return ((READ_BIT(RCC->CR, RCC_CR_PLLRDY) == RCC_CR_PLLRDY) ? 1UL : 0UL);
 80018a8:	4b07      	ldr	r3, [pc, #28]	; (80018c8 <LL_RCC_PLL_IsReady+0x24>)
 80018aa:	681b      	ldr	r3, [r3, #0]
 80018ac:	f003 7300 	and.w	r3, r3, #33554432	; 0x2000000
 80018b0:	f1b3 7f00 	cmp.w	r3, #33554432	; 0x2000000
 80018b4:	d101      	bne.n	80018ba <LL_RCC_PLL_IsReady+0x16>
 80018b6:	2301      	movs	r3, #1
 80018b8:	e000      	b.n	80018bc <LL_RCC_PLL_IsReady+0x18>
 80018ba:	2300      	movs	r3, #0
}
 80018bc:	4618      	mov	r0, r3
 80018be:	46bd      	mov	sp, r7
 80018c0:	f85d 7b04 	ldr.w	r7, [sp], #4
 80018c4:	4770      	bx	lr
 80018c6:	bf00      	nop
 80018c8:	40021000 	.word	0x40021000

080018cc <LL_RCC_PLL_ConfigDomain_SYS>:
  *         @arg @ref LL_RCC_PLLR_DIV_6
  *         @arg @ref LL_RCC_PLLR_DIV_8
  * @retval None
  */
__STATIC_INLINE void LL_RCC_PLL_ConfigDomain_SYS(uint32_t Source, uint32_t PLLM, uint32_t PLLN, uint32_t PLLR)
{
 80018cc:	b480      	push	{r7}
 80018ce:	b085      	sub	sp, #20
 80018d0:	af00      	add	r7, sp, #0
 80018d2:	60f8      	str	r0, [r7, #12]
 80018d4:	60b9      	str	r1, [r7, #8]
 80018d6:	607a      	str	r2, [r7, #4]
 80018d8:	603b      	str	r3, [r7, #0]
  MODIFY_REG(RCC->PLLCFGR, RCC_PLLCFGR_PLLSRC | RCC_PLLCFGR_PLLM | RCC_PLLCFGR_PLLN | RCC_PLLCFGR_PLLR,
 80018da:	4b0a      	ldr	r3, [pc, #40]	; (8001904 <LL_RCC_PLL_ConfigDomain_SYS+0x38>)
 80018dc:	68da      	ldr	r2, [r3, #12]
 80018de:	4b0a      	ldr	r3, [pc, #40]	; (8001908 <LL_RCC_PLL_ConfigDomain_SYS+0x3c>)
 80018e0:	4013      	ands	r3, r2
 80018e2:	68f9      	ldr	r1, [r7, #12]
 80018e4:	68ba      	ldr	r2, [r7, #8]
 80018e6:	4311      	orrs	r1, r2
 80018e8:	687a      	ldr	r2, [r7, #4]
 80018ea:	0212      	lsls	r2, r2, #8
 80018ec:	4311      	orrs	r1, r2
 80018ee:	683a      	ldr	r2, [r7, #0]
 80018f0:	430a      	orrs	r2, r1
 80018f2:	4904      	ldr	r1, [pc, #16]	; (8001904 <LL_RCC_PLL_ConfigDomain_SYS+0x38>)
 80018f4:	4313      	orrs	r3, r2
 80018f6:	60cb      	str	r3, [r1, #12]
             Source | PLLM | (PLLN << RCC_PLLCFGR_PLLN_Pos) | PLLR);
}
 80018f8:	bf00      	nop
 80018fa:	3714      	adds	r7, #20
 80018fc:	46bd      	mov	sp, r7
 80018fe:	f85d 7b04 	ldr.w	r7, [sp], #4
 8001902:	4770      	bx	lr
 8001904:	40021000 	.word	0x40021000
 8001908:	f9ff808c 	.word	0xf9ff808c

0800190c <LL_RCC_PLL_EnableDomain_SYS>:
  * @brief  Enable PLL output mapped on SYSCLK domain
  * @rmtoll PLLCFGR      PLLREN        LL_RCC_PLL_EnableDomain_SYS
  * @retval None
  */
__STATIC_INLINE void LL_RCC_PLL_EnableDomain_SYS(void)
{
 800190c:	b480      	push	{r7}
 800190e:	af00      	add	r7, sp, #0
  SET_BIT(RCC->PLLCFGR, RCC_PLLCFGR_PLLREN);
 8001910:	4b05      	ldr	r3, [pc, #20]	; (8001928 <LL_RCC_PLL_EnableDomain_SYS+0x1c>)
 8001912:	68db      	ldr	r3, [r3, #12]
 8001914:	4a04      	ldr	r2, [pc, #16]	; (8001928 <LL_RCC_PLL_EnableDomain_SYS+0x1c>)
 8001916:	f043 7380 	orr.w	r3, r3, #16777216	; 0x1000000
 800191a:	60d3      	str	r3, [r2, #12]
}
 800191c:	bf00      	nop
 800191e:	46bd      	mov	sp, r7
 8001920:	f85d 7b04 	ldr.w	r7, [sp], #4
 8001924:	4770      	bx	lr
 8001926:	bf00      	nop
 8001928:	40021000 	.word	0x40021000

0800192c <LL_APB1_GRP1_EnableClock>:
  *
  *         (*) value not defined in all devices.
  * @retval None
*/
__STATIC_INLINE void LL_APB1_GRP1_EnableClock(uint32_t Periphs)
{
 800192c:	b480      	push	{r7}
 800192e:	b085      	sub	sp, #20
 8001930:	af00      	add	r7, sp, #0
 8001932:	6078      	str	r0, [r7, #4]
  __IO uint32_t tmpreg;
  SET_BIT(RCC->APB1ENR1, Periphs);
 8001934:	4b08      	ldr	r3, [pc, #32]	; (8001958 <LL_APB1_GRP1_EnableClock+0x2c>)
 8001936:	6d9a      	ldr	r2, [r3, #88]	; 0x58
 8001938:	4907      	ldr	r1, [pc, #28]	; (8001958 <LL_APB1_GRP1_EnableClock+0x2c>)
 800193a:	687b      	ldr	r3, [r7, #4]
 800193c:	4313      	orrs	r3, r2
 800193e:	658b      	str	r3, [r1, #88]	; 0x58
  /* Delay after an RCC peripheral clock enabling */
  tmpreg = READ_BIT(RCC->APB1ENR1, Periphs);
 8001940:	4b05      	ldr	r3, [pc, #20]	; (8001958 <LL_APB1_GRP1_EnableClock+0x2c>)
 8001942:	6d9a      	ldr	r2, [r3, #88]	; 0x58
 8001944:	687b      	ldr	r3, [r7, #4]
 8001946:	4013      	ands	r3, r2
 8001948:	60fb      	str	r3, [r7, #12]
  (void)tmpreg;
 800194a:	68fb      	ldr	r3, [r7, #12]
}
 800194c:	bf00      	nop
 800194e:	3714      	adds	r7, #20
 8001950:	46bd      	mov	sp, r7
 8001952:	f85d 7b04 	ldr.w	r7, [sp], #4
 8001956:	4770      	bx	lr
 8001958:	40021000 	.word	0x40021000

0800195c <LL_APB2_GRP1_EnableClock>:
  *
  *         (*) value not defined in all devices.
  * @retval None
*/
__STATIC_INLINE void LL_APB2_GRP1_EnableClock(uint32_t Periphs)
{
 800195c:	b480      	push	{r7}
 800195e:	b085      	sub	sp, #20
 8001960:	af00      	add	r7, sp, #0
 8001962:	6078      	str	r0, [r7, #4]
  __IO uint32_t tmpreg;
  SET_BIT(RCC->APB2ENR, Periphs);
 8001964:	4b08      	ldr	r3, [pc, #32]	; (8001988 <LL_APB2_GRP1_EnableClock+0x2c>)
 8001966:	6e1a      	ldr	r2, [r3, #96]	; 0x60
 8001968:	4907      	ldr	r1, [pc, #28]	; (8001988 <LL_APB2_GRP1_EnableClock+0x2c>)
 800196a:	687b      	ldr	r3, [r7, #4]
 800196c:	4313      	orrs	r3, r2
 800196e:	660b      	str	r3, [r1, #96]	; 0x60
  /* Delay after an RCC peripheral clock enabling */
  tmpreg = READ_BIT(RCC->APB2ENR, Periphs);
 8001970:	4b05      	ldr	r3, [pc, #20]	; (8001988 <LL_APB2_GRP1_EnableClock+0x2c>)
 8001972:	6e1a      	ldr	r2, [r3, #96]	; 0x60
 8001974:	687b      	ldr	r3, [r7, #4]
 8001976:	4013      	ands	r3, r2
 8001978:	60fb      	str	r3, [r7, #12]
  (void)tmpreg;
 800197a:	68fb      	ldr	r3, [r7, #12]
}
 800197c:	bf00      	nop
 800197e:	3714      	adds	r7, #20
 8001980:	46bd      	mov	sp, r7
 8001982:	f85d 7b04 	ldr.w	r7, [sp], #4
 8001986:	4770      	bx	lr
 8001988:	40021000 	.word	0x40021000

0800198c <LL_FLASH_SetLatency>:
  *
  *         (*) value not defined in all devices.
  * @retval None
  */
__STATIC_INLINE void LL_FLASH_SetLatency(uint32_t Latency)
{
 800198c:	b480      	push	{r7}
 800198e:	b083      	sub	sp, #12
 8001990:	af00      	add	r7, sp, #0
 8001992:	6078      	str	r0, [r7, #4]
  MODIFY_REG(FLASH->ACR, FLASH_ACR_LATENCY, Latency);
 8001994:	4b06      	ldr	r3, [pc, #24]	; (80019b0 <LL_FLASH_SetLatency+0x24>)
 8001996:	681b      	ldr	r3, [r3, #0]
 8001998:	f023 0207 	bic.w	r2, r3, #7
 800199c:	4904      	ldr	r1, [pc, #16]	; (80019b0 <LL_FLASH_SetLatency+0x24>)
 800199e:	687b      	ldr	r3, [r7, #4]
 80019a0:	4313      	orrs	r3, r2
 80019a2:	600b      	str	r3, [r1, #0]
}
 80019a4:	bf00      	nop
 80019a6:	370c      	adds	r7, #12
 80019a8:	46bd      	mov	sp, r7
 80019aa:	f85d 7b04 	ldr.w	r7, [sp], #4
 80019ae:	4770      	bx	lr
 80019b0:	40022000 	.word	0x40022000

080019b4 <LL_FLASH_GetLatency>:
  *         @arg @ref LL_FLASH_LATENCY_15 (*)
  *
  *         (*) value not defined in all devices.
  */
__STATIC_INLINE uint32_t LL_FLASH_GetLatency(void)
{
 80019b4:	b480      	push	{r7}
 80019b6:	af00      	add	r7, sp, #0
  return (uint32_t)(READ_BIT(FLASH->ACR, FLASH_ACR_LATENCY));
 80019b8:	4b04      	ldr	r3, [pc, #16]	; (80019cc <LL_FLASH_GetLatency+0x18>)
 80019ba:	681b      	ldr	r3, [r3, #0]
 80019bc:	f003 0307 	and.w	r3, r3, #7
}
 80019c0:	4618      	mov	r0, r3
 80019c2:	46bd      	mov	sp, r7
 80019c4:	f85d 7b04 	ldr.w	r7, [sp], #4
 80019c8:	4770      	bx	lr
 80019ca:	bf00      	nop
 80019cc:	40022000 	.word	0x40022000

080019d0 <LL_SYSTICK_EnableIT>:
  * @brief  Enable SysTick exception request
  * @rmtoll STK_CTRL     TICKINT       LL_SYSTICK_EnableIT
  * @retval None
  */
__STATIC_INLINE void LL_SYSTICK_EnableIT(void)
{
 80019d0:	b480      	push	{r7}
 80019d2:	af00      	add	r7, sp, #0
  SET_BIT(SysTick->CTRL, SysTick_CTRL_TICKINT_Msk);
 80019d4:	4b05      	ldr	r3, [pc, #20]	; (80019ec <LL_SYSTICK_EnableIT+0x1c>)
 80019d6:	681b      	ldr	r3, [r3, #0]
 80019d8:	4a04      	ldr	r2, [pc, #16]	; (80019ec <LL_SYSTICK_EnableIT+0x1c>)
 80019da:	f043 0302 	orr.w	r3, r3, #2
 80019de:	6013      	str	r3, [r2, #0]
}
 80019e0:	bf00      	nop
 80019e2:	46bd      	mov	sp, r7
 80019e4:	f85d 7b04 	ldr.w	r7, [sp], #4
 80019e8:	4770      	bx	lr
 80019ea:	bf00      	nop
 80019ec:	e000e010 	.word	0xe000e010

080019f0 <LL_PWR_SetRegulVoltageScaling>:
  *         @arg @ref LL_PWR_REGU_VOLTAGE_SCALE1
  *         @arg @ref LL_PWR_REGU_VOLTAGE_SCALE2
  * @retval None
  */
__STATIC_INLINE void LL_PWR_SetRegulVoltageScaling(uint32_t VoltageScaling)
{
 80019f0:	b480      	push	{r7}
 80019f2:	b083      	sub	sp, #12
 80019f4:	af00      	add	r7, sp, #0
 80019f6:	6078      	str	r0, [r7, #4]
  MODIFY_REG(PWR->CR1, PWR_CR1_VOS, VoltageScaling);
 80019f8:	4b06      	ldr	r3, [pc, #24]	; (8001a14 <LL_PWR_SetRegulVoltageScaling+0x24>)
 80019fa:	681b      	ldr	r3, [r3, #0]
 80019fc:	f423 62c0 	bic.w	r2, r3, #1536	; 0x600
 8001a00:	4904      	ldr	r1, [pc, #16]	; (8001a14 <LL_PWR_SetRegulVoltageScaling+0x24>)
 8001a02:	687b      	ldr	r3, [r7, #4]
 8001a04:	4313      	orrs	r3, r2
 8001a06:	600b      	str	r3, [r1, #0]
}
 8001a08:	bf00      	nop
 8001a0a:	370c      	adds	r7, #12
 8001a0c:	46bd      	mov	sp, r7
 8001a0e:	f85d 7b04 	ldr.w	r7, [sp], #4
 8001a12:	4770      	bx	lr
 8001a14:	40007000 	.word	0x40007000

08001a18 <LL_PWR_EnableBkUpAccess>:
  * @brief  Enable access to the backup domain
  * @rmtoll CR1          DBP           LL_PWR_EnableBkUpAccess
  * @retval None
  */
__STATIC_INLINE void LL_PWR_EnableBkUpAccess(void)
{
 8001a18:	b480      	push	{r7}
 8001a1a:	af00      	add	r7, sp, #0
  SET_BIT(PWR->CR1, PWR_CR1_DBP);
 8001a1c:	4b05      	ldr	r3, [pc, #20]	; (8001a34 <LL_PWR_EnableBkUpAccess+0x1c>)
 8001a1e:	681b      	ldr	r3, [r3, #0]
 8001a20:	4a04      	ldr	r2, [pc, #16]	; (8001a34 <LL_PWR_EnableBkUpAccess+0x1c>)
 8001a22:	f443 7380 	orr.w	r3, r3, #256	; 0x100
 8001a26:	6013      	str	r3, [r2, #0]
}
 8001a28:	bf00      	nop
 8001a2a:	46bd      	mov	sp, r7
 8001a2c:	f85d 7b04 	ldr.w	r7, [sp], #4
 8001a30:	4770      	bx	lr
 8001a32:	bf00      	nop
 8001a34:	40007000 	.word	0x40007000

08001a38 <LL_SPI_Enable>:
  * @rmtoll CR1          SPE           LL_SPI_Enable
  * @param  SPIx SPI Instance
  * @retval None
  */
__STATIC_INLINE void LL_SPI_Enable(SPI_TypeDef *SPIx)
{
 8001a38:	b480      	push	{r7}
 8001a3a:	b083      	sub	sp, #12
 8001a3c:	af00      	add	r7, sp, #0
 8001a3e:	6078      	str	r0, [r7, #4]
  SET_BIT(SPIx->CR1, SPI_CR1_SPE);
 8001a40:	687b      	ldr	r3, [r7, #4]
 8001a42:	681b      	ldr	r3, [r3, #0]
 8001a44:	f043 0240 	orr.w	r2, r3, #64	; 0x40
 8001a48:	687b      	ldr	r3, [r7, #4]
 8001a4a:	601a      	str	r2, [r3, #0]
}
 8001a4c:	bf00      	nop
 8001a4e:	370c      	adds	r7, #12
 8001a50:	46bd      	mov	sp, r7
 8001a52:	f85d 7b04 	ldr.w	r7, [sp], #4
 8001a56:	4770      	bx	lr

08001a58 <main>:
/**
  * @brief  The application entry point.
  * @retval int
  */
int main(void)
{
 8001a58:	b580      	push	{r7, lr}
 8001a5a:	b086      	sub	sp, #24
 8001a5c:	af00      	add	r7, sp, #0
  /* USER CODE END 1 */

  /* MCU Configuration--------------------------------------------------------*/

  /* Reset of all peripherals, Initializes the Flash interface and the Systick. */
  LL_APB2_GRP1_EnableClock(LL_APB2_GRP1_PERIPH_SYSCFG);
 8001a5e:	2001      	movs	r0, #1
 8001a60:	f7ff ff7c 	bl	800195c <LL_APB2_GRP1_EnableClock>
  LL_APB1_GRP1_EnableClock(LL_APB1_GRP1_PERIPH_PWR);
 8001a64:	f04f 5080 	mov.w	r0, #268435456	; 0x10000000
 8001a68:	f7ff ff60 	bl	800192c <LL_APB1_GRP1_EnableClock>

  /* System interrupt init*/
  NVIC_SetPriorityGrouping(NVIC_PRIORITYGROUP_4);
 8001a6c:	2003      	movs	r0, #3
 8001a6e:	f7ff fd85 	bl	800157c <__NVIC_SetPriorityGrouping>
  /* USER CODE BEGIN Init */

  /* USER CODE END Init */

  /* Configure the system clock */
  SystemClock_Config();
 8001a72:	f000 f87f 	bl	8001b74 <SystemClock_Config>
  /* USER CODE BEGIN SysInit */

  /* USER CODE END SysInit */

  /* Initialize all configured peripherals */
  MX_GPIO_Init();
 8001a76:	f7ff fb77 	bl	8001168 <MX_GPIO_Init>
  MX_USART2_UART_Init();
 8001a7a:	f001 fc65 	bl	8003348 <MX_USART2_UART_Init>
  MX_SPI1_Init();
 8001a7e:	f001 fa6f 	bl	8002f60 <MX_SPI1_Init>
  MX_LPTIM2_Init();
 8001a82:	f7ff fd43 	bl	800150c <MX_LPTIM2_Init>
  MX_SPI2_Init();
 8001a86:	f001 fac1 	bl	800300c <MX_SPI2_Init>
  MX_ADC2_Init();
 8001a8a:	f7ff f9f3 	bl	8000e74 <MX_ADC2_Init>
  MX_ADC1_Init();
 8001a8e:	f7ff f94b 	bl	8000d28 <MX_ADC1_Init>
/*******************************************************************************
* USER DEFINITIONS
*******************************************************************************/

	AS5145B_Init_t MagEnc;
	MagEnc.DO_GPIOx = ENC_DO_GPIO_Port;
 8001a92:	4b2f      	ldr	r3, [pc, #188]	; (8001b50 <main+0xf8>)
 8001a94:	603b      	str	r3, [r7, #0]
	MagEnc.CLK_GPIOx = ENC_CLK_GPIO_Port;
 8001a96:	4b2f      	ldr	r3, [pc, #188]	; (8001b54 <main+0xfc>)
 8001a98:	607b      	str	r3, [r7, #4]
	MagEnc.CSn_GPIOx = ENC_CSn_GPIO_Port;
 8001a9a:	4b2d      	ldr	r3, [pc, #180]	; (8001b50 <main+0xf8>)
 8001a9c:	60bb      	str	r3, [r7, #8]
	MagEnc.DO_Pin = ENC_DO_Pin;
 8001a9e:	2380      	movs	r3, #128	; 0x80
 8001aa0:	81bb      	strh	r3, [r7, #12]
	MagEnc.CLK_Pin = ENC_CLK_Pin;
 8001aa2:	2380      	movs	r3, #128	; 0x80
 8001aa4:	81fb      	strh	r3, [r7, #14]
	MagEnc.CSn_Pin = ENC_CSn_Pin;
 8001aa6:	2340      	movs	r3, #64	; 0x40
 8001aa8:	823b      	strh	r3, [r7, #16]

/*******************************************************************************
* USER INITIALIZATIONS
*******************************************************************************/

	LL_SYSTICK_EnableIT();
 8001aaa:	f7ff ff91 	bl	80019d0 <LL_SYSTICK_EnableIT>

	LL_LPTIM_Enable(LPTIM2);
 8001aae:	482a      	ldr	r0, [pc, #168]	; (8001b58 <main+0x100>)
 8001ab0:	f7ff fd9c 	bl	80015ec <LL_LPTIM_Enable>
	LL_LPTIM_EnableIT_ARRM(LPTIM2);
 8001ab4:	4828      	ldr	r0, [pc, #160]	; (8001b58 <main+0x100>)
 8001ab6:	f7ff fdcf 	bl	8001658 <LL_LPTIM_EnableIT_ARRM>
	LL_LPTIM_SetAutoReload(LPTIM2, LPTIM2_PERIOD);
 8001aba:	213f      	movs	r1, #63	; 0x3f
 8001abc:	4826      	ldr	r0, [pc, #152]	; (8001b58 <main+0x100>)
 8001abe:	f7ff fdb8 	bl	8001632 <LL_LPTIM_SetAutoReload>
	LL_LPTIM_StartCounter(LPTIM2, LL_LPTIM_OPERATING_MODE_CONTINUOUS);
 8001ac2:	2104      	movs	r1, #4
 8001ac4:	4824      	ldr	r0, [pc, #144]	; (8001b58 <main+0x100>)
 8001ac6:	f7ff fda1 	bl	800160c <LL_LPTIM_StartCounter>

	LL_SPI_Enable(SPI1);
 8001aca:	4824      	ldr	r0, [pc, #144]	; (8001b5c <main+0x104>)
 8001acc:	f7ff ffb4 	bl	8001a38 <LL_SPI_Enable>
	LL_SPI_Enable(SPI2);
 8001ad0:	4823      	ldr	r0, [pc, #140]	; (8001b60 <main+0x108>)
 8001ad2:	f7ff ffb1 	bl	8001a38 <LL_SPI_Enable>
	LL_ADC_Enable(ADC1);
 8001ad6:	4823      	ldr	r0, [pc, #140]	; (8001b64 <main+0x10c>)
 8001ad8:	f7ff fd74 	bl	80015c4 <LL_ADC_Enable>
	LL_ADC_Enable(ADC2);
 8001adc:	4822      	ldr	r0, [pc, #136]	; (8001b68 <main+0x110>)
 8001ade:	f7ff fd71 	bl	80015c4 <LL_ADC_Enable>

	if(MPU925x_Init(SPI1, IMU_CS_GPIO_Port, IMU_CS_Pin))
 8001ae2:	f44f 7280 	mov.w	r2, #256	; 0x100
 8001ae6:	f04f 4190 	mov.w	r1, #1207959552	; 0x48000000
 8001aea:	481c      	ldr	r0, [pc, #112]	; (8001b5c <main+0x104>)
 8001aec:	f002 f934 	bl	8003d58 <MPU925x_Init>
 8001af0:	4603      	mov	r3, r0
 8001af2:	2b00      	cmp	r3, #0
 8001af4:	d001      	beq.n	8001afa <main+0xa2>
		Error_Handler();
 8001af6:	f000 f89b 	bl	8001c30 <Error_Handler>
	MPU925x_SetAccelSensitivity(mpu925x_accelSensitivity_8g);
 8001afa:	2002      	movs	r0, #2
 8001afc:	f002 f952 	bl	8003da4 <MPU925x_SetAccelSensitivity>
	MPU925x_SetGyroSensitivity(mpu925x_gyroSensitivity_1000dps);
 8001b00:	2002      	movs	r0, #2
 8001b02:	f002 f9cb 	bl	8003e9c <MPU925x_SetGyroSensitivity>

	CAN_configure();
 8001b06:	f002 f89f 	bl	8003c48 <CAN_configure>
	EPOS4_SetCSTMode(CAN_ID);
 8001b0a:	4b18      	ldr	r3, [pc, #96]	; (8001b6c <main+0x114>)
 8001b0c:	881b      	ldrh	r3, [r3, #0]
 8001b0e:	4618      	mov	r0, r3
 8001b10:	f001 fdc9 	bl	80036a6 <EPOS4_SetCSTMode>
	AS5145B_Init(&MagEnc);
 8001b14:	463b      	mov	r3, r7
 8001b16:	4618      	mov	r0, r3
 8001b18:	f001 fcc4 	bl	80034a4 <AS5145B_Init>

	InitProsthesisControl();
 8001b1c:	f000 f8ce 	bl	8001cbc <InitProsthesisControl>

	// Remove spikes from beginning
	for(uint16_t i = 0; i < 1000; i++);
 8001b20:	2300      	movs	r3, #0
 8001b22:	82fb      	strh	r3, [r7, #22]
 8001b24:	e002      	b.n	8001b2c <main+0xd4>
 8001b26:	8afb      	ldrh	r3, [r7, #22]
 8001b28:	3301      	adds	r3, #1
 8001b2a:	82fb      	strh	r3, [r7, #22]
 8001b2c:	8afb      	ldrh	r3, [r7, #22]
 8001b2e:	f5b3 7f7a 	cmp.w	r3, #1000	; 0x3e8
 8001b32:	d3f8      	bcc.n	8001b26 <main+0xce>

/*******************************************************************************
* USER TEST PROGRAMS
*******************************************************************************/

	RequireTestProgram(None);
 8001b34:	2000      	movs	r0, #0
 8001b36:	f000 f909 	bl	8001d4c <RequireTestProgram>
* USER MAIN LOOP
*******************************************************************************/

  while(1)
  {
	  if (isProsthesisControlRequired)
 8001b3a:	4b0d      	ldr	r3, [pc, #52]	; (8001b70 <main+0x118>)
 8001b3c:	781b      	ldrb	r3, [r3, #0]
 8001b3e:	2b00      	cmp	r3, #0
 8001b40:	d0fb      	beq.n	8001b3a <main+0xe2>
	  {
		  RunProsthesisControl();
 8001b42:	f000 f91d 	bl	8001d80 <RunProsthesisControl>
		  isProsthesisControlRequired = 0;
 8001b46:	4b0a      	ldr	r3, [pc, #40]	; (8001b70 <main+0x118>)
 8001b48:	2200      	movs	r2, #0
 8001b4a:	701a      	strb	r2, [r3, #0]
	  if (isProsthesisControlRequired)
 8001b4c:	e7f5      	b.n	8001b3a <main+0xe2>
 8001b4e:	bf00      	nop
 8001b50:	48000800 	.word	0x48000800
 8001b54:	48000400 	.word	0x48000400
 8001b58:	40009400 	.word	0x40009400
 8001b5c:	40013000 	.word	0x40013000
 8001b60:	40003800 	.word	0x40003800
 8001b64:	50040000 	.word	0x50040000
 8001b68:	50040100 	.word	0x50040100
 8001b6c:	20000000 	.word	0x20000000
 8001b70:	2000009c 	.word	0x2000009c

08001b74 <SystemClock_Config>:
/**
  * @brief System Clock Configuration
  * @retval None
  */
void SystemClock_Config(void)
{
 8001b74:	b580      	push	{r7, lr}
 8001b76:	af00      	add	r7, sp, #0
  LL_FLASH_SetLatency(LL_FLASH_LATENCY_4);
 8001b78:	2004      	movs	r0, #4
 8001b7a:	f7ff ff07 	bl	800198c <LL_FLASH_SetLatency>
  while(LL_FLASH_GetLatency()!= LL_FLASH_LATENCY_4)
 8001b7e:	bf00      	nop
 8001b80:	f7ff ff18 	bl	80019b4 <LL_FLASH_GetLatency>
 8001b84:	4603      	mov	r3, r0
 8001b86:	2b04      	cmp	r3, #4
 8001b88:	d1fa      	bne.n	8001b80 <SystemClock_Config+0xc>
  {
  }
  LL_PWR_SetRegulVoltageScaling(LL_PWR_REGU_VOLTAGE_SCALE1);
 8001b8a:	f44f 7000 	mov.w	r0, #512	; 0x200
 8001b8e:	f7ff ff2f 	bl	80019f0 <LL_PWR_SetRegulVoltageScaling>
  LL_RCC_MSI_Enable();
 8001b92:	f7ff fdad 	bl	80016f0 <LL_RCC_MSI_Enable>

   /* Wait till MSI is ready */
  while(LL_RCC_MSI_IsReady() != 1)
 8001b96:	bf00      	nop
 8001b98:	f7ff fdba 	bl	8001710 <LL_RCC_MSI_IsReady>
 8001b9c:	4603      	mov	r3, r0
 8001b9e:	2b01      	cmp	r3, #1
 8001ba0:	d1fa      	bne.n	8001b98 <SystemClock_Config+0x24>
  {

  }
  LL_RCC_MSI_EnableRangeSelection();
 8001ba2:	f7ff fdd7 	bl	8001754 <LL_RCC_MSI_EnableRangeSelection>
  LL_RCC_MSI_SetRange(LL_RCC_MSIRANGE_11);
 8001ba6:	20b0      	movs	r0, #176	; 0xb0
 8001ba8:	f7ff fde4 	bl	8001774 <LL_RCC_MSI_SetRange>
  LL_RCC_MSI_SetCalibTrimming(0);
 8001bac:	2000      	movs	r0, #0
 8001bae:	f7ff fdf5 	bl	800179c <LL_RCC_MSI_SetCalibTrimming>
  LL_PWR_EnableBkUpAccess();
 8001bb2:	f7ff ff31 	bl	8001a18 <LL_PWR_EnableBkUpAccess>
  LL_RCC_LSE_SetDriveCapability(LL_RCC_LSEDRIVE_LOW);
 8001bb6:	2000      	movs	r0, #0
 8001bb8:	f7ff fd70 	bl	800169c <LL_RCC_LSE_SetDriveCapability>
  LL_RCC_LSE_Enable();
 8001bbc:	f7ff fd5c 	bl	8001678 <LL_RCC_LSE_Enable>

   /* Wait till LSE is ready */
  while(LL_RCC_LSE_IsReady() != 1)
 8001bc0:	bf00      	nop
 8001bc2:	f7ff fd81 	bl	80016c8 <LL_RCC_LSE_IsReady>
 8001bc6:	4603      	mov	r3, r0
 8001bc8:	2b01      	cmp	r3, #1
 8001bca:	d1fa      	bne.n	8001bc2 <SystemClock_Config+0x4e>
  {

  }
  LL_RCC_MSI_EnablePLLMode();
 8001bcc:	f7ff fdb2 	bl	8001734 <LL_RCC_MSI_EnablePLLMode>
  LL_RCC_PLL_ConfigDomain_SYS(LL_RCC_PLLSOURCE_MSI, LL_RCC_PLLM_DIV_6, 40, LL_RCC_PLLR_DIV_4);
 8001bd0:	f04f 7300 	mov.w	r3, #33554432	; 0x2000000
 8001bd4:	2228      	movs	r2, #40	; 0x28
 8001bd6:	2150      	movs	r1, #80	; 0x50
 8001bd8:	2001      	movs	r0, #1
 8001bda:	f7ff fe77 	bl	80018cc <LL_RCC_PLL_ConfigDomain_SYS>
  LL_RCC_PLL_EnableDomain_SYS();
 8001bde:	f7ff fe95 	bl	800190c <LL_RCC_PLL_EnableDomain_SYS>
  LL_RCC_PLL_Enable();
 8001be2:	f7ff fe4f 	bl	8001884 <LL_RCC_PLL_Enable>

   /* Wait till PLL is ready */
  while(LL_RCC_PLL_IsReady() != 1)
 8001be6:	bf00      	nop
 8001be8:	f7ff fe5c 	bl	80018a4 <LL_RCC_PLL_IsReady>
 8001bec:	4603      	mov	r3, r0
 8001bee:	2b01      	cmp	r3, #1
 8001bf0:	d1fa      	bne.n	8001be8 <SystemClock_Config+0x74>
  {

  }
  LL_RCC_SetSysClkSource(LL_RCC_SYS_CLKSOURCE_PLL);
 8001bf2:	2003      	movs	r0, #3
 8001bf4:	f7ff fde8 	bl	80017c8 <LL_RCC_SetSysClkSource>

   /* Wait till System clock is ready */
  while(LL_RCC_GetSysClkSource() != LL_RCC_SYS_CLKSOURCE_STATUS_PLL)
 8001bf8:	bf00      	nop
 8001bfa:	f7ff fdf9 	bl	80017f0 <LL_RCC_GetSysClkSource>
 8001bfe:	4603      	mov	r3, r0
 8001c00:	2b0c      	cmp	r3, #12
 8001c02:	d1fa      	bne.n	8001bfa <SystemClock_Config+0x86>
  {

  }
  LL_RCC_SetAHBPrescaler(LL_RCC_SYSCLK_DIV_1);
 8001c04:	2000      	movs	r0, #0
 8001c06:	f7ff fe01 	bl	800180c <LL_RCC_SetAHBPrescaler>
  LL_RCC_SetAPB1Prescaler(LL_RCC_APB1_DIV_2);
 8001c0a:	f44f 6080 	mov.w	r0, #1024	; 0x400
 8001c0e:	f7ff fe11 	bl	8001834 <LL_RCC_SetAPB1Prescaler>
  LL_RCC_SetAPB2Prescaler(LL_RCC_APB2_DIV_2);
 8001c12:	f44f 5000 	mov.w	r0, #8192	; 0x2000
 8001c16:	f7ff fe21 	bl	800185c <LL_RCC_SetAPB2Prescaler>

  LL_Init1msTick(80000000);
 8001c1a:	4804      	ldr	r0, [pc, #16]	; (8001c2c <SystemClock_Config+0xb8>)
 8001c1c:	f003 fd54 	bl	80056c8 <LL_Init1msTick>

  LL_SetSystemCoreClock(80000000);
 8001c20:	4802      	ldr	r0, [pc, #8]	; (8001c2c <SystemClock_Config+0xb8>)
 8001c22:	f003 fd87 	bl	8005734 <LL_SetSystemCoreClock>
}
 8001c26:	bf00      	nop
 8001c28:	bd80      	pop	{r7, pc}
 8001c2a:	bf00      	nop
 8001c2c:	04c4b400 	.word	0x04c4b400

08001c30 <Error_Handler>:
/**
  * @brief  This function is executed in case of error occurrence.
  * @retval None
  */
void Error_Handler(void)
{
 8001c30:	b480      	push	{r7}
 8001c32:	af00      	add	r7, sp, #0
  \details Disables IRQ interrupts by setting the I-bit in the CPSR.
           Can only be executed in Privileged modes.
 */
__STATIC_FORCEINLINE void __disable_irq(void)
{
  __ASM volatile ("cpsid i" : : : "memory");
 8001c34:	b672      	cpsid	i
}
 8001c36:	bf00      	nop
  /* USER CODE BEGIN Error_Handler_Debug */
  /* User can add his own implementation to report the HAL error return state */
  __disable_irq();
  while (1)
 8001c38:	e7fe      	b.n	8001c38 <Error_Handler+0x8>

08001c3a <LL_ADC_REG_StartConversion>:
  * @rmtoll CR       ADSTART        LL_ADC_REG_StartConversion
  * @param  ADCx ADC instance
  * @retval None
  */
__STATIC_INLINE void LL_ADC_REG_StartConversion(ADC_TypeDef *ADCx)
{
 8001c3a:	b480      	push	{r7}
 8001c3c:	b083      	sub	sp, #12
 8001c3e:	af00      	add	r7, sp, #0
 8001c40:	6078      	str	r0, [r7, #4]
  /* Note: Write register with some additional bits forced to state reset     */
  /*       instead of modifying only the selected bit for this function,      */
  /*       to not interfere with bits with HW property "rs".                  */
  MODIFY_REG(ADCx->CR,
 8001c42:	687b      	ldr	r3, [r7, #4]
 8001c44:	689b      	ldr	r3, [r3, #8]
 8001c46:	f023 4300 	bic.w	r3, r3, #2147483648	; 0x80000000
 8001c4a:	f023 033f 	bic.w	r3, r3, #63	; 0x3f
 8001c4e:	f043 0204 	orr.w	r2, r3, #4
 8001c52:	687b      	ldr	r3, [r7, #4]
 8001c54:	609a      	str	r2, [r3, #8]
             ADC_CR_BITS_PROPERTY_RS,
             ADC_CR_ADSTART);
}
 8001c56:	bf00      	nop
 8001c58:	370c      	adds	r7, #12
 8001c5a:	46bd      	mov	sp, r7
 8001c5c:	f85d 7b04 	ldr.w	r7, [sp], #4
 8001c60:	4770      	bx	lr

08001c62 <LL_ADC_REG_ReadConversionData12>:
  * @rmtoll DR       RDATA          LL_ADC_REG_ReadConversionData12
  * @param  ADCx ADC instance
  * @retval Value between Min_Data=0x000 and Max_Data=0xFFF
  */
__STATIC_INLINE uint16_t LL_ADC_REG_ReadConversionData12(ADC_TypeDef *ADCx)
{
 8001c62:	b480      	push	{r7}
 8001c64:	b083      	sub	sp, #12
 8001c66:	af00      	add	r7, sp, #0
 8001c68:	6078      	str	r0, [r7, #4]
  return (uint16_t)(READ_BIT(ADCx->DR, ADC_DR_RDATA));
 8001c6a:	687b      	ldr	r3, [r7, #4]
 8001c6c:	6c1b      	ldr	r3, [r3, #64]	; 0x40
 8001c6e:	b29b      	uxth	r3, r3
}
 8001c70:	4618      	mov	r0, r3
 8001c72:	370c      	adds	r7, #12
 8001c74:	46bd      	mov	sp, r7
 8001c76:	f85d 7b04 	ldr.w	r7, [sp], #4
 8001c7a:	4770      	bx	lr

08001c7c <LL_ADC_IsActiveFlag_EOC>:
  * @rmtoll ISR      EOC            LL_ADC_IsActiveFlag_EOC
  * @param  ADCx ADC instance
  * @retval State of bit (1 or 0).
  */
__STATIC_INLINE uint32_t LL_ADC_IsActiveFlag_EOC(ADC_TypeDef *ADCx)
{
 8001c7c:	b480      	push	{r7}
 8001c7e:	b083      	sub	sp, #12
 8001c80:	af00      	add	r7, sp, #0
 8001c82:	6078      	str	r0, [r7, #4]
  return ((READ_BIT(ADCx->ISR, ADC_ISR_EOC) == (ADC_ISR_EOC)) ? 1UL : 0UL);
 8001c84:	687b      	ldr	r3, [r7, #4]
 8001c86:	681b      	ldr	r3, [r3, #0]
 8001c88:	f003 0304 	and.w	r3, r3, #4
 8001c8c:	2b04      	cmp	r3, #4
 8001c8e:	d101      	bne.n	8001c94 <LL_ADC_IsActiveFlag_EOC+0x18>
 8001c90:	2301      	movs	r3, #1
 8001c92:	e000      	b.n	8001c96 <LL_ADC_IsActiveFlag_EOC+0x1a>
 8001c94:	2300      	movs	r3, #0
}
 8001c96:	4618      	mov	r0, r3
 8001c98:	370c      	adds	r7, #12
 8001c9a:	46bd      	mov	sp, r7
 8001c9c:	f85d 7b04 	ldr.w	r7, [sp], #4
 8001ca0:	4770      	bx	lr

08001ca2 <LL_ADC_ClearFlag_EOC>:
  * @rmtoll ISR      EOC            LL_ADC_ClearFlag_EOC
  * @param  ADCx ADC instance
  * @retval None
  */
__STATIC_INLINE void LL_ADC_ClearFlag_EOC(ADC_TypeDef *ADCx)
{
 8001ca2:	b480      	push	{r7}
 8001ca4:	b083      	sub	sp, #12
 8001ca6:	af00      	add	r7, sp, #0
 8001ca8:	6078      	str	r0, [r7, #4]
  WRITE_REG(ADCx->ISR, LL_ADC_FLAG_EOC);
 8001caa:	687b      	ldr	r3, [r7, #4]
 8001cac:	2204      	movs	r2, #4
 8001cae:	601a      	str	r2, [r3, #0]
}
 8001cb0:	bf00      	nop
 8001cb2:	370c      	adds	r7, #12
 8001cb4:	46bd      	mov	sp, r7
 8001cb6:	f85d 7b04 	ldr.w	r7, [sp], #4
 8001cba:	4770      	bx	lr

08001cbc <InitProsthesisControl>:
* PUBLIC FUNCTIONS
*******************************************************************************/

// This is to localize variables that are subject to change during testing
void InitProsthesisControl(void)
{
 8001cbc:	b480      	push	{r7}
 8001cbe:	af00      	add	r7, sp, #0
	CM_ImpCtrl.kd = 0.0f;
 8001cc0:	4b1b      	ldr	r3, [pc, #108]	; (8001d30 <InitProsthesisControl+0x74>)
 8001cc2:	f04f 0200 	mov.w	r2, #0
 8001cc6:	605a      	str	r2, [r3, #4]
	CM_ImpCtrl.kp = 0.0f;
 8001cc8:	4b19      	ldr	r3, [pc, #100]	; (8001d30 <InitProsthesisControl+0x74>)
 8001cca:	f04f 0200 	mov.w	r2, #0
 8001cce:	609a      	str	r2, [r3, #8]
	CM_StanceCtrl.eqPoint = 0.0f;		// Vanderbilt = -4.99 deg
 8001cd0:	4b18      	ldr	r3, [pc, #96]	; (8001d34 <InitProsthesisControl+0x78>)
 8001cd2:	f04f 0200 	mov.w	r2, #0
 8001cd6:	601a      	str	r2, [r3, #0]
	CM_StanceCtrl.kd = 0.0f;			// Vanderbilt = 0 N*m/(deg/s)
 8001cd8:	4b16      	ldr	r3, [pc, #88]	; (8001d34 <InitProsthesisControl+0x78>)
 8001cda:	f04f 0200 	mov.w	r2, #0
 8001cde:	605a      	str	r2, [r3, #4]
	CM_StanceCtrl.kp = 0.0f;			// 2.50 used to keep heat down in EPOS, Vanderbilt = 4.97 N*m/deg
 8001ce0:	4b14      	ldr	r3, [pc, #80]	; (8001d34 <InitProsthesisControl+0x78>)
 8001ce2:	f04f 0200 	mov.w	r2, #0
 8001ce6:	609a      	str	r2, [r3, #8]
	CM_SwingFlexCtrl.eqPoint = 0.0f;	// Vanderbilt = -35.0 deg
 8001ce8:	4b13      	ldr	r3, [pc, #76]	; (8001d38 <InitProsthesisControl+0x7c>)
 8001cea:	f04f 0200 	mov.w	r2, #0
 8001cee:	601a      	str	r2, [r3, #0]
	CM_SwingFlexCtrl.kd = 0.0f;			// 0.05 used to get zero overshoot and 0.5 sec settling time, Vanderbilt = 0 N*m/(deg/s)
 8001cf0:	4b11      	ldr	r3, [pc, #68]	; (8001d38 <InitProsthesisControl+0x7c>)
 8001cf2:	f04f 0200 	mov.w	r2, #0
 8001cf6:	605a      	str	r2, [r3, #4]
	CM_SwingFlexCtrl.kp = 0.0f;			// 0.45 on the bench "feels" right, Vanderbilt = 0.65 N*m/deg
 8001cf8:	4b0f      	ldr	r3, [pc, #60]	; (8001d38 <InitProsthesisControl+0x7c>)
 8001cfa:	f04f 0200 	mov.w	r2, #0
 8001cfe:	609a      	str	r2, [r3, #8]
	CM_SwingExtCtrl.eqPoint = 0.f;
 8001d00:	4b0e      	ldr	r3, [pc, #56]	; (8001d3c <InitProsthesisControl+0x80>)
 8001d02:	f04f 0200 	mov.w	r2, #0
 8001d06:	601a      	str	r2, [r3, #0]
	CM_SwingExtCtrl.kd = 0.0f;
 8001d08:	4b0c      	ldr	r3, [pc, #48]	; (8001d3c <InitProsthesisControl+0x80>)
 8001d0a:	f04f 0200 	mov.w	r2, #0
 8001d0e:	605a      	str	r2, [r3, #4]
	CM_SwingExtCtrl.kp = 0.0f;
 8001d10:	4b0a      	ldr	r3, [pc, #40]	; (8001d3c <InitProsthesisControl+0x80>)
 8001d12:	f04f 0200 	mov.w	r2, #0
 8001d16:	609a      	str	r2, [r3, #8]

	CM_lcBot_staticUpperLimit = 2300.0f;
 8001d18:	4b09      	ldr	r3, [pc, #36]	; (8001d40 <InitProsthesisControl+0x84>)
 8001d1a:	4a0a      	ldr	r2, [pc, #40]	; (8001d44 <InitProsthesisControl+0x88>)
 8001d1c:	601a      	str	r2, [r3, #0]
	CM_lcTop_staticUpperLimit = 2300.0f;
 8001d1e:	4b0a      	ldr	r3, [pc, #40]	; (8001d48 <InitProsthesisControl+0x8c>)
 8001d20:	4a08      	ldr	r2, [pc, #32]	; (8001d44 <InitProsthesisControl+0x88>)
 8001d22:	601a      	str	r2, [r3, #0]
}
 8001d24:	bf00      	nop
 8001d26:	46bd      	mov	sp, r7
 8001d28:	f85d 7b04 	ldr.w	r7, [sp], #4
 8001d2c:	4770      	bx	lr
 8001d2e:	bf00      	nop
 8001d30:	20000114 	.word	0x20000114
 8001d34:	20000120 	.word	0x20000120
 8001d38:	2000012c 	.word	0x2000012c
 8001d3c:	20000138 	.word	0x20000138
 8001d40:	2000010c 	.word	0x2000010c
 8001d44:	450fc000 	.word	0x450fc000
 8001d48:	20000110 	.word	0x20000110

08001d4c <RequireTestProgram>:

void RequireTestProgram(enum TestPrograms_e option)
{
 8001d4c:	b480      	push	{r7}
 8001d4e:	b083      	sub	sp, #12
 8001d50:	af00      	add	r7, sp, #0
 8001d52:	4603      	mov	r3, r0
 8001d54:	71fb      	strb	r3, [r7, #7]
	testProgram = option;
 8001d56:	4a08      	ldr	r2, [pc, #32]	; (8001d78 <RequireTestProgram+0x2c>)
 8001d58:	79fb      	ldrb	r3, [r7, #7]
 8001d5a:	7013      	strb	r3, [r2, #0]

	if(testProgram != None)
 8001d5c:	4b06      	ldr	r3, [pc, #24]	; (8001d78 <RequireTestProgram+0x2c>)
 8001d5e:	781b      	ldrb	r3, [r3, #0]
 8001d60:	2b00      	cmp	r3, #0
 8001d62:	d002      	beq.n	8001d6a <RequireTestProgram+0x1e>
		isTestProgramRequired = 1;
 8001d64:	4b05      	ldr	r3, [pc, #20]	; (8001d7c <RequireTestProgram+0x30>)
 8001d66:	2201      	movs	r2, #1
 8001d68:	701a      	strb	r2, [r3, #0]
}
 8001d6a:	bf00      	nop
 8001d6c:	370c      	adds	r7, #12
 8001d6e:	46bd      	mov	sp, r7
 8001d70:	f85d 7b04 	ldr.w	r7, [sp], #4
 8001d74:	4770      	bx	lr
 8001d76:	bf00      	nop
 8001d78:	2000009d 	.word	0x2000009d
 8001d7c:	200000e1 	.word	0x200000e1

08001d80 <RunProsthesisControl>:

void RunProsthesisControl(void)
{
 8001d80:	b580      	push	{r7, lr}
 8001d82:	af00      	add	r7, sp, #0
	GetInputs();
 8001d84:	f000 f828 	bl	8001dd8 <GetInputs>
	ProcessInputs();
 8001d88:	f000 f88e 	bl	8001ea8 <ProcessInputs>

	if(isTestProgramRequired)
 8001d8c:	4b0f      	ldr	r3, [pc, #60]	; (8001dcc <RunProsthesisControl+0x4c>)
 8001d8e:	781b      	ldrb	r3, [r3, #0]
 8001d90:	2b00      	cmp	r3, #0
 8001d92:	d002      	beq.n	8001d9a <RunProsthesisControl+0x1a>
	{
		RunTestProgram();
 8001d94:	f000 ffee 	bl	8002d74 <RunTestProgram>
 8001d98:	e003      	b.n	8001da2 <RunProsthesisControl+0x22>
	}
	else
	{
		RunStateMachine();
 8001d9a:	f000 fec5 	bl	8002b28 <RunStateMachine>
		RunImpedanceControl();
 8001d9e:	f000 ff6f 	bl	8002c80 <RunImpedanceControl>
	}

	// Check for first and second executions, needed for derivatives, filters, etc.
	if(isFirst)
 8001da2:	4b0b      	ldr	r3, [pc, #44]	; (8001dd0 <RunProsthesisControl+0x50>)
 8001da4:	781b      	ldrb	r3, [r3, #0]
 8001da6:	2b00      	cmp	r3, #0
 8001da8:	d006      	beq.n	8001db8 <RunProsthesisControl+0x38>
	{
		isFirst = 0;
 8001daa:	4b09      	ldr	r3, [pc, #36]	; (8001dd0 <RunProsthesisControl+0x50>)
 8001dac:	2200      	movs	r2, #0
 8001dae:	701a      	strb	r2, [r3, #0]
		isSecond = 1;
 8001db0:	4b08      	ldr	r3, [pc, #32]	; (8001dd4 <RunProsthesisControl+0x54>)
 8001db2:	2201      	movs	r2, #1
 8001db4:	701a      	strb	r2, [r3, #0]
	}
	else if(isSecond)
	{
		isSecond = 0;
	}
}
 8001db6:	e006      	b.n	8001dc6 <RunProsthesisControl+0x46>
	else if(isSecond)
 8001db8:	4b06      	ldr	r3, [pc, #24]	; (8001dd4 <RunProsthesisControl+0x54>)
 8001dba:	781b      	ldrb	r3, [r3, #0]
 8001dbc:	2b00      	cmp	r3, #0
 8001dbe:	d002      	beq.n	8001dc6 <RunProsthesisControl+0x46>
		isSecond = 0;
 8001dc0:	4b04      	ldr	r3, [pc, #16]	; (8001dd4 <RunProsthesisControl+0x54>)
 8001dc2:	2200      	movs	r2, #0
 8001dc4:	701a      	strb	r2, [r3, #0]
}
 8001dc6:	bf00      	nop
 8001dc8:	bd80      	pop	{r7, pc}
 8001dca:	bf00      	nop
 8001dcc:	200000e1 	.word	0x200000e1
 8001dd0:	20000008 	.word	0x20000008
 8001dd4:	200000e0 	.word	0x200000e0

08001dd8 <GetInputs>:
/*******************************************************************************
* PRIVATE FUNCTIONS
*******************************************************************************/

void GetInputs(void)
{
 8001dd8:	b5b0      	push	{r4, r5, r7, lr}
 8001dda:	b08c      	sub	sp, #48	; 0x30
 8001ddc:	af00      	add	r7, sp, #0
	CM_jointAngle[0] = AS5145B_ReadPosition_Deg() - encBias;
 8001dde:	f001 fc23 	bl	8003628 <AS5145B_ReadPosition_Deg>
 8001de2:	eeb0 7a40 	vmov.f32	s14, s0
 8001de6:	4b1c      	ldr	r3, [pc, #112]	; (8001e58 <GetInputs+0x80>)
 8001de8:	edd3 7a00 	vldr	s15, [r3]
 8001dec:	ee77 7a67 	vsub.f32	s15, s14, s15
 8001df0:	ee17 0a90 	vmov	r0, s15
 8001df4:	f7fe fb4c 	bl	8000490 <__aeabi_f2d>
 8001df8:	4602      	mov	r2, r0
 8001dfa:	460b      	mov	r3, r1
 8001dfc:	4917      	ldr	r1, [pc, #92]	; (8001e5c <GetInputs+0x84>)
 8001dfe:	e9c1 2300 	strd	r2, r3, [r1]
	CM_LoadCell->bot[0] = ReadLoadCell(ADC2);
 8001e02:	4817      	ldr	r0, [pc, #92]	; (8001e60 <GetInputs+0x88>)
 8001e04:	f000 f834 	bl	8001e70 <ReadLoadCell>
 8001e08:	4603      	mov	r3, r0
 8001e0a:	4618      	mov	r0, r3
 8001e0c:	f7fe fb1e 	bl	800044c <__aeabi_ui2d>
 8001e10:	4602      	mov	r2, r0
 8001e12:	460b      	mov	r3, r1
 8001e14:	4913      	ldr	r1, [pc, #76]	; (8001e64 <GetInputs+0x8c>)
 8001e16:	e9c1 2300 	strd	r2, r3, [r1]
	CM_LoadCell->top[0] = ReadLoadCell(ADC1);
 8001e1a:	4813      	ldr	r0, [pc, #76]	; (8001e68 <GetInputs+0x90>)
 8001e1c:	f000 f828 	bl	8001e70 <ReadLoadCell>
 8001e20:	4603      	mov	r3, r0
 8001e22:	4618      	mov	r0, r3
 8001e24:	f7fe fb12 	bl	800044c <__aeabi_ui2d>
 8001e28:	4602      	mov	r2, r0
 8001e2a:	460b      	mov	r3, r1
 8001e2c:	490d      	ldr	r1, [pc, #52]	; (8001e64 <GetInputs+0x8c>)
 8001e2e:	e9c1 2306 	strd	r2, r3, [r1, #24]
	IMUData = MPU925x_ReadIMU();
 8001e32:	4c0e      	ldr	r4, [pc, #56]	; (8001e6c <GetInputs+0x94>)
 8001e34:	463b      	mov	r3, r7
 8001e36:	4618      	mov	r0, r3
 8001e38:	f002 f8ac 	bl	8003f94 <MPU925x_ReadIMU>
 8001e3c:	4625      	mov	r5, r4
 8001e3e:	463c      	mov	r4, r7
 8001e40:	cc0f      	ldmia	r4!, {r0, r1, r2, r3}
 8001e42:	c50f      	stmia	r5!, {r0, r1, r2, r3}
 8001e44:	cc0f      	ldmia	r4!, {r0, r1, r2, r3}
 8001e46:	c50f      	stmia	r5!, {r0, r1, r2, r3}
 8001e48:	e894 000f 	ldmia.w	r4, {r0, r1, r2, r3}
 8001e4c:	e885 000f 	stmia.w	r5, {r0, r1, r2, r3}
}
 8001e50:	bf00      	nop
 8001e52:	3730      	adds	r7, #48	; 0x30
 8001e54:	46bd      	mov	sp, r7
 8001e56:	bdb0      	pop	{r4, r5, r7, pc}
 8001e58:	2000000c 	.word	0x2000000c
 8001e5c:	200000f0 	.word	0x200000f0
 8001e60:	50040100 	.word	0x50040100
 8001e64:	20000178 	.word	0x20000178
 8001e68:	50040000 	.word	0x50040000
 8001e6c:	200000b0 	.word	0x200000b0

08001e70 <ReadLoadCell>:

// Should be moved to ADC driver??
uint16_t ReadLoadCell(ADC_TypeDef *ADCx)
{
 8001e70:	b580      	push	{r7, lr}
 8001e72:	b084      	sub	sp, #16
 8001e74:	af00      	add	r7, sp, #0
 8001e76:	6078      	str	r0, [r7, #4]
	LL_ADC_REG_StartConversion(ADCx);
 8001e78:	6878      	ldr	r0, [r7, #4]
 8001e7a:	f7ff fede 	bl	8001c3a <LL_ADC_REG_StartConversion>
	while ( !LL_ADC_IsActiveFlag_EOC(ADCx) );
 8001e7e:	bf00      	nop
 8001e80:	6878      	ldr	r0, [r7, #4]
 8001e82:	f7ff fefb 	bl	8001c7c <LL_ADC_IsActiveFlag_EOC>
 8001e86:	4603      	mov	r3, r0
 8001e88:	2b00      	cmp	r3, #0
 8001e8a:	d0f9      	beq.n	8001e80 <ReadLoadCell+0x10>
	LL_ADC_ClearFlag_EOC(ADCx);								// remove this??
 8001e8c:	6878      	ldr	r0, [r7, #4]
 8001e8e:	f7ff ff08 	bl	8001ca2 <LL_ADC_ClearFlag_EOC>
	uint16_t val = LL_ADC_REG_ReadConversionData12(ADCx);	// Change resolution??
 8001e92:	6878      	ldr	r0, [r7, #4]
 8001e94:	f7ff fee5 	bl	8001c62 <LL_ADC_REG_ReadConversionData12>
 8001e98:	4603      	mov	r3, r0
 8001e9a:	81fb      	strh	r3, [r7, #14]
	return val;
 8001e9c:	89fb      	ldrh	r3, [r7, #14]
}
 8001e9e:	4618      	mov	r0, r3
 8001ea0:	3710      	adds	r7, #16
 8001ea2:	46bd      	mov	sp, r7
 8001ea4:	bd80      	pop	{r7, pc}
	...

08001ea8 <ProcessInputs>:

void ProcessInputs(void)
{
 8001ea8:	e92d 43b0 	stmdb	sp!, {r4, r5, r7, r8, r9, lr}
 8001eac:	b082      	sub	sp, #8
 8001eae:	af00      	add	r7, sp, #0
	double tau = 1.0 / (2 * M_PI * 10);		// Time constant for practical differentiator (fc = 10 Hz)
 8001eb0:	a36a      	add	r3, pc, #424	; (adr r3, 800205c <ProcessInputs+0x1b4>)
 8001eb2:	e9d3 2300 	ldrd	r2, r3, [r3]
 8001eb6:	e9c7 2300 	strd	r2, r3, [r7]

	// Derivative of angle and filtering of load cells
	// No derivative of angle (angular speed) on first execution
	// No filtering of load cells on first or second execution
	if(isFirst)
 8001eba:	4b61      	ldr	r3, [pc, #388]	; (8002040 <ProcessInputs+0x198>)
 8001ebc:	781b      	ldrb	r3, [r3, #0]
 8001ebe:	2b00      	cmp	r3, #0
 8001ec0:	d031      	beq.n	8001f26 <ProcessInputs+0x7e>
	{
		CM_jointSpeed = 0.0;
 8001ec2:	4960      	ldr	r1, [pc, #384]	; (8002044 <ProcessInputs+0x19c>)
 8001ec4:	f04f 0200 	mov.w	r2, #0
 8001ec8:	f04f 0300 	mov.w	r3, #0
 8001ecc:	e9c1 2300 	strd	r2, r3, [r1]

		CM_jointAngle[1] = CM_jointAngle[0];
 8001ed0:	4b5d      	ldr	r3, [pc, #372]	; (8002048 <ProcessInputs+0x1a0>)
 8001ed2:	e9d3 2300 	ldrd	r2, r3, [r3]
 8001ed6:	495c      	ldr	r1, [pc, #368]	; (8002048 <ProcessInputs+0x1a0>)
 8001ed8:	e9c1 2302 	strd	r2, r3, [r1, #8]
		CM_LoadCell->bot[2] = CM_LoadCell->bot[0];
 8001edc:	4b5b      	ldr	r3, [pc, #364]	; (800204c <ProcessInputs+0x1a4>)
 8001ede:	e9d3 2300 	ldrd	r2, r3, [r3]
 8001ee2:	495a      	ldr	r1, [pc, #360]	; (800204c <ProcessInputs+0x1a4>)
 8001ee4:	e9c1 2304 	strd	r2, r3, [r1, #16]
		CM_LoadCell->top[2] = CM_LoadCell->top[0];
 8001ee8:	4b58      	ldr	r3, [pc, #352]	; (800204c <ProcessInputs+0x1a4>)
 8001eea:	e9d3 2306 	ldrd	r2, r3, [r3, #24]
 8001eee:	4957      	ldr	r1, [pc, #348]	; (800204c <ProcessInputs+0x1a4>)
 8001ef0:	e9c1 230a 	strd	r2, r3, [r1, #40]	; 0x28
		CM_LoadCell_Filtered->bot[0] = CM_LoadCell->bot[0];
 8001ef4:	4b55      	ldr	r3, [pc, #340]	; (800204c <ProcessInputs+0x1a4>)
 8001ef6:	e9d3 2300 	ldrd	r2, r3, [r3]
 8001efa:	4955      	ldr	r1, [pc, #340]	; (8002050 <ProcessInputs+0x1a8>)
 8001efc:	e9c1 2300 	strd	r2, r3, [r1]
		CM_LoadCell_Filtered->top[0] = CM_LoadCell->top[0];
 8001f00:	4b52      	ldr	r3, [pc, #328]	; (800204c <ProcessInputs+0x1a4>)
 8001f02:	e9d3 2306 	ldrd	r2, r3, [r3, #24]
 8001f06:	4952      	ldr	r1, [pc, #328]	; (8002050 <ProcessInputs+0x1a8>)
 8001f08:	e9c1 2306 	strd	r2, r3, [r1, #24]
		CM_LoadCell_Filtered->bot[2] = CM_LoadCell_Filtered->bot[0];
 8001f0c:	4b50      	ldr	r3, [pc, #320]	; (8002050 <ProcessInputs+0x1a8>)
 8001f0e:	e9d3 2300 	ldrd	r2, r3, [r3]
 8001f12:	494f      	ldr	r1, [pc, #316]	; (8002050 <ProcessInputs+0x1a8>)
 8001f14:	e9c1 2304 	strd	r2, r3, [r1, #16]
		CM_LoadCell_Filtered->top[2] = CM_LoadCell_Filtered->top[0];
 8001f18:	4b4d      	ldr	r3, [pc, #308]	; (8002050 <ProcessInputs+0x1a8>)
 8001f1a:	e9d3 2306 	ldrd	r2, r3, [r3, #24]
 8001f1e:	494c      	ldr	r1, [pc, #304]	; (8002050 <ProcessInputs+0x1a8>)
 8001f20:	e9c1 230a 	strd	r2, r3, [r1, #40]	; 0x28
 8001f24:	e1d8      	b.n	80022d8 <ProcessInputs+0x430>
	}
	else if(isSecond)
 8001f26:	4b4b      	ldr	r3, [pc, #300]	; (8002054 <ProcessInputs+0x1ac>)
 8001f28:	781b      	ldrb	r3, [r3, #0]
 8001f2a:	2b00      	cmp	r3, #0
 8001f2c:	f000 809a 	beq.w	8002064 <ProcessInputs+0x1bc>
	{
		// Practical differentiator (bilinear transformation used)
		CM_jointSpeed = (2*(CM_jointAngle[0] - CM_jointAngle[1]) + (2*tau - dt)*CM_jointSpeed) / (dt + 2*tau);
 8001f30:	4b45      	ldr	r3, [pc, #276]	; (8002048 <ProcessInputs+0x1a0>)
 8001f32:	e9d3 0100 	ldrd	r0, r1, [r3]
 8001f36:	4b44      	ldr	r3, [pc, #272]	; (8002048 <ProcessInputs+0x1a0>)
 8001f38:	e9d3 2302 	ldrd	r2, r3, [r3, #8]
 8001f3c:	f7fe f948 	bl	80001d0 <__aeabi_dsub>
 8001f40:	4602      	mov	r2, r0
 8001f42:	460b      	mov	r3, r1
 8001f44:	4610      	mov	r0, r2
 8001f46:	4619      	mov	r1, r3
 8001f48:	4602      	mov	r2, r0
 8001f4a:	460b      	mov	r3, r1
 8001f4c:	f7fe f942 	bl	80001d4 <__adddf3>
 8001f50:	4602      	mov	r2, r0
 8001f52:	460b      	mov	r3, r1
 8001f54:	4614      	mov	r4, r2
 8001f56:	461d      	mov	r5, r3
 8001f58:	e9d7 0100 	ldrd	r0, r1, [r7]
 8001f5c:	4602      	mov	r2, r0
 8001f5e:	460b      	mov	r3, r1
 8001f60:	f7fe f938 	bl	80001d4 <__adddf3>
 8001f64:	4602      	mov	r2, r0
 8001f66:	460b      	mov	r3, r1
 8001f68:	4690      	mov	r8, r2
 8001f6a:	4699      	mov	r9, r3
 8001f6c:	4b3a      	ldr	r3, [pc, #232]	; (8002058 <ProcessInputs+0x1b0>)
 8001f6e:	681b      	ldr	r3, [r3, #0]
 8001f70:	4618      	mov	r0, r3
 8001f72:	f7fe fa8d 	bl	8000490 <__aeabi_f2d>
 8001f76:	4602      	mov	r2, r0
 8001f78:	460b      	mov	r3, r1
 8001f7a:	4640      	mov	r0, r8
 8001f7c:	4649      	mov	r1, r9
 8001f7e:	f7fe f927 	bl	80001d0 <__aeabi_dsub>
 8001f82:	4602      	mov	r2, r0
 8001f84:	460b      	mov	r3, r1
 8001f86:	4610      	mov	r0, r2
 8001f88:	4619      	mov	r1, r3
 8001f8a:	4b2e      	ldr	r3, [pc, #184]	; (8002044 <ProcessInputs+0x19c>)
 8001f8c:	e9d3 2300 	ldrd	r2, r3, [r3]
 8001f90:	f7fe fad6 	bl	8000540 <__aeabi_dmul>
 8001f94:	4602      	mov	r2, r0
 8001f96:	460b      	mov	r3, r1
 8001f98:	4620      	mov	r0, r4
 8001f9a:	4629      	mov	r1, r5
 8001f9c:	f7fe f91a 	bl	80001d4 <__adddf3>
 8001fa0:	4602      	mov	r2, r0
 8001fa2:	460b      	mov	r3, r1
 8001fa4:	4690      	mov	r8, r2
 8001fa6:	4699      	mov	r9, r3
 8001fa8:	4b2b      	ldr	r3, [pc, #172]	; (8002058 <ProcessInputs+0x1b0>)
 8001faa:	681b      	ldr	r3, [r3, #0]
 8001fac:	4618      	mov	r0, r3
 8001fae:	f7fe fa6f 	bl	8000490 <__aeabi_f2d>
 8001fb2:	4604      	mov	r4, r0
 8001fb4:	460d      	mov	r5, r1
 8001fb6:	e9d7 0100 	ldrd	r0, r1, [r7]
 8001fba:	4602      	mov	r2, r0
 8001fbc:	460b      	mov	r3, r1
 8001fbe:	f7fe f909 	bl	80001d4 <__adddf3>
 8001fc2:	4602      	mov	r2, r0
 8001fc4:	460b      	mov	r3, r1
 8001fc6:	4620      	mov	r0, r4
 8001fc8:	4629      	mov	r1, r5
 8001fca:	f7fe f903 	bl	80001d4 <__adddf3>
 8001fce:	4602      	mov	r2, r0
 8001fd0:	460b      	mov	r3, r1
 8001fd2:	4640      	mov	r0, r8
 8001fd4:	4649      	mov	r1, r9
 8001fd6:	f7fe fbdd 	bl	8000794 <__aeabi_ddiv>
 8001fda:	4602      	mov	r2, r0
 8001fdc:	460b      	mov	r3, r1
 8001fde:	4919      	ldr	r1, [pc, #100]	; (8002044 <ProcessInputs+0x19c>)
 8001fe0:	e9c1 2300 	strd	r2, r3, [r1]

		CM_jointAngle[1] = CM_jointAngle[0];
 8001fe4:	4b18      	ldr	r3, [pc, #96]	; (8002048 <ProcessInputs+0x1a0>)
 8001fe6:	e9d3 2300 	ldrd	r2, r3, [r3]
 8001fea:	4917      	ldr	r1, [pc, #92]	; (8002048 <ProcessInputs+0x1a0>)
 8001fec:	e9c1 2302 	strd	r2, r3, [r1, #8]
		CM_LoadCell->bot[1] = CM_LoadCell->bot[0];
 8001ff0:	4b16      	ldr	r3, [pc, #88]	; (800204c <ProcessInputs+0x1a4>)
 8001ff2:	e9d3 2300 	ldrd	r2, r3, [r3]
 8001ff6:	4915      	ldr	r1, [pc, #84]	; (800204c <ProcessInputs+0x1a4>)
 8001ff8:	e9c1 2302 	strd	r2, r3, [r1, #8]
		CM_LoadCell->top[1] = CM_LoadCell->top[0];
 8001ffc:	4b13      	ldr	r3, [pc, #76]	; (800204c <ProcessInputs+0x1a4>)
 8001ffe:	e9d3 2306 	ldrd	r2, r3, [r3, #24]
 8002002:	4912      	ldr	r1, [pc, #72]	; (800204c <ProcessInputs+0x1a4>)
 8002004:	e9c1 2308 	strd	r2, r3, [r1, #32]
		CM_LoadCell_Filtered->bot[0] = CM_LoadCell->bot[0];
 8002008:	4b10      	ldr	r3, [pc, #64]	; (800204c <ProcessInputs+0x1a4>)
 800200a:	e9d3 2300 	ldrd	r2, r3, [r3]
 800200e:	4910      	ldr	r1, [pc, #64]	; (8002050 <ProcessInputs+0x1a8>)
 8002010:	e9c1 2300 	strd	r2, r3, [r1]
		CM_LoadCell_Filtered->top[0] = CM_LoadCell->top[0];
 8002014:	4b0d      	ldr	r3, [pc, #52]	; (800204c <ProcessInputs+0x1a4>)
 8002016:	e9d3 2306 	ldrd	r2, r3, [r3, #24]
 800201a:	490d      	ldr	r1, [pc, #52]	; (8002050 <ProcessInputs+0x1a8>)
 800201c:	e9c1 2306 	strd	r2, r3, [r1, #24]
		CM_LoadCell_Filtered->bot[1] = CM_LoadCell_Filtered->bot[0];
 8002020:	4b0b      	ldr	r3, [pc, #44]	; (8002050 <ProcessInputs+0x1a8>)
 8002022:	e9d3 2300 	ldrd	r2, r3, [r3]
 8002026:	490a      	ldr	r1, [pc, #40]	; (8002050 <ProcessInputs+0x1a8>)
 8002028:	e9c1 2302 	strd	r2, r3, [r1, #8]
		CM_LoadCell_Filtered->top[1] = CM_LoadCell_Filtered->top[0];
 800202c:	4b08      	ldr	r3, [pc, #32]	; (8002050 <ProcessInputs+0x1a8>)
 800202e:	e9d3 2306 	ldrd	r2, r3, [r3, #24]
 8002032:	4907      	ldr	r1, [pc, #28]	; (8002050 <ProcessInputs+0x1a8>)
 8002034:	e9c1 2308 	strd	r2, r3, [r1, #32]
 8002038:	e14e      	b.n	80022d8 <ProcessInputs+0x430>
 800203a:	bf00      	nop
 800203c:	f3af 8000 	nop.w
 8002040:	20000008 	.word	0x20000008
 8002044:	20000100 	.word	0x20000100
 8002048:	200000f0 	.word	0x200000f0
 800204c:	20000178 	.word	0x20000178
 8002050:	20000208 	.word	0x20000208
 8002054:	200000e0 	.word	0x200000e0
 8002058:	20000004 	.word	0x20000004
 800205c:	be3b06cf 	.word	0xbe3b06cf
 8002060:	3f904c26 	.word	0x3f904c26
	}
	else
	{
		// Practical differentiator (bilinear transformation used)
		CM_jointSpeed = (2*(CM_jointAngle[0] - CM_jointAngle[1]) + (2*tau - dt)*CM_jointSpeed) / (dt + 2*tau);
 8002064:	4baa      	ldr	r3, [pc, #680]	; (8002310 <ProcessInputs+0x468>)
 8002066:	e9d3 0100 	ldrd	r0, r1, [r3]
 800206a:	4ba9      	ldr	r3, [pc, #676]	; (8002310 <ProcessInputs+0x468>)
 800206c:	e9d3 2302 	ldrd	r2, r3, [r3, #8]
 8002070:	f7fe f8ae 	bl	80001d0 <__aeabi_dsub>
 8002074:	4602      	mov	r2, r0
 8002076:	460b      	mov	r3, r1
 8002078:	4610      	mov	r0, r2
 800207a:	4619      	mov	r1, r3
 800207c:	4602      	mov	r2, r0
 800207e:	460b      	mov	r3, r1
 8002080:	f7fe f8a8 	bl	80001d4 <__adddf3>
 8002084:	4602      	mov	r2, r0
 8002086:	460b      	mov	r3, r1
 8002088:	4614      	mov	r4, r2
 800208a:	461d      	mov	r5, r3
 800208c:	e9d7 0100 	ldrd	r0, r1, [r7]
 8002090:	4602      	mov	r2, r0
 8002092:	460b      	mov	r3, r1
 8002094:	f7fe f89e 	bl	80001d4 <__adddf3>
 8002098:	4602      	mov	r2, r0
 800209a:	460b      	mov	r3, r1
 800209c:	4690      	mov	r8, r2
 800209e:	4699      	mov	r9, r3
 80020a0:	4b9c      	ldr	r3, [pc, #624]	; (8002314 <ProcessInputs+0x46c>)
 80020a2:	681b      	ldr	r3, [r3, #0]
 80020a4:	4618      	mov	r0, r3
 80020a6:	f7fe f9f3 	bl	8000490 <__aeabi_f2d>
 80020aa:	4602      	mov	r2, r0
 80020ac:	460b      	mov	r3, r1
 80020ae:	4640      	mov	r0, r8
 80020b0:	4649      	mov	r1, r9
 80020b2:	f7fe f88d 	bl	80001d0 <__aeabi_dsub>
 80020b6:	4602      	mov	r2, r0
 80020b8:	460b      	mov	r3, r1
 80020ba:	4610      	mov	r0, r2
 80020bc:	4619      	mov	r1, r3
 80020be:	4b96      	ldr	r3, [pc, #600]	; (8002318 <ProcessInputs+0x470>)
 80020c0:	e9d3 2300 	ldrd	r2, r3, [r3]
 80020c4:	f7fe fa3c 	bl	8000540 <__aeabi_dmul>
 80020c8:	4602      	mov	r2, r0
 80020ca:	460b      	mov	r3, r1
 80020cc:	4620      	mov	r0, r4
 80020ce:	4629      	mov	r1, r5
 80020d0:	f7fe f880 	bl	80001d4 <__adddf3>
 80020d4:	4602      	mov	r2, r0
 80020d6:	460b      	mov	r3, r1
 80020d8:	4690      	mov	r8, r2
 80020da:	4699      	mov	r9, r3
 80020dc:	4b8d      	ldr	r3, [pc, #564]	; (8002314 <ProcessInputs+0x46c>)
 80020de:	681b      	ldr	r3, [r3, #0]
 80020e0:	4618      	mov	r0, r3
 80020e2:	f7fe f9d5 	bl	8000490 <__aeabi_f2d>
 80020e6:	4604      	mov	r4, r0
 80020e8:	460d      	mov	r5, r1
 80020ea:	e9d7 0100 	ldrd	r0, r1, [r7]
 80020ee:	4602      	mov	r2, r0
 80020f0:	460b      	mov	r3, r1
 80020f2:	f7fe f86f 	bl	80001d4 <__adddf3>
 80020f6:	4602      	mov	r2, r0
 80020f8:	460b      	mov	r3, r1
 80020fa:	4620      	mov	r0, r4
 80020fc:	4629      	mov	r1, r5
 80020fe:	f7fe f869 	bl	80001d4 <__adddf3>
 8002102:	4602      	mov	r2, r0
 8002104:	460b      	mov	r3, r1
 8002106:	4640      	mov	r0, r8
 8002108:	4649      	mov	r1, r9
 800210a:	f7fe fb43 	bl	8000794 <__aeabi_ddiv>
 800210e:	4602      	mov	r2, r0
 8002110:	460b      	mov	r3, r1
 8002112:	4981      	ldr	r1, [pc, #516]	; (8002318 <ProcessInputs+0x470>)
 8002114:	e9c1 2300 	strd	r2, r3, [r1]

		// 2nd order low-pass Butterworth (fc = 20 Hz)
		CM_LoadCell_Filtered->bot[0] =   1.6556 * CM_LoadCell_Filtered->bot[1] - 0.7068 * CM_LoadCell_Filtered->bot[2]
 8002118:	4b80      	ldr	r3, [pc, #512]	; (800231c <ProcessInputs+0x474>)
 800211a:	e9d3 0102 	ldrd	r0, r1, [r3, #8]
 800211e:	a374      	add	r3, pc, #464	; (adr r3, 80022f0 <ProcessInputs+0x448>)
 8002120:	e9d3 2300 	ldrd	r2, r3, [r3]
 8002124:	f7fe fa0c 	bl	8000540 <__aeabi_dmul>
 8002128:	4602      	mov	r2, r0
 800212a:	460b      	mov	r3, r1
 800212c:	4614      	mov	r4, r2
 800212e:	461d      	mov	r5, r3
 8002130:	4b7a      	ldr	r3, [pc, #488]	; (800231c <ProcessInputs+0x474>)
 8002132:	e9d3 0104 	ldrd	r0, r1, [r3, #16]
 8002136:	a370      	add	r3, pc, #448	; (adr r3, 80022f8 <ProcessInputs+0x450>)
 8002138:	e9d3 2300 	ldrd	r2, r3, [r3]
 800213c:	f7fe fa00 	bl	8000540 <__aeabi_dmul>
 8002140:	4602      	mov	r2, r0
 8002142:	460b      	mov	r3, r1
 8002144:	4620      	mov	r0, r4
 8002146:	4629      	mov	r1, r5
 8002148:	f7fe f842 	bl	80001d0 <__aeabi_dsub>
 800214c:	4602      	mov	r2, r0
 800214e:	460b      	mov	r3, r1
 8002150:	4614      	mov	r4, r2
 8002152:	461d      	mov	r5, r3
									   + 0.0128 * CM_LoadCell->bot[0] + 0.0256 * CM_LoadCell->bot[1] + 0.0128 * CM_LoadCell->bot[2];
 8002154:	4b72      	ldr	r3, [pc, #456]	; (8002320 <ProcessInputs+0x478>)
 8002156:	e9d3 0100 	ldrd	r0, r1, [r3]
 800215a:	a369      	add	r3, pc, #420	; (adr r3, 8002300 <ProcessInputs+0x458>)
 800215c:	e9d3 2300 	ldrd	r2, r3, [r3]
 8002160:	f7fe f9ee 	bl	8000540 <__aeabi_dmul>
 8002164:	4602      	mov	r2, r0
 8002166:	460b      	mov	r3, r1
 8002168:	4620      	mov	r0, r4
 800216a:	4629      	mov	r1, r5
 800216c:	f7fe f832 	bl	80001d4 <__adddf3>
 8002170:	4602      	mov	r2, r0
 8002172:	460b      	mov	r3, r1
 8002174:	4614      	mov	r4, r2
 8002176:	461d      	mov	r5, r3
 8002178:	4b69      	ldr	r3, [pc, #420]	; (8002320 <ProcessInputs+0x478>)
 800217a:	e9d3 0102 	ldrd	r0, r1, [r3, #8]
 800217e:	a362      	add	r3, pc, #392	; (adr r3, 8002308 <ProcessInputs+0x460>)
 8002180:	e9d3 2300 	ldrd	r2, r3, [r3]
 8002184:	f7fe f9dc 	bl	8000540 <__aeabi_dmul>
 8002188:	4602      	mov	r2, r0
 800218a:	460b      	mov	r3, r1
 800218c:	4620      	mov	r0, r4
 800218e:	4629      	mov	r1, r5
 8002190:	f7fe f820 	bl	80001d4 <__adddf3>
 8002194:	4602      	mov	r2, r0
 8002196:	460b      	mov	r3, r1
 8002198:	4614      	mov	r4, r2
 800219a:	461d      	mov	r5, r3
 800219c:	4b60      	ldr	r3, [pc, #384]	; (8002320 <ProcessInputs+0x478>)
 800219e:	e9d3 0104 	ldrd	r0, r1, [r3, #16]
 80021a2:	a357      	add	r3, pc, #348	; (adr r3, 8002300 <ProcessInputs+0x458>)
 80021a4:	e9d3 2300 	ldrd	r2, r3, [r3]
 80021a8:	f7fe f9ca 	bl	8000540 <__aeabi_dmul>
 80021ac:	4602      	mov	r2, r0
 80021ae:	460b      	mov	r3, r1
 80021b0:	4620      	mov	r0, r4
 80021b2:	4629      	mov	r1, r5
 80021b4:	f7fe f80e 	bl	80001d4 <__adddf3>
 80021b8:	4602      	mov	r2, r0
 80021ba:	460b      	mov	r3, r1
		CM_LoadCell_Filtered->bot[0] =   1.6556 * CM_LoadCell_Filtered->bot[1] - 0.7068 * CM_LoadCell_Filtered->bot[2]
 80021bc:	4957      	ldr	r1, [pc, #348]	; (800231c <ProcessInputs+0x474>)
 80021be:	e9c1 2300 	strd	r2, r3, [r1]
		CM_LoadCell_Filtered->top[0] =   1.6556 * CM_LoadCell_Filtered->top[1] - 0.7068 * CM_LoadCell_Filtered->top[2]
 80021c2:	4b56      	ldr	r3, [pc, #344]	; (800231c <ProcessInputs+0x474>)
 80021c4:	e9d3 0108 	ldrd	r0, r1, [r3, #32]
 80021c8:	a349      	add	r3, pc, #292	; (adr r3, 80022f0 <ProcessInputs+0x448>)
 80021ca:	e9d3 2300 	ldrd	r2, r3, [r3]
 80021ce:	f7fe f9b7 	bl	8000540 <__aeabi_dmul>
 80021d2:	4602      	mov	r2, r0
 80021d4:	460b      	mov	r3, r1
 80021d6:	4614      	mov	r4, r2
 80021d8:	461d      	mov	r5, r3
 80021da:	4b50      	ldr	r3, [pc, #320]	; (800231c <ProcessInputs+0x474>)
 80021dc:	e9d3 010a 	ldrd	r0, r1, [r3, #40]	; 0x28
 80021e0:	a345      	add	r3, pc, #276	; (adr r3, 80022f8 <ProcessInputs+0x450>)
 80021e2:	e9d3 2300 	ldrd	r2, r3, [r3]
 80021e6:	f7fe f9ab 	bl	8000540 <__aeabi_dmul>
 80021ea:	4602      	mov	r2, r0
 80021ec:	460b      	mov	r3, r1
 80021ee:	4620      	mov	r0, r4
 80021f0:	4629      	mov	r1, r5
 80021f2:	f7fd ffed 	bl	80001d0 <__aeabi_dsub>
 80021f6:	4602      	mov	r2, r0
 80021f8:	460b      	mov	r3, r1
 80021fa:	4614      	mov	r4, r2
 80021fc:	461d      	mov	r5, r3
									   + 0.0128 * CM_LoadCell->top[0] + 0.0256 * CM_LoadCell->top[1] + 0.0128 * CM_LoadCell->top[2];
 80021fe:	4b48      	ldr	r3, [pc, #288]	; (8002320 <ProcessInputs+0x478>)
 8002200:	e9d3 0106 	ldrd	r0, r1, [r3, #24]
 8002204:	a33e      	add	r3, pc, #248	; (adr r3, 8002300 <ProcessInputs+0x458>)
 8002206:	e9d3 2300 	ldrd	r2, r3, [r3]
 800220a:	f7fe f999 	bl	8000540 <__aeabi_dmul>
 800220e:	4602      	mov	r2, r0
 8002210:	460b      	mov	r3, r1
 8002212:	4620      	mov	r0, r4
 8002214:	4629      	mov	r1, r5
 8002216:	f7fd ffdd 	bl	80001d4 <__adddf3>
 800221a:	4602      	mov	r2, r0
 800221c:	460b      	mov	r3, r1
 800221e:	4614      	mov	r4, r2
 8002220:	461d      	mov	r5, r3
 8002222:	4b3f      	ldr	r3, [pc, #252]	; (8002320 <ProcessInputs+0x478>)
 8002224:	e9d3 0108 	ldrd	r0, r1, [r3, #32]
 8002228:	a337      	add	r3, pc, #220	; (adr r3, 8002308 <ProcessInputs+0x460>)
 800222a:	e9d3 2300 	ldrd	r2, r3, [r3]
 800222e:	f7fe f987 	bl	8000540 <__aeabi_dmul>
 8002232:	4602      	mov	r2, r0
 8002234:	460b      	mov	r3, r1
 8002236:	4620      	mov	r0, r4
 8002238:	4629      	mov	r1, r5
 800223a:	f7fd ffcb 	bl	80001d4 <__adddf3>
 800223e:	4602      	mov	r2, r0
 8002240:	460b      	mov	r3, r1
 8002242:	4614      	mov	r4, r2
 8002244:	461d      	mov	r5, r3
 8002246:	4b36      	ldr	r3, [pc, #216]	; (8002320 <ProcessInputs+0x478>)
 8002248:	e9d3 010a 	ldrd	r0, r1, [r3, #40]	; 0x28
 800224c:	a32c      	add	r3, pc, #176	; (adr r3, 8002300 <ProcessInputs+0x458>)
 800224e:	e9d3 2300 	ldrd	r2, r3, [r3]
 8002252:	f7fe f975 	bl	8000540 <__aeabi_dmul>
 8002256:	4602      	mov	r2, r0
 8002258:	460b      	mov	r3, r1
 800225a:	4620      	mov	r0, r4
 800225c:	4629      	mov	r1, r5
 800225e:	f7fd ffb9 	bl	80001d4 <__adddf3>
 8002262:	4602      	mov	r2, r0
 8002264:	460b      	mov	r3, r1
		CM_LoadCell_Filtered->top[0] =   1.6556 * CM_LoadCell_Filtered->top[1] - 0.7068 * CM_LoadCell_Filtered->top[2]
 8002266:	492d      	ldr	r1, [pc, #180]	; (800231c <ProcessInputs+0x474>)
 8002268:	e9c1 2306 	strd	r2, r3, [r1, #24]

		CM_jointAngle[1] = CM_jointAngle[0];
 800226c:	4b28      	ldr	r3, [pc, #160]	; (8002310 <ProcessInputs+0x468>)
 800226e:	e9d3 2300 	ldrd	r2, r3, [r3]
 8002272:	4927      	ldr	r1, [pc, #156]	; (8002310 <ProcessInputs+0x468>)
 8002274:	e9c1 2302 	strd	r2, r3, [r1, #8]
		CM_LoadCell->bot[2] = CM_LoadCell->bot[1];
 8002278:	4b29      	ldr	r3, [pc, #164]	; (8002320 <ProcessInputs+0x478>)
 800227a:	e9d3 2302 	ldrd	r2, r3, [r3, #8]
 800227e:	4928      	ldr	r1, [pc, #160]	; (8002320 <ProcessInputs+0x478>)
 8002280:	e9c1 2304 	strd	r2, r3, [r1, #16]
		CM_LoadCell->bot[1] = CM_LoadCell->bot[0];
 8002284:	4b26      	ldr	r3, [pc, #152]	; (8002320 <ProcessInputs+0x478>)
 8002286:	e9d3 2300 	ldrd	r2, r3, [r3]
 800228a:	4925      	ldr	r1, [pc, #148]	; (8002320 <ProcessInputs+0x478>)
 800228c:	e9c1 2302 	strd	r2, r3, [r1, #8]
		CM_LoadCell->top[2] = CM_LoadCell->top[1];
 8002290:	4b23      	ldr	r3, [pc, #140]	; (8002320 <ProcessInputs+0x478>)
 8002292:	e9d3 2308 	ldrd	r2, r3, [r3, #32]
 8002296:	4922      	ldr	r1, [pc, #136]	; (8002320 <ProcessInputs+0x478>)
 8002298:	e9c1 230a 	strd	r2, r3, [r1, #40]	; 0x28
		CM_LoadCell->top[1] = CM_LoadCell->top[0];
 800229c:	4b20      	ldr	r3, [pc, #128]	; (8002320 <ProcessInputs+0x478>)
 800229e:	e9d3 2306 	ldrd	r2, r3, [r3, #24]
 80022a2:	491f      	ldr	r1, [pc, #124]	; (8002320 <ProcessInputs+0x478>)
 80022a4:	e9c1 2308 	strd	r2, r3, [r1, #32]
		CM_LoadCell_Filtered->bot[2] = CM_LoadCell_Filtered->bot[1];
 80022a8:	4b1c      	ldr	r3, [pc, #112]	; (800231c <ProcessInputs+0x474>)
 80022aa:	e9d3 2302 	ldrd	r2, r3, [r3, #8]
 80022ae:	491b      	ldr	r1, [pc, #108]	; (800231c <ProcessInputs+0x474>)
 80022b0:	e9c1 2304 	strd	r2, r3, [r1, #16]
		CM_LoadCell_Filtered->bot[1] = CM_LoadCell_Filtered->bot[0];
 80022b4:	4b19      	ldr	r3, [pc, #100]	; (800231c <ProcessInputs+0x474>)
 80022b6:	e9d3 2300 	ldrd	r2, r3, [r3]
 80022ba:	4918      	ldr	r1, [pc, #96]	; (800231c <ProcessInputs+0x474>)
 80022bc:	e9c1 2302 	strd	r2, r3, [r1, #8]
		CM_LoadCell_Filtered->top[2] = CM_LoadCell_Filtered->top[1];
 80022c0:	4b16      	ldr	r3, [pc, #88]	; (800231c <ProcessInputs+0x474>)
 80022c2:	e9d3 2308 	ldrd	r2, r3, [r3, #32]
 80022c6:	4915      	ldr	r1, [pc, #84]	; (800231c <ProcessInputs+0x474>)
 80022c8:	e9c1 230a 	strd	r2, r3, [r1, #40]	; 0x28
		CM_LoadCell_Filtered->top[1] = CM_LoadCell_Filtered->top[0];
 80022cc:	4b13      	ldr	r3, [pc, #76]	; (800231c <ProcessInputs+0x474>)
 80022ce:	e9d3 2306 	ldrd	r2, r3, [r3, #24]
 80022d2:	4912      	ldr	r1, [pc, #72]	; (800231c <ProcessInputs+0x474>)
 80022d4:	e9c1 2308 	strd	r2, r3, [r1, #32]
	}

	CalibrateIMU();
 80022d8:	f000 f826 	bl	8002328 <CalibrateIMU>
	ComputeLimbAngle();
 80022dc:	f000 fb50 	bl	8002980 <ComputeLimbAngle>
}
 80022e0:	bf00      	nop
 80022e2:	3708      	adds	r7, #8
 80022e4:	46bd      	mov	sp, r7
 80022e6:	e8bd 83b0 	ldmia.w	sp!, {r4, r5, r7, r8, r9, pc}
 80022ea:	bf00      	nop
 80022ec:	f3af 8000 	nop.w
 80022f0:	6cf41f21 	.word	0x6cf41f21
 80022f4:	3ffa7d56 	.word	0x3ffa7d56
 80022f8:	089a0275 	.word	0x089a0275
 80022fc:	3fe69e1b 	.word	0x3fe69e1b
 8002300:	eb1c432d 	.word	0xeb1c432d
 8002304:	3f8a36e2 	.word	0x3f8a36e2
 8002308:	eb1c432d 	.word	0xeb1c432d
 800230c:	3f9a36e2 	.word	0x3f9a36e2
 8002310:	200000f0 	.word	0x200000f0
 8002314:	20000004 	.word	0x20000004
 8002318:	20000100 	.word	0x20000100
 800231c:	20000208 	.word	0x20000208
 8002320:	20000178 	.word	0x20000178
 8002324:	00000000 	.word	0x00000000

08002328 <CalibrateIMU>:

void CalibrateIMU(void)
{
 8002328:	e92d 4fb0 	stmdb	sp!, {r4, r5, r7, r8, r9, sl, fp, lr}
 800232c:	b0a0      	sub	sp, #128	; 0x80
 800232e:	af00      	add	r7, sp, #0
	double axBias = 0.0;
 8002330:	f04f 0200 	mov.w	r2, #0
 8002334:	f04f 0300 	mov.w	r3, #0
 8002338:	e9c7 231e 	strd	r2, r3, [r7, #120]	; 0x78
	double ayBias = 0.0;
 800233c:	f04f 0200 	mov.w	r2, #0
 8002340:	f04f 0300 	mov.w	r3, #0
 8002344:	e9c7 231c 	strd	r2, r3, [r7, #112]	; 0x70
	double azBias = 0.0;
 8002348:	f04f 0200 	mov.w	r2, #0
 800234c:	f04f 0300 	mov.w	r3, #0
 8002350:	e9c7 231a 	strd	r2, r3, [r7, #104]	; 0x68
	double gxBias = 0.0;
 8002354:	f04f 0200 	mov.w	r2, #0
 8002358:	f04f 0300 	mov.w	r3, #0
 800235c:	e9c7 2318 	strd	r2, r3, [r7, #96]	; 0x60
	double gyBias = 0.0;
 8002360:	f04f 0200 	mov.w	r2, #0
 8002364:	f04f 0300 	mov.w	r3, #0
 8002368:	e9c7 2316 	strd	r2, r3, [r7, #88]	; 0x58
	double gzBias = 0.0;
 800236c:	f04f 0200 	mov.w	r2, #0
 8002370:	f04f 0300 	mov.w	r3, #0
 8002374:	e9c7 2314 	strd	r2, r3, [r7, #80]	; 0x50
	double n = 1.0;
 8002378:	f04f 0200 	mov.w	r2, #0
 800237c:	4bbe      	ldr	r3, [pc, #760]	; (8002678 <CalibrateIMU+0x350>)
 800237e:	e9c7 2312 	strd	r2, r3, [r7, #72]	; 0x48
	double s1 = sin(0.0);
	double s2 = sin(0.0);
	double s3 = sin(0.0);
	#endif
	#ifdef LEFT
	double c1 = cos(M_PI);
 8002382:	f04f 0200 	mov.w	r2, #0
 8002386:	4bbd      	ldr	r3, [pc, #756]	; (800267c <CalibrateIMU+0x354>)
 8002388:	e9c7 2310 	strd	r2, r3, [r7, #64]	; 0x40
	double c2 = cos(M_PI);
 800238c:	f04f 0200 	mov.w	r2, #0
 8002390:	4bba      	ldr	r3, [pc, #744]	; (800267c <CalibrateIMU+0x354>)
 8002392:	e9c7 230e 	strd	r2, r3, [r7, #56]	; 0x38
	double c3 = cos(0.0);
 8002396:	f04f 0200 	mov.w	r2, #0
 800239a:	4bb7      	ldr	r3, [pc, #732]	; (8002678 <CalibrateIMU+0x350>)
 800239c:	e9c7 230c 	strd	r2, r3, [r7, #48]	; 0x30
	double s1 = sin(M_PI);
 80023a0:	a3b3      	add	r3, pc, #716	; (adr r3, 8002670 <CalibrateIMU+0x348>)
 80023a2:	e9d3 2300 	ldrd	r2, r3, [r3]
 80023a6:	e9c7 230a 	strd	r2, r3, [r7, #40]	; 0x28
	double s2 = sin(M_PI);
 80023aa:	a3b1      	add	r3, pc, #708	; (adr r3, 8002670 <CalibrateIMU+0x348>)
 80023ac:	e9d3 2300 	ldrd	r2, r3, [r3]
 80023b0:	e9c7 2308 	strd	r2, r3, [r7, #32]
	double s3 = sin(0.0);
 80023b4:	f04f 0200 	mov.w	r2, #0
 80023b8:	f04f 0300 	mov.w	r3, #0
 80023bc:	e9c7 2306 	strd	r2, r3, [r7, #24]
	#endif

	// Rotate IMU data and remove biases
	CM_IMUData.ax = n * (IMUData.ax*(c1*c3 - c2*s1*s3) + IMUData.ay*(  -c3*s1 - c1*c2*s3) + IMUData.az*( s2*s3)) - axBias;
 80023c0:	4baf      	ldr	r3, [pc, #700]	; (8002680 <CalibrateIMU+0x358>)
 80023c2:	e9d3 8900 	ldrd	r8, r9, [r3]
 80023c6:	e9d7 230c 	ldrd	r2, r3, [r7, #48]	; 0x30
 80023ca:	e9d7 0110 	ldrd	r0, r1, [r7, #64]	; 0x40
 80023ce:	f7fe f8b7 	bl	8000540 <__aeabi_dmul>
 80023d2:	4602      	mov	r2, r0
 80023d4:	460b      	mov	r3, r1
 80023d6:	4692      	mov	sl, r2
 80023d8:	469b      	mov	fp, r3
 80023da:	e9d7 230a 	ldrd	r2, r3, [r7, #40]	; 0x28
 80023de:	e9d7 010e 	ldrd	r0, r1, [r7, #56]	; 0x38
 80023e2:	f7fe f8ad 	bl	8000540 <__aeabi_dmul>
 80023e6:	4602      	mov	r2, r0
 80023e8:	460b      	mov	r3, r1
 80023ea:	4610      	mov	r0, r2
 80023ec:	4619      	mov	r1, r3
 80023ee:	e9d7 2306 	ldrd	r2, r3, [r7, #24]
 80023f2:	f7fe f8a5 	bl	8000540 <__aeabi_dmul>
 80023f6:	4602      	mov	r2, r0
 80023f8:	460b      	mov	r3, r1
 80023fa:	4650      	mov	r0, sl
 80023fc:	4659      	mov	r1, fp
 80023fe:	f7fd fee7 	bl	80001d0 <__aeabi_dsub>
 8002402:	4602      	mov	r2, r0
 8002404:	460b      	mov	r3, r1
 8002406:	4640      	mov	r0, r8
 8002408:	4649      	mov	r1, r9
 800240a:	f7fe f899 	bl	8000540 <__aeabi_dmul>
 800240e:	4602      	mov	r2, r0
 8002410:	460b      	mov	r3, r1
 8002412:	4692      	mov	sl, r2
 8002414:	469b      	mov	fp, r3
 8002416:	4b9a      	ldr	r3, [pc, #616]	; (8002680 <CalibrateIMU+0x358>)
 8002418:	e9d3 8902 	ldrd	r8, r9, [r3, #8]
 800241c:	6b3c      	ldr	r4, [r7, #48]	; 0x30
 800241e:	6b7b      	ldr	r3, [r7, #52]	; 0x34
 8002420:	f083 4500 	eor.w	r5, r3, #2147483648	; 0x80000000
 8002424:	e9d7 230a 	ldrd	r2, r3, [r7, #40]	; 0x28
 8002428:	4620      	mov	r0, r4
 800242a:	4629      	mov	r1, r5
 800242c:	f7fe f888 	bl	8000540 <__aeabi_dmul>
 8002430:	4602      	mov	r2, r0
 8002432:	460b      	mov	r3, r1
 8002434:	4614      	mov	r4, r2
 8002436:	461d      	mov	r5, r3
 8002438:	e9d7 230e 	ldrd	r2, r3, [r7, #56]	; 0x38
 800243c:	e9d7 0110 	ldrd	r0, r1, [r7, #64]	; 0x40
 8002440:	f7fe f87e 	bl	8000540 <__aeabi_dmul>
 8002444:	4602      	mov	r2, r0
 8002446:	460b      	mov	r3, r1
 8002448:	4610      	mov	r0, r2
 800244a:	4619      	mov	r1, r3
 800244c:	e9d7 2306 	ldrd	r2, r3, [r7, #24]
 8002450:	f7fe f876 	bl	8000540 <__aeabi_dmul>
 8002454:	4602      	mov	r2, r0
 8002456:	460b      	mov	r3, r1
 8002458:	4620      	mov	r0, r4
 800245a:	4629      	mov	r1, r5
 800245c:	f7fd feb8 	bl	80001d0 <__aeabi_dsub>
 8002460:	4602      	mov	r2, r0
 8002462:	460b      	mov	r3, r1
 8002464:	4640      	mov	r0, r8
 8002466:	4649      	mov	r1, r9
 8002468:	f7fe f86a 	bl	8000540 <__aeabi_dmul>
 800246c:	4602      	mov	r2, r0
 800246e:	460b      	mov	r3, r1
 8002470:	4650      	mov	r0, sl
 8002472:	4659      	mov	r1, fp
 8002474:	f7fd feae 	bl	80001d4 <__adddf3>
 8002478:	4602      	mov	r2, r0
 800247a:	460b      	mov	r3, r1
 800247c:	4690      	mov	r8, r2
 800247e:	4699      	mov	r9, r3
 8002480:	4b7f      	ldr	r3, [pc, #508]	; (8002680 <CalibrateIMU+0x358>)
 8002482:	e9d3 4504 	ldrd	r4, r5, [r3, #16]
 8002486:	e9d7 2306 	ldrd	r2, r3, [r7, #24]
 800248a:	e9d7 0108 	ldrd	r0, r1, [r7, #32]
 800248e:	f7fe f857 	bl	8000540 <__aeabi_dmul>
 8002492:	4602      	mov	r2, r0
 8002494:	460b      	mov	r3, r1
 8002496:	4620      	mov	r0, r4
 8002498:	4629      	mov	r1, r5
 800249a:	f7fe f851 	bl	8000540 <__aeabi_dmul>
 800249e:	4602      	mov	r2, r0
 80024a0:	460b      	mov	r3, r1
 80024a2:	4640      	mov	r0, r8
 80024a4:	4649      	mov	r1, r9
 80024a6:	f7fd fe95 	bl	80001d4 <__adddf3>
 80024aa:	4602      	mov	r2, r0
 80024ac:	460b      	mov	r3, r1
 80024ae:	4610      	mov	r0, r2
 80024b0:	4619      	mov	r1, r3
 80024b2:	e9d7 2312 	ldrd	r2, r3, [r7, #72]	; 0x48
 80024b6:	f7fe f843 	bl	8000540 <__aeabi_dmul>
 80024ba:	4602      	mov	r2, r0
 80024bc:	460b      	mov	r3, r1
 80024be:	4610      	mov	r0, r2
 80024c0:	4619      	mov	r1, r3
 80024c2:	e9d7 231e 	ldrd	r2, r3, [r7, #120]	; 0x78
 80024c6:	f7fd fe83 	bl	80001d0 <__aeabi_dsub>
 80024ca:	4602      	mov	r2, r0
 80024cc:	460b      	mov	r3, r1
 80024ce:	496d      	ldr	r1, [pc, #436]	; (8002684 <CalibrateIMU+0x35c>)
 80024d0:	e9c1 2300 	strd	r2, r3, [r1]
	CM_IMUData.ay = n * (IMUData.ax*(c1*s3 + c2*c3*s1) + IMUData.ay*(c1*c2*c3 - s1*s3   ) + IMUData.az*(-c3*s2)) - ayBias;
 80024d4:	4b6a      	ldr	r3, [pc, #424]	; (8002680 <CalibrateIMU+0x358>)
 80024d6:	e9d3 4500 	ldrd	r4, r5, [r3]
 80024da:	e9d7 2306 	ldrd	r2, r3, [r7, #24]
 80024de:	e9d7 0110 	ldrd	r0, r1, [r7, #64]	; 0x40
 80024e2:	f7fe f82d 	bl	8000540 <__aeabi_dmul>
 80024e6:	4602      	mov	r2, r0
 80024e8:	460b      	mov	r3, r1
 80024ea:	4690      	mov	r8, r2
 80024ec:	4699      	mov	r9, r3
 80024ee:	e9d7 230c 	ldrd	r2, r3, [r7, #48]	; 0x30
 80024f2:	e9d7 010e 	ldrd	r0, r1, [r7, #56]	; 0x38
 80024f6:	f7fe f823 	bl	8000540 <__aeabi_dmul>
 80024fa:	4602      	mov	r2, r0
 80024fc:	460b      	mov	r3, r1
 80024fe:	4610      	mov	r0, r2
 8002500:	4619      	mov	r1, r3
 8002502:	e9d7 230a 	ldrd	r2, r3, [r7, #40]	; 0x28
 8002506:	f7fe f81b 	bl	8000540 <__aeabi_dmul>
 800250a:	4602      	mov	r2, r0
 800250c:	460b      	mov	r3, r1
 800250e:	4640      	mov	r0, r8
 8002510:	4649      	mov	r1, r9
 8002512:	f7fd fe5f 	bl	80001d4 <__adddf3>
 8002516:	4602      	mov	r2, r0
 8002518:	460b      	mov	r3, r1
 800251a:	4620      	mov	r0, r4
 800251c:	4629      	mov	r1, r5
 800251e:	f7fe f80f 	bl	8000540 <__aeabi_dmul>
 8002522:	4602      	mov	r2, r0
 8002524:	460b      	mov	r3, r1
 8002526:	4692      	mov	sl, r2
 8002528:	469b      	mov	fp, r3
 800252a:	4b55      	ldr	r3, [pc, #340]	; (8002680 <CalibrateIMU+0x358>)
 800252c:	e9d3 4502 	ldrd	r4, r5, [r3, #8]
 8002530:	e9d7 230e 	ldrd	r2, r3, [r7, #56]	; 0x38
 8002534:	e9d7 0110 	ldrd	r0, r1, [r7, #64]	; 0x40
 8002538:	f7fe f802 	bl	8000540 <__aeabi_dmul>
 800253c:	4602      	mov	r2, r0
 800253e:	460b      	mov	r3, r1
 8002540:	4610      	mov	r0, r2
 8002542:	4619      	mov	r1, r3
 8002544:	e9d7 230c 	ldrd	r2, r3, [r7, #48]	; 0x30
 8002548:	f7fd fffa 	bl	8000540 <__aeabi_dmul>
 800254c:	4602      	mov	r2, r0
 800254e:	460b      	mov	r3, r1
 8002550:	4690      	mov	r8, r2
 8002552:	4699      	mov	r9, r3
 8002554:	e9d7 2306 	ldrd	r2, r3, [r7, #24]
 8002558:	e9d7 010a 	ldrd	r0, r1, [r7, #40]	; 0x28
 800255c:	f7fd fff0 	bl	8000540 <__aeabi_dmul>
 8002560:	4602      	mov	r2, r0
 8002562:	460b      	mov	r3, r1
 8002564:	4640      	mov	r0, r8
 8002566:	4649      	mov	r1, r9
 8002568:	f7fd fe32 	bl	80001d0 <__aeabi_dsub>
 800256c:	4602      	mov	r2, r0
 800256e:	460b      	mov	r3, r1
 8002570:	4620      	mov	r0, r4
 8002572:	4629      	mov	r1, r5
 8002574:	f7fd ffe4 	bl	8000540 <__aeabi_dmul>
 8002578:	4602      	mov	r2, r0
 800257a:	460b      	mov	r3, r1
 800257c:	4650      	mov	r0, sl
 800257e:	4659      	mov	r1, fp
 8002580:	f7fd fe28 	bl	80001d4 <__adddf3>
 8002584:	4602      	mov	r2, r0
 8002586:	460b      	mov	r3, r1
 8002588:	4690      	mov	r8, r2
 800258a:	4699      	mov	r9, r3
 800258c:	4b3c      	ldr	r3, [pc, #240]	; (8002680 <CalibrateIMU+0x358>)
 800258e:	e9d3 4504 	ldrd	r4, r5, [r3, #16]
 8002592:	6b3b      	ldr	r3, [r7, #48]	; 0x30
 8002594:	613b      	str	r3, [r7, #16]
 8002596:	6b7b      	ldr	r3, [r7, #52]	; 0x34
 8002598:	f083 4300 	eor.w	r3, r3, #2147483648	; 0x80000000
 800259c:	617b      	str	r3, [r7, #20]
 800259e:	e9d7 2308 	ldrd	r2, r3, [r7, #32]
 80025a2:	e9d7 0104 	ldrd	r0, r1, [r7, #16]
 80025a6:	f7fd ffcb 	bl	8000540 <__aeabi_dmul>
 80025aa:	4602      	mov	r2, r0
 80025ac:	460b      	mov	r3, r1
 80025ae:	4620      	mov	r0, r4
 80025b0:	4629      	mov	r1, r5
 80025b2:	f7fd ffc5 	bl	8000540 <__aeabi_dmul>
 80025b6:	4602      	mov	r2, r0
 80025b8:	460b      	mov	r3, r1
 80025ba:	4640      	mov	r0, r8
 80025bc:	4649      	mov	r1, r9
 80025be:	f7fd fe09 	bl	80001d4 <__adddf3>
 80025c2:	4602      	mov	r2, r0
 80025c4:	460b      	mov	r3, r1
 80025c6:	4610      	mov	r0, r2
 80025c8:	4619      	mov	r1, r3
 80025ca:	e9d7 2312 	ldrd	r2, r3, [r7, #72]	; 0x48
 80025ce:	f7fd ffb7 	bl	8000540 <__aeabi_dmul>
 80025d2:	4602      	mov	r2, r0
 80025d4:	460b      	mov	r3, r1
 80025d6:	4610      	mov	r0, r2
 80025d8:	4619      	mov	r1, r3
 80025da:	e9d7 231c 	ldrd	r2, r3, [r7, #112]	; 0x70
 80025de:	f7fd fdf7 	bl	80001d0 <__aeabi_dsub>
 80025e2:	4602      	mov	r2, r0
 80025e4:	460b      	mov	r3, r1
 80025e6:	4927      	ldr	r1, [pc, #156]	; (8002684 <CalibrateIMU+0x35c>)
 80025e8:	e9c1 2302 	strd	r2, r3, [r1, #8]
	CM_IMUData.az = n * (IMUData.ax*(        s1*s2   ) + IMUData.ay*(           c1*s2   ) + IMUData.az*( c2   )) - azBias;
 80025ec:	4b24      	ldr	r3, [pc, #144]	; (8002680 <CalibrateIMU+0x358>)
 80025ee:	e9d3 4500 	ldrd	r4, r5, [r3]
 80025f2:	e9d7 2308 	ldrd	r2, r3, [r7, #32]
 80025f6:	e9d7 010a 	ldrd	r0, r1, [r7, #40]	; 0x28
 80025fa:	f7fd ffa1 	bl	8000540 <__aeabi_dmul>
 80025fe:	4602      	mov	r2, r0
 8002600:	460b      	mov	r3, r1
 8002602:	4620      	mov	r0, r4
 8002604:	4629      	mov	r1, r5
 8002606:	f7fd ff9b 	bl	8000540 <__aeabi_dmul>
 800260a:	4602      	mov	r2, r0
 800260c:	460b      	mov	r3, r1
 800260e:	4690      	mov	r8, r2
 8002610:	4699      	mov	r9, r3
 8002612:	4b1b      	ldr	r3, [pc, #108]	; (8002680 <CalibrateIMU+0x358>)
 8002614:	e9d3 4502 	ldrd	r4, r5, [r3, #8]
 8002618:	e9d7 2308 	ldrd	r2, r3, [r7, #32]
 800261c:	e9d7 0110 	ldrd	r0, r1, [r7, #64]	; 0x40
 8002620:	f7fd ff8e 	bl	8000540 <__aeabi_dmul>
 8002624:	4602      	mov	r2, r0
 8002626:	460b      	mov	r3, r1
 8002628:	4620      	mov	r0, r4
 800262a:	4629      	mov	r1, r5
 800262c:	f7fd ff88 	bl	8000540 <__aeabi_dmul>
 8002630:	4602      	mov	r2, r0
 8002632:	460b      	mov	r3, r1
 8002634:	4640      	mov	r0, r8
 8002636:	4649      	mov	r1, r9
 8002638:	f7fd fdcc 	bl	80001d4 <__adddf3>
 800263c:	4602      	mov	r2, r0
 800263e:	460b      	mov	r3, r1
 8002640:	4614      	mov	r4, r2
 8002642:	461d      	mov	r5, r3
 8002644:	4b0e      	ldr	r3, [pc, #56]	; (8002680 <CalibrateIMU+0x358>)
 8002646:	e9d3 0104 	ldrd	r0, r1, [r3, #16]
 800264a:	e9d7 230e 	ldrd	r2, r3, [r7, #56]	; 0x38
 800264e:	f7fd ff77 	bl	8000540 <__aeabi_dmul>
 8002652:	4602      	mov	r2, r0
 8002654:	460b      	mov	r3, r1
 8002656:	4620      	mov	r0, r4
 8002658:	4629      	mov	r1, r5
 800265a:	f7fd fdbb 	bl	80001d4 <__adddf3>
 800265e:	4602      	mov	r2, r0
 8002660:	460b      	mov	r3, r1
 8002662:	4610      	mov	r0, r2
 8002664:	4619      	mov	r1, r3
 8002666:	e9d7 2312 	ldrd	r2, r3, [r7, #72]	; 0x48
 800266a:	f7fd ff69 	bl	8000540 <__aeabi_dmul>
 800266e:	e00b      	b.n	8002688 <CalibrateIMU+0x360>
 8002670:	33145c07 	.word	0x33145c07
 8002674:	3ca1a626 	.word	0x3ca1a626
 8002678:	3ff00000 	.word	0x3ff00000
 800267c:	bff00000 	.word	0xbff00000
 8002680:	200000b0 	.word	0x200000b0
 8002684:	20000148 	.word	0x20000148
 8002688:	4602      	mov	r2, r0
 800268a:	460b      	mov	r3, r1
 800268c:	4610      	mov	r0, r2
 800268e:	4619      	mov	r1, r3
 8002690:	e9d7 231a 	ldrd	r2, r3, [r7, #104]	; 0x68
 8002694:	f7fd fd9c 	bl	80001d0 <__aeabi_dsub>
 8002698:	4602      	mov	r2, r0
 800269a:	460b      	mov	r3, r1
 800269c:	49b6      	ldr	r1, [pc, #728]	; (8002978 <CalibrateIMU+0x650>)
 800269e:	e9c1 2304 	strd	r2, r3, [r1, #16]
	CM_IMUData.gx = n * (IMUData.gx*(c1*c3 - c2*s1*s3) + IMUData.gy*(  -c3*s1 - c1*c2*s3) + IMUData.gz*( s2*s3)) - gxBias;
 80026a2:	4bb6      	ldr	r3, [pc, #728]	; (800297c <CalibrateIMU+0x654>)
 80026a4:	e9d3 4506 	ldrd	r4, r5, [r3, #24]
 80026a8:	e9d7 230c 	ldrd	r2, r3, [r7, #48]	; 0x30
 80026ac:	e9d7 0110 	ldrd	r0, r1, [r7, #64]	; 0x40
 80026b0:	f7fd ff46 	bl	8000540 <__aeabi_dmul>
 80026b4:	4602      	mov	r2, r0
 80026b6:	460b      	mov	r3, r1
 80026b8:	4690      	mov	r8, r2
 80026ba:	4699      	mov	r9, r3
 80026bc:	e9d7 230a 	ldrd	r2, r3, [r7, #40]	; 0x28
 80026c0:	e9d7 010e 	ldrd	r0, r1, [r7, #56]	; 0x38
 80026c4:	f7fd ff3c 	bl	8000540 <__aeabi_dmul>
 80026c8:	4602      	mov	r2, r0
 80026ca:	460b      	mov	r3, r1
 80026cc:	4610      	mov	r0, r2
 80026ce:	4619      	mov	r1, r3
 80026d0:	e9d7 2306 	ldrd	r2, r3, [r7, #24]
 80026d4:	f7fd ff34 	bl	8000540 <__aeabi_dmul>
 80026d8:	4602      	mov	r2, r0
 80026da:	460b      	mov	r3, r1
 80026dc:	4640      	mov	r0, r8
 80026de:	4649      	mov	r1, r9
 80026e0:	f7fd fd76 	bl	80001d0 <__aeabi_dsub>
 80026e4:	4602      	mov	r2, r0
 80026e6:	460b      	mov	r3, r1
 80026e8:	4620      	mov	r0, r4
 80026ea:	4629      	mov	r1, r5
 80026ec:	f7fd ff28 	bl	8000540 <__aeabi_dmul>
 80026f0:	4602      	mov	r2, r0
 80026f2:	460b      	mov	r3, r1
 80026f4:	4690      	mov	r8, r2
 80026f6:	4699      	mov	r9, r3
 80026f8:	4ba0      	ldr	r3, [pc, #640]	; (800297c <CalibrateIMU+0x654>)
 80026fa:	e9d3 4508 	ldrd	r4, r5, [r3, #32]
 80026fe:	6b3b      	ldr	r3, [r7, #48]	; 0x30
 8002700:	60bb      	str	r3, [r7, #8]
 8002702:	6b7b      	ldr	r3, [r7, #52]	; 0x34
 8002704:	f083 4300 	eor.w	r3, r3, #2147483648	; 0x80000000
 8002708:	60fb      	str	r3, [r7, #12]
 800270a:	e9d7 230a 	ldrd	r2, r3, [r7, #40]	; 0x28
 800270e:	e9d7 0102 	ldrd	r0, r1, [r7, #8]
 8002712:	f7fd ff15 	bl	8000540 <__aeabi_dmul>
 8002716:	4602      	mov	r2, r0
 8002718:	460b      	mov	r3, r1
 800271a:	4692      	mov	sl, r2
 800271c:	469b      	mov	fp, r3
 800271e:	e9d7 230e 	ldrd	r2, r3, [r7, #56]	; 0x38
 8002722:	e9d7 0110 	ldrd	r0, r1, [r7, #64]	; 0x40
 8002726:	f7fd ff0b 	bl	8000540 <__aeabi_dmul>
 800272a:	4602      	mov	r2, r0
 800272c:	460b      	mov	r3, r1
 800272e:	4610      	mov	r0, r2
 8002730:	4619      	mov	r1, r3
 8002732:	e9d7 2306 	ldrd	r2, r3, [r7, #24]
 8002736:	f7fd ff03 	bl	8000540 <__aeabi_dmul>
 800273a:	4602      	mov	r2, r0
 800273c:	460b      	mov	r3, r1
 800273e:	4650      	mov	r0, sl
 8002740:	4659      	mov	r1, fp
 8002742:	f7fd fd45 	bl	80001d0 <__aeabi_dsub>
 8002746:	4602      	mov	r2, r0
 8002748:	460b      	mov	r3, r1
 800274a:	4620      	mov	r0, r4
 800274c:	4629      	mov	r1, r5
 800274e:	f7fd fef7 	bl	8000540 <__aeabi_dmul>
 8002752:	4602      	mov	r2, r0
 8002754:	460b      	mov	r3, r1
 8002756:	4640      	mov	r0, r8
 8002758:	4649      	mov	r1, r9
 800275a:	f7fd fd3b 	bl	80001d4 <__adddf3>
 800275e:	4602      	mov	r2, r0
 8002760:	460b      	mov	r3, r1
 8002762:	4690      	mov	r8, r2
 8002764:	4699      	mov	r9, r3
 8002766:	4b85      	ldr	r3, [pc, #532]	; (800297c <CalibrateIMU+0x654>)
 8002768:	e9d3 450a 	ldrd	r4, r5, [r3, #40]	; 0x28
 800276c:	e9d7 2306 	ldrd	r2, r3, [r7, #24]
 8002770:	e9d7 0108 	ldrd	r0, r1, [r7, #32]
 8002774:	f7fd fee4 	bl	8000540 <__aeabi_dmul>
 8002778:	4602      	mov	r2, r0
 800277a:	460b      	mov	r3, r1
 800277c:	4620      	mov	r0, r4
 800277e:	4629      	mov	r1, r5
 8002780:	f7fd fede 	bl	8000540 <__aeabi_dmul>
 8002784:	4602      	mov	r2, r0
 8002786:	460b      	mov	r3, r1
 8002788:	4640      	mov	r0, r8
 800278a:	4649      	mov	r1, r9
 800278c:	f7fd fd22 	bl	80001d4 <__adddf3>
 8002790:	4602      	mov	r2, r0
 8002792:	460b      	mov	r3, r1
 8002794:	4610      	mov	r0, r2
 8002796:	4619      	mov	r1, r3
 8002798:	e9d7 2312 	ldrd	r2, r3, [r7, #72]	; 0x48
 800279c:	f7fd fed0 	bl	8000540 <__aeabi_dmul>
 80027a0:	4602      	mov	r2, r0
 80027a2:	460b      	mov	r3, r1
 80027a4:	4610      	mov	r0, r2
 80027a6:	4619      	mov	r1, r3
 80027a8:	e9d7 2318 	ldrd	r2, r3, [r7, #96]	; 0x60
 80027ac:	f7fd fd10 	bl	80001d0 <__aeabi_dsub>
 80027b0:	4602      	mov	r2, r0
 80027b2:	460b      	mov	r3, r1
 80027b4:	4970      	ldr	r1, [pc, #448]	; (8002978 <CalibrateIMU+0x650>)
 80027b6:	e9c1 2306 	strd	r2, r3, [r1, #24]
	CM_IMUData.gy = n * (IMUData.gx*(c1*s3 + c2*c3*s1) + IMUData.gy*(c1*c2*c3 - s1*s3   ) + IMUData.gz*(-c3*s2)) - gyBias;
 80027ba:	4b70      	ldr	r3, [pc, #448]	; (800297c <CalibrateIMU+0x654>)
 80027bc:	e9d3 4506 	ldrd	r4, r5, [r3, #24]
 80027c0:	e9d7 2306 	ldrd	r2, r3, [r7, #24]
 80027c4:	e9d7 0110 	ldrd	r0, r1, [r7, #64]	; 0x40
 80027c8:	f7fd feba 	bl	8000540 <__aeabi_dmul>
 80027cc:	4602      	mov	r2, r0
 80027ce:	460b      	mov	r3, r1
 80027d0:	4690      	mov	r8, r2
 80027d2:	4699      	mov	r9, r3
 80027d4:	e9d7 230c 	ldrd	r2, r3, [r7, #48]	; 0x30
 80027d8:	e9d7 010e 	ldrd	r0, r1, [r7, #56]	; 0x38
 80027dc:	f7fd feb0 	bl	8000540 <__aeabi_dmul>
 80027e0:	4602      	mov	r2, r0
 80027e2:	460b      	mov	r3, r1
 80027e4:	4610      	mov	r0, r2
 80027e6:	4619      	mov	r1, r3
 80027e8:	e9d7 230a 	ldrd	r2, r3, [r7, #40]	; 0x28
 80027ec:	f7fd fea8 	bl	8000540 <__aeabi_dmul>
 80027f0:	4602      	mov	r2, r0
 80027f2:	460b      	mov	r3, r1
 80027f4:	4640      	mov	r0, r8
 80027f6:	4649      	mov	r1, r9
 80027f8:	f7fd fcec 	bl	80001d4 <__adddf3>
 80027fc:	4602      	mov	r2, r0
 80027fe:	460b      	mov	r3, r1
 8002800:	4620      	mov	r0, r4
 8002802:	4629      	mov	r1, r5
 8002804:	f7fd fe9c 	bl	8000540 <__aeabi_dmul>
 8002808:	4602      	mov	r2, r0
 800280a:	460b      	mov	r3, r1
 800280c:	4690      	mov	r8, r2
 800280e:	4699      	mov	r9, r3
 8002810:	4b5a      	ldr	r3, [pc, #360]	; (800297c <CalibrateIMU+0x654>)
 8002812:	e9d3 4508 	ldrd	r4, r5, [r3, #32]
 8002816:	e9d7 230e 	ldrd	r2, r3, [r7, #56]	; 0x38
 800281a:	e9d7 0110 	ldrd	r0, r1, [r7, #64]	; 0x40
 800281e:	f7fd fe8f 	bl	8000540 <__aeabi_dmul>
 8002822:	4602      	mov	r2, r0
 8002824:	460b      	mov	r3, r1
 8002826:	4610      	mov	r0, r2
 8002828:	4619      	mov	r1, r3
 800282a:	e9d7 230c 	ldrd	r2, r3, [r7, #48]	; 0x30
 800282e:	f7fd fe87 	bl	8000540 <__aeabi_dmul>
 8002832:	4602      	mov	r2, r0
 8002834:	460b      	mov	r3, r1
 8002836:	4692      	mov	sl, r2
 8002838:	469b      	mov	fp, r3
 800283a:	e9d7 2306 	ldrd	r2, r3, [r7, #24]
 800283e:	e9d7 010a 	ldrd	r0, r1, [r7, #40]	; 0x28
 8002842:	f7fd fe7d 	bl	8000540 <__aeabi_dmul>
 8002846:	4602      	mov	r2, r0
 8002848:	460b      	mov	r3, r1
 800284a:	4650      	mov	r0, sl
 800284c:	4659      	mov	r1, fp
 800284e:	f7fd fcbf 	bl	80001d0 <__aeabi_dsub>
 8002852:	4602      	mov	r2, r0
 8002854:	460b      	mov	r3, r1
 8002856:	4620      	mov	r0, r4
 8002858:	4629      	mov	r1, r5
 800285a:	f7fd fe71 	bl	8000540 <__aeabi_dmul>
 800285e:	4602      	mov	r2, r0
 8002860:	460b      	mov	r3, r1
 8002862:	4640      	mov	r0, r8
 8002864:	4649      	mov	r1, r9
 8002866:	f7fd fcb5 	bl	80001d4 <__adddf3>
 800286a:	4602      	mov	r2, r0
 800286c:	460b      	mov	r3, r1
 800286e:	4690      	mov	r8, r2
 8002870:	4699      	mov	r9, r3
 8002872:	4b42      	ldr	r3, [pc, #264]	; (800297c <CalibrateIMU+0x654>)
 8002874:	e9d3 450a 	ldrd	r4, r5, [r3, #40]	; 0x28
 8002878:	6b3b      	ldr	r3, [r7, #48]	; 0x30
 800287a:	603b      	str	r3, [r7, #0]
 800287c:	6b7b      	ldr	r3, [r7, #52]	; 0x34
 800287e:	f083 4300 	eor.w	r3, r3, #2147483648	; 0x80000000
 8002882:	607b      	str	r3, [r7, #4]
 8002884:	e9d7 2308 	ldrd	r2, r3, [r7, #32]
 8002888:	e9d7 0100 	ldrd	r0, r1, [r7]
 800288c:	f7fd fe58 	bl	8000540 <__aeabi_dmul>
 8002890:	4602      	mov	r2, r0
 8002892:	460b      	mov	r3, r1
 8002894:	4620      	mov	r0, r4
 8002896:	4629      	mov	r1, r5
 8002898:	f7fd fe52 	bl	8000540 <__aeabi_dmul>
 800289c:	4602      	mov	r2, r0
 800289e:	460b      	mov	r3, r1
 80028a0:	4640      	mov	r0, r8
 80028a2:	4649      	mov	r1, r9
 80028a4:	f7fd fc96 	bl	80001d4 <__adddf3>
 80028a8:	4602      	mov	r2, r0
 80028aa:	460b      	mov	r3, r1
 80028ac:	4610      	mov	r0, r2
 80028ae:	4619      	mov	r1, r3
 80028b0:	e9d7 2312 	ldrd	r2, r3, [r7, #72]	; 0x48
 80028b4:	f7fd fe44 	bl	8000540 <__aeabi_dmul>
 80028b8:	4602      	mov	r2, r0
 80028ba:	460b      	mov	r3, r1
 80028bc:	4610      	mov	r0, r2
 80028be:	4619      	mov	r1, r3
 80028c0:	e9d7 2316 	ldrd	r2, r3, [r7, #88]	; 0x58
 80028c4:	f7fd fc84 	bl	80001d0 <__aeabi_dsub>
 80028c8:	4602      	mov	r2, r0
 80028ca:	460b      	mov	r3, r1
 80028cc:	492a      	ldr	r1, [pc, #168]	; (8002978 <CalibrateIMU+0x650>)
 80028ce:	e9c1 2308 	strd	r2, r3, [r1, #32]
	CM_IMUData.gz = n * (IMUData.gx*(        s1*s2   ) + IMUData.gy*(           c1*s2   ) + IMUData.gz*( c2   )) - gzBias;
 80028d2:	4b2a      	ldr	r3, [pc, #168]	; (800297c <CalibrateIMU+0x654>)
 80028d4:	e9d3 4506 	ldrd	r4, r5, [r3, #24]
 80028d8:	e9d7 2308 	ldrd	r2, r3, [r7, #32]
 80028dc:	e9d7 010a 	ldrd	r0, r1, [r7, #40]	; 0x28
 80028e0:	f7fd fe2e 	bl	8000540 <__aeabi_dmul>
 80028e4:	4602      	mov	r2, r0
 80028e6:	460b      	mov	r3, r1
 80028e8:	4620      	mov	r0, r4
 80028ea:	4629      	mov	r1, r5
 80028ec:	f7fd fe28 	bl	8000540 <__aeabi_dmul>
 80028f0:	4602      	mov	r2, r0
 80028f2:	460b      	mov	r3, r1
 80028f4:	4690      	mov	r8, r2
 80028f6:	4699      	mov	r9, r3
 80028f8:	4b20      	ldr	r3, [pc, #128]	; (800297c <CalibrateIMU+0x654>)
 80028fa:	e9d3 4508 	ldrd	r4, r5, [r3, #32]
 80028fe:	e9d7 2308 	ldrd	r2, r3, [r7, #32]
 8002902:	e9d7 0110 	ldrd	r0, r1, [r7, #64]	; 0x40
 8002906:	f7fd fe1b 	bl	8000540 <__aeabi_dmul>
 800290a:	4602      	mov	r2, r0
 800290c:	460b      	mov	r3, r1
 800290e:	4620      	mov	r0, r4
 8002910:	4629      	mov	r1, r5
 8002912:	f7fd fe15 	bl	8000540 <__aeabi_dmul>
 8002916:	4602      	mov	r2, r0
 8002918:	460b      	mov	r3, r1
 800291a:	4640      	mov	r0, r8
 800291c:	4649      	mov	r1, r9
 800291e:	f7fd fc59 	bl	80001d4 <__adddf3>
 8002922:	4602      	mov	r2, r0
 8002924:	460b      	mov	r3, r1
 8002926:	4614      	mov	r4, r2
 8002928:	461d      	mov	r5, r3
 800292a:	4b14      	ldr	r3, [pc, #80]	; (800297c <CalibrateIMU+0x654>)
 800292c:	e9d3 010a 	ldrd	r0, r1, [r3, #40]	; 0x28
 8002930:	e9d7 230e 	ldrd	r2, r3, [r7, #56]	; 0x38
 8002934:	f7fd fe04 	bl	8000540 <__aeabi_dmul>
 8002938:	4602      	mov	r2, r0
 800293a:	460b      	mov	r3, r1
 800293c:	4620      	mov	r0, r4
 800293e:	4629      	mov	r1, r5
 8002940:	f7fd fc48 	bl	80001d4 <__adddf3>
 8002944:	4602      	mov	r2, r0
 8002946:	460b      	mov	r3, r1
 8002948:	4610      	mov	r0, r2
 800294a:	4619      	mov	r1, r3
 800294c:	e9d7 2312 	ldrd	r2, r3, [r7, #72]	; 0x48
 8002950:	f7fd fdf6 	bl	8000540 <__aeabi_dmul>
 8002954:	4602      	mov	r2, r0
 8002956:	460b      	mov	r3, r1
 8002958:	4610      	mov	r0, r2
 800295a:	4619      	mov	r1, r3
 800295c:	e9d7 2314 	ldrd	r2, r3, [r7, #80]	; 0x50
 8002960:	f7fd fc36 	bl	80001d0 <__aeabi_dsub>
 8002964:	4602      	mov	r2, r0
 8002966:	460b      	mov	r3, r1
 8002968:	4903      	ldr	r1, [pc, #12]	; (8002978 <CalibrateIMU+0x650>)
 800296a:	e9c1 230a 	strd	r2, r3, [r1, #40]	; 0x28
}
 800296e:	bf00      	nop
 8002970:	3780      	adds	r7, #128	; 0x80
 8002972:	46bd      	mov	sp, r7
 8002974:	e8bd 8fb0 	ldmia.w	sp!, {r4, r5, r7, r8, r9, sl, fp, pc}
 8002978:	20000148 	.word	0x20000148
 800297c:	200000b0 	.word	0x200000b0

08002980 <ComputeLimbAngle>:

void ComputeLimbAngle(void)
{
 8002980:	e92d 43b0 	stmdb	sp!, {r4, r5, r7, r8, r9, lr}
 8002984:	b084      	sub	sp, #16
 8002986:	af00      	add	r7, sp, #0
	double accelAngle = (atan(CM_IMUData.ax / sqrt(pow(CM_IMUData.ay, 2) + pow(CM_IMUData.az, 2)))) * 180.0/M_PI;
 8002988:	4b5f      	ldr	r3, [pc, #380]	; (8002b08 <ComputeLimbAngle+0x188>)
 800298a:	e9d3 4500 	ldrd	r4, r5, [r3]
 800298e:	4b5e      	ldr	r3, [pc, #376]	; (8002b08 <ComputeLimbAngle+0x188>)
 8002990:	ed93 7b02 	vldr	d7, [r3, #8]
 8002994:	ed9f 1b56 	vldr	d1, [pc, #344]	; 8002af0 <ComputeLimbAngle+0x170>
 8002998:	eeb0 0a47 	vmov.f32	s0, s14
 800299c:	eef0 0a67 	vmov.f32	s1, s15
 80029a0:	f003 f8bc 	bl	8005b1c <pow>
 80029a4:	ec59 8b10 	vmov	r8, r9, d0
 80029a8:	4b57      	ldr	r3, [pc, #348]	; (8002b08 <ComputeLimbAngle+0x188>)
 80029aa:	ed93 7b04 	vldr	d7, [r3, #16]
 80029ae:	ed9f 1b50 	vldr	d1, [pc, #320]	; 8002af0 <ComputeLimbAngle+0x170>
 80029b2:	eeb0 0a47 	vmov.f32	s0, s14
 80029b6:	eef0 0a67 	vmov.f32	s1, s15
 80029ba:	f003 f8af 	bl	8005b1c <pow>
 80029be:	ec53 2b10 	vmov	r2, r3, d0
 80029c2:	4640      	mov	r0, r8
 80029c4:	4649      	mov	r1, r9
 80029c6:	f7fd fc05 	bl	80001d4 <__adddf3>
 80029ca:	4602      	mov	r2, r0
 80029cc:	460b      	mov	r3, r1
 80029ce:	ec43 2b17 	vmov	d7, r2, r3
 80029d2:	eeb0 0a47 	vmov.f32	s0, s14
 80029d6:	eef0 0a67 	vmov.f32	s1, s15
 80029da:	f003 f90f 	bl	8005bfc <sqrt>
 80029de:	ec53 2b10 	vmov	r2, r3, d0
 80029e2:	4620      	mov	r0, r4
 80029e4:	4629      	mov	r1, r5
 80029e6:	f7fd fed5 	bl	8000794 <__aeabi_ddiv>
 80029ea:	4602      	mov	r2, r0
 80029ec:	460b      	mov	r3, r1
 80029ee:	ec43 2b17 	vmov	d7, r2, r3
 80029f2:	eeb0 0a47 	vmov.f32	s0, s14
 80029f6:	eef0 0a67 	vmov.f32	s1, s15
 80029fa:	f002 fee5 	bl	80057c8 <atan>
 80029fe:	ec51 0b10 	vmov	r0, r1, d0
 8002a02:	f04f 0200 	mov.w	r2, #0
 8002a06:	4b41      	ldr	r3, [pc, #260]	; (8002b0c <ComputeLimbAngle+0x18c>)
 8002a08:	f7fd fd9a 	bl	8000540 <__aeabi_dmul>
 8002a0c:	4602      	mov	r2, r0
 8002a0e:	460b      	mov	r3, r1
 8002a10:	4610      	mov	r0, r2
 8002a12:	4619      	mov	r1, r3
 8002a14:	a338      	add	r3, pc, #224	; (adr r3, 8002af8 <ComputeLimbAngle+0x178>)
 8002a16:	e9d3 2300 	ldrd	r2, r3, [r3]
 8002a1a:	f7fd febb 	bl	8000794 <__aeabi_ddiv>
 8002a1e:	4602      	mov	r2, r0
 8002a20:	460b      	mov	r3, r1
 8002a22:	e9c7 2302 	strd	r2, r3, [r7, #8]
	static double compFiltAngle = 0.0;
	static double dGyroAngle = 0.0;

	// Change in angle from gyro (trapezoidal used)
	dGyroAngle = dt/2 * (CM_IMUData.gz + dGyroAngle);
 8002a26:	4b3a      	ldr	r3, [pc, #232]	; (8002b10 <ComputeLimbAngle+0x190>)
 8002a28:	edd3 7a00 	vldr	s15, [r3]
 8002a2c:	eeb0 7a00 	vmov.f32	s14, #0	; 0x40000000  2.0
 8002a30:	eec7 6a87 	vdiv.f32	s13, s15, s14
 8002a34:	ee16 0a90 	vmov	r0, s13
 8002a38:	f7fd fd2a 	bl	8000490 <__aeabi_f2d>
 8002a3c:	4604      	mov	r4, r0
 8002a3e:	460d      	mov	r5, r1
 8002a40:	4b31      	ldr	r3, [pc, #196]	; (8002b08 <ComputeLimbAngle+0x188>)
 8002a42:	e9d3 010a 	ldrd	r0, r1, [r3, #40]	; 0x28
 8002a46:	4b33      	ldr	r3, [pc, #204]	; (8002b14 <ComputeLimbAngle+0x194>)
 8002a48:	e9d3 2300 	ldrd	r2, r3, [r3]
 8002a4c:	f7fd fbc2 	bl	80001d4 <__adddf3>
 8002a50:	4602      	mov	r2, r0
 8002a52:	460b      	mov	r3, r1
 8002a54:	4620      	mov	r0, r4
 8002a56:	4629      	mov	r1, r5
 8002a58:	f7fd fd72 	bl	8000540 <__aeabi_dmul>
 8002a5c:	4602      	mov	r2, r0
 8002a5e:	460b      	mov	r3, r1
 8002a60:	492c      	ldr	r1, [pc, #176]	; (8002b14 <ComputeLimbAngle+0x194>)
 8002a62:	e9c1 2300 	strd	r2, r3, [r1]

	// Complementary filter (optimal alpha value found from trial and error experiment of MSE)
	double alpha = 0.002;
 8002a66:	a326      	add	r3, pc, #152	; (adr r3, 8002b00 <ComputeLimbAngle+0x180>)
 8002a68:	e9d3 2300 	ldrd	r2, r3, [r3]
 8002a6c:	e9c7 2300 	strd	r2, r3, [r7]
	compFiltAngle = accelAngle*alpha + (1 - alpha) * (dGyroAngle + compFiltAngle);
 8002a70:	e9d7 2300 	ldrd	r2, r3, [r7]
 8002a74:	e9d7 0102 	ldrd	r0, r1, [r7, #8]
 8002a78:	f7fd fd62 	bl	8000540 <__aeabi_dmul>
 8002a7c:	4602      	mov	r2, r0
 8002a7e:	460b      	mov	r3, r1
 8002a80:	4614      	mov	r4, r2
 8002a82:	461d      	mov	r5, r3
 8002a84:	e9d7 2300 	ldrd	r2, r3, [r7]
 8002a88:	f04f 0000 	mov.w	r0, #0
 8002a8c:	4922      	ldr	r1, [pc, #136]	; (8002b18 <ComputeLimbAngle+0x198>)
 8002a8e:	f7fd fb9f 	bl	80001d0 <__aeabi_dsub>
 8002a92:	4602      	mov	r2, r0
 8002a94:	460b      	mov	r3, r1
 8002a96:	4690      	mov	r8, r2
 8002a98:	4699      	mov	r9, r3
 8002a9a:	4b1e      	ldr	r3, [pc, #120]	; (8002b14 <ComputeLimbAngle+0x194>)
 8002a9c:	e9d3 0100 	ldrd	r0, r1, [r3]
 8002aa0:	4b1e      	ldr	r3, [pc, #120]	; (8002b1c <ComputeLimbAngle+0x19c>)
 8002aa2:	e9d3 2300 	ldrd	r2, r3, [r3]
 8002aa6:	f7fd fb95 	bl	80001d4 <__adddf3>
 8002aaa:	4602      	mov	r2, r0
 8002aac:	460b      	mov	r3, r1
 8002aae:	4640      	mov	r0, r8
 8002ab0:	4649      	mov	r1, r9
 8002ab2:	f7fd fd45 	bl	8000540 <__aeabi_dmul>
 8002ab6:	4602      	mov	r2, r0
 8002ab8:	460b      	mov	r3, r1
 8002aba:	4620      	mov	r0, r4
 8002abc:	4629      	mov	r1, r5
 8002abe:	f7fd fb89 	bl	80001d4 <__adddf3>
 8002ac2:	4602      	mov	r2, r0
 8002ac4:	460b      	mov	r3, r1
 8002ac6:	4915      	ldr	r1, [pc, #84]	; (8002b1c <ComputeLimbAngle+0x19c>)
 8002ac8:	e9c1 2300 	strd	r2, r3, [r1]

	#ifdef KNEE
	CM_limbAngle = compFiltAngle - CM_jointAngle[0];
 8002acc:	4b13      	ldr	r3, [pc, #76]	; (8002b1c <ComputeLimbAngle+0x19c>)
 8002ace:	e9d3 0100 	ldrd	r0, r1, [r3]
 8002ad2:	4b13      	ldr	r3, [pc, #76]	; (8002b20 <ComputeLimbAngle+0x1a0>)
 8002ad4:	e9d3 2300 	ldrd	r2, r3, [r3]
 8002ad8:	f7fd fb7a 	bl	80001d0 <__aeabi_dsub>
 8002adc:	4602      	mov	r2, r0
 8002ade:	460b      	mov	r3, r1
 8002ae0:	4910      	ldr	r1, [pc, #64]	; (8002b24 <ComputeLimbAngle+0x1a4>)
 8002ae2:	e9c1 2300 	strd	r2, r3, [r1]
	#endif
	#ifdef ANKLE
	CM_limbAngle = compFiltAngle + CM_jointAngle[0];
	#endif
}
 8002ae6:	bf00      	nop
 8002ae8:	3710      	adds	r7, #16
 8002aea:	46bd      	mov	sp, r7
 8002aec:	e8bd 83b0 	ldmia.w	sp!, {r4, r5, r7, r8, r9, pc}
 8002af0:	00000000 	.word	0x00000000
 8002af4:	40000000 	.word	0x40000000
 8002af8:	54442d18 	.word	0x54442d18
 8002afc:	400921fb 	.word	0x400921fb
 8002b00:	d2f1a9fc 	.word	0xd2f1a9fc
 8002b04:	3f60624d 	.word	0x3f60624d
 8002b08:	20000148 	.word	0x20000148
 8002b0c:	40668000 	.word	0x40668000
 8002b10:	20000004 	.word	0x20000004
 8002b14:	200002a0 	.word	0x200002a0
 8002b18:	3ff00000 	.word	0x3ff00000
 8002b1c:	200002a8 	.word	0x200002a8
 8002b20:	200000f0 	.word	0x200000f0
 8002b24:	200000e8 	.word	0x200000e8

08002b28 <RunStateMachine>:

void RunStateMachine(void)
{
 8002b28:	b5b0      	push	{r4, r5, r7, lr}
 8002b2a:	af00      	add	r7, sp, #0
	static enum StateMachine_e state;

	if(isFirst)
 8002b2c:	4b49      	ldr	r3, [pc, #292]	; (8002c54 <RunStateMachine+0x12c>)
 8002b2e:	781b      	ldrb	r3, [r3, #0]
 8002b30:	2b00      	cmp	r3, #0
 8002b32:	d002      	beq.n	8002b3a <RunStateMachine+0x12>
	{
		state = Stance;
 8002b34:	4b48      	ldr	r3, [pc, #288]	; (8002c58 <RunStateMachine+0x130>)
 8002b36:	2200      	movs	r2, #0
 8002b38:	701a      	strb	r2, [r3, #0]
	}

	switch(state)
 8002b3a:	4b47      	ldr	r3, [pc, #284]	; (8002c58 <RunStateMachine+0x130>)
 8002b3c:	781b      	ldrb	r3, [r3, #0]
 8002b3e:	2b02      	cmp	r3, #2
 8002b40:	d060      	beq.n	8002c04 <RunStateMachine+0xdc>
 8002b42:	2b02      	cmp	r3, #2
 8002b44:	f300 8084 	bgt.w	8002c50 <RunStateMachine+0x128>
 8002b48:	2b00      	cmp	r3, #0
 8002b4a:	d002      	beq.n	8002b52 <RunStateMachine+0x2a>
 8002b4c:	2b01      	cmp	r3, #1
 8002b4e:	d038      	beq.n	8002bc2 <RunStateMachine+0x9a>
			state = Stance;
		}

		break;
	}
}
 8002b50:	e07e      	b.n	8002c50 <RunStateMachine+0x128>
		CM_state = 1800;
 8002b52:	4b42      	ldr	r3, [pc, #264]	; (8002c5c <RunStateMachine+0x134>)
 8002b54:	f44f 62e1 	mov.w	r2, #1800	; 0x708
 8002b58:	801a      	strh	r2, [r3, #0]
		ProsCtrl.eqPoint = CM_StanceCtrl.eqPoint;
 8002b5a:	4b41      	ldr	r3, [pc, #260]	; (8002c60 <RunStateMachine+0x138>)
 8002b5c:	681b      	ldr	r3, [r3, #0]
 8002b5e:	4a41      	ldr	r2, [pc, #260]	; (8002c64 <RunStateMachine+0x13c>)
 8002b60:	6013      	str	r3, [r2, #0]
		ProsCtrl.kd = CM_StanceCtrl.kd;
 8002b62:	4b3f      	ldr	r3, [pc, #252]	; (8002c60 <RunStateMachine+0x138>)
 8002b64:	685b      	ldr	r3, [r3, #4]
 8002b66:	4a3f      	ldr	r2, [pc, #252]	; (8002c64 <RunStateMachine+0x13c>)
 8002b68:	6053      	str	r3, [r2, #4]
		ProsCtrl.kp = CM_StanceCtrl.kp;
 8002b6a:	4b3d      	ldr	r3, [pc, #244]	; (8002c60 <RunStateMachine+0x138>)
 8002b6c:	689b      	ldr	r3, [r3, #8]
 8002b6e:	4a3d      	ldr	r2, [pc, #244]	; (8002c64 <RunStateMachine+0x13c>)
 8002b70:	6093      	str	r3, [r2, #8]
		if((CM_LoadCell_Filtered->top[0] < CM_lcTop_staticUpperLimit) && (CM_LoadCell_Filtered->bot[0] < CM_lcBot_staticUpperLimit))
 8002b72:	4b3d      	ldr	r3, [pc, #244]	; (8002c68 <RunStateMachine+0x140>)
 8002b74:	e9d3 4506 	ldrd	r4, r5, [r3, #24]
 8002b78:	4b3c      	ldr	r3, [pc, #240]	; (8002c6c <RunStateMachine+0x144>)
 8002b7a:	681b      	ldr	r3, [r3, #0]
 8002b7c:	4618      	mov	r0, r3
 8002b7e:	f7fd fc87 	bl	8000490 <__aeabi_f2d>
 8002b82:	4602      	mov	r2, r0
 8002b84:	460b      	mov	r3, r1
 8002b86:	4620      	mov	r0, r4
 8002b88:	4629      	mov	r1, r5
 8002b8a:	f7fd ff4b 	bl	8000a24 <__aeabi_dcmplt>
 8002b8e:	4603      	mov	r3, r0
 8002b90:	2b00      	cmp	r3, #0
 8002b92:	d100      	bne.n	8002b96 <RunStateMachine+0x6e>
		break;
 8002b94:	e05c      	b.n	8002c50 <RunStateMachine+0x128>
		if((CM_LoadCell_Filtered->top[0] < CM_lcTop_staticUpperLimit) && (CM_LoadCell_Filtered->bot[0] < CM_lcBot_staticUpperLimit))
 8002b96:	4b34      	ldr	r3, [pc, #208]	; (8002c68 <RunStateMachine+0x140>)
 8002b98:	e9d3 4500 	ldrd	r4, r5, [r3]
 8002b9c:	4b34      	ldr	r3, [pc, #208]	; (8002c70 <RunStateMachine+0x148>)
 8002b9e:	681b      	ldr	r3, [r3, #0]
 8002ba0:	4618      	mov	r0, r3
 8002ba2:	f7fd fc75 	bl	8000490 <__aeabi_f2d>
 8002ba6:	4602      	mov	r2, r0
 8002ba8:	460b      	mov	r3, r1
 8002baa:	4620      	mov	r0, r4
 8002bac:	4629      	mov	r1, r5
 8002bae:	f7fd ff39 	bl	8000a24 <__aeabi_dcmplt>
 8002bb2:	4603      	mov	r3, r0
 8002bb4:	2b00      	cmp	r3, #0
 8002bb6:	d100      	bne.n	8002bba <RunStateMachine+0x92>
		break;
 8002bb8:	e04a      	b.n	8002c50 <RunStateMachine+0x128>
			state = SwingFlexion;
 8002bba:	4b27      	ldr	r3, [pc, #156]	; (8002c58 <RunStateMachine+0x130>)
 8002bbc:	2201      	movs	r2, #1
 8002bbe:	701a      	strb	r2, [r3, #0]
		break;
 8002bc0:	e046      	b.n	8002c50 <RunStateMachine+0x128>
		CM_state = 2400;
 8002bc2:	4b26      	ldr	r3, [pc, #152]	; (8002c5c <RunStateMachine+0x134>)
 8002bc4:	f44f 6216 	mov.w	r2, #2400	; 0x960
 8002bc8:	801a      	strh	r2, [r3, #0]
		ProsCtrl.eqPoint = CM_SwingFlexCtrl.eqPoint;
 8002bca:	4b2a      	ldr	r3, [pc, #168]	; (8002c74 <RunStateMachine+0x14c>)
 8002bcc:	681b      	ldr	r3, [r3, #0]
 8002bce:	4a25      	ldr	r2, [pc, #148]	; (8002c64 <RunStateMachine+0x13c>)
 8002bd0:	6013      	str	r3, [r2, #0]
		ProsCtrl.kd = CM_SwingFlexCtrl.kd;
 8002bd2:	4b28      	ldr	r3, [pc, #160]	; (8002c74 <RunStateMachine+0x14c>)
 8002bd4:	685b      	ldr	r3, [r3, #4]
 8002bd6:	4a23      	ldr	r2, [pc, #140]	; (8002c64 <RunStateMachine+0x13c>)
 8002bd8:	6053      	str	r3, [r2, #4]
		ProsCtrl.kp = CM_SwingFlexCtrl.kp;
 8002bda:	4b26      	ldr	r3, [pc, #152]	; (8002c74 <RunStateMachine+0x14c>)
 8002bdc:	689b      	ldr	r3, [r3, #8]
 8002bde:	4a21      	ldr	r2, [pc, #132]	; (8002c64 <RunStateMachine+0x13c>)
 8002be0:	6093      	str	r3, [r2, #8]
		if(CM_jointSpeed > 0)
 8002be2:	4b25      	ldr	r3, [pc, #148]	; (8002c78 <RunStateMachine+0x150>)
 8002be4:	e9d3 0100 	ldrd	r0, r1, [r3]
 8002be8:	f04f 0200 	mov.w	r2, #0
 8002bec:	f04f 0300 	mov.w	r3, #0
 8002bf0:	f7fd ff36 	bl	8000a60 <__aeabi_dcmpgt>
 8002bf4:	4603      	mov	r3, r0
 8002bf6:	2b00      	cmp	r3, #0
 8002bf8:	d100      	bne.n	8002bfc <RunStateMachine+0xd4>
		break;
 8002bfa:	e029      	b.n	8002c50 <RunStateMachine+0x128>
			state = SwingExtension;
 8002bfc:	4b16      	ldr	r3, [pc, #88]	; (8002c58 <RunStateMachine+0x130>)
 8002bfe:	2202      	movs	r2, #2
 8002c00:	701a      	strb	r2, [r3, #0]
		break;
 8002c02:	e025      	b.n	8002c50 <RunStateMachine+0x128>
		CM_state = 2900;
 8002c04:	4b15      	ldr	r3, [pc, #84]	; (8002c5c <RunStateMachine+0x134>)
 8002c06:	f640 3254 	movw	r2, #2900	; 0xb54
 8002c0a:	801a      	strh	r2, [r3, #0]
		ProsCtrl.eqPoint = CM_SwingExtCtrl.eqPoint;
 8002c0c:	4b1b      	ldr	r3, [pc, #108]	; (8002c7c <RunStateMachine+0x154>)
 8002c0e:	681b      	ldr	r3, [r3, #0]
 8002c10:	4a14      	ldr	r2, [pc, #80]	; (8002c64 <RunStateMachine+0x13c>)
 8002c12:	6013      	str	r3, [r2, #0]
		ProsCtrl.kd = CM_SwingExtCtrl.kd;
 8002c14:	4b19      	ldr	r3, [pc, #100]	; (8002c7c <RunStateMachine+0x154>)
 8002c16:	685b      	ldr	r3, [r3, #4]
 8002c18:	4a12      	ldr	r2, [pc, #72]	; (8002c64 <RunStateMachine+0x13c>)
 8002c1a:	6053      	str	r3, [r2, #4]
		ProsCtrl.kp = CM_SwingExtCtrl.kp;
 8002c1c:	4b17      	ldr	r3, [pc, #92]	; (8002c7c <RunStateMachine+0x154>)
 8002c1e:	689b      	ldr	r3, [r3, #8]
 8002c20:	4a10      	ldr	r2, [pc, #64]	; (8002c64 <RunStateMachine+0x13c>)
 8002c22:	6093      	str	r3, [r2, #8]
		if(CM_LoadCell_Filtered->bot[0] > CM_lcBot_staticUpperLimit)
 8002c24:	4b10      	ldr	r3, [pc, #64]	; (8002c68 <RunStateMachine+0x140>)
 8002c26:	e9d3 4500 	ldrd	r4, r5, [r3]
 8002c2a:	4b11      	ldr	r3, [pc, #68]	; (8002c70 <RunStateMachine+0x148>)
 8002c2c:	681b      	ldr	r3, [r3, #0]
 8002c2e:	4618      	mov	r0, r3
 8002c30:	f7fd fc2e 	bl	8000490 <__aeabi_f2d>
 8002c34:	4602      	mov	r2, r0
 8002c36:	460b      	mov	r3, r1
 8002c38:	4620      	mov	r0, r4
 8002c3a:	4629      	mov	r1, r5
 8002c3c:	f7fd ff10 	bl	8000a60 <__aeabi_dcmpgt>
 8002c40:	4603      	mov	r3, r0
 8002c42:	2b00      	cmp	r3, #0
 8002c44:	d100      	bne.n	8002c48 <RunStateMachine+0x120>
		break;
 8002c46:	e002      	b.n	8002c4e <RunStateMachine+0x126>
			state = Stance;
 8002c48:	4b03      	ldr	r3, [pc, #12]	; (8002c58 <RunStateMachine+0x130>)
 8002c4a:	2200      	movs	r2, #0
 8002c4c:	701a      	strb	r2, [r3, #0]
		break;
 8002c4e:	bf00      	nop
}
 8002c50:	bf00      	nop
 8002c52:	bdb0      	pop	{r4, r5, r7, pc}
 8002c54:	20000008 	.word	0x20000008
 8002c58:	200002b0 	.word	0x200002b0
 8002c5c:	2000029a 	.word	0x2000029a
 8002c60:	20000120 	.word	0x20000120
 8002c64:	200000a0 	.word	0x200000a0
 8002c68:	20000208 	.word	0x20000208
 8002c6c:	20000110 	.word	0x20000110
 8002c70:	2000010c 	.word	0x2000010c
 8002c74:	2000012c 	.word	0x2000012c
 8002c78:	20000100 	.word	0x20000100
 8002c7c:	20000138 	.word	0x20000138

08002c80 <RunImpedanceControl>:

void RunImpedanceControl(void)
{
 8002c80:	b5b0      	push	{r4, r5, r7, lr}
 8002c82:	b086      	sub	sp, #24
 8002c84:	af00      	add	r7, sp, #0
	float gearRatio = 40.0f;
 8002c86:	4b33      	ldr	r3, [pc, #204]	; (8002d54 <RunImpedanceControl+0xd4>)
 8002c88:	617b      	str	r3, [r7, #20]
	float nomCurrent = 8.0f;						// is this number accurate??
 8002c8a:	f04f 4382 	mov.w	r3, #1090519040	; 0x41000000
 8002c8e:	613b      	str	r3, [r7, #16]
	float torqueConst = 60.0f / (2*M_PI * 100);		// Units in N*m/A, for Kv = 100 rpm/V
 8002c90:	4b31      	ldr	r3, [pc, #196]	; (8002d58 <RunImpedanceControl+0xd8>)
 8002c92:	60fb      	str	r3, [r7, #12]

	float errorPos = ProsCtrl.eqPoint - CM_jointAngle[0];
 8002c94:	4b31      	ldr	r3, [pc, #196]	; (8002d5c <RunImpedanceControl+0xdc>)
 8002c96:	681b      	ldr	r3, [r3, #0]
 8002c98:	4618      	mov	r0, r3
 8002c9a:	f7fd fbf9 	bl	8000490 <__aeabi_f2d>
 8002c9e:	4b30      	ldr	r3, [pc, #192]	; (8002d60 <RunImpedanceControl+0xe0>)
 8002ca0:	e9d3 2300 	ldrd	r2, r3, [r3]
 8002ca4:	f7fd fa94 	bl	80001d0 <__aeabi_dsub>
 8002ca8:	4602      	mov	r2, r0
 8002caa:	460b      	mov	r3, r1
 8002cac:	4610      	mov	r0, r2
 8002cae:	4619      	mov	r1, r3
 8002cb0:	f7fd fef6 	bl	8000aa0 <__aeabi_d2f>
 8002cb4:	4603      	mov	r3, r0
 8002cb6:	60bb      	str	r3, [r7, #8]

	#ifdef KNEE
	CM_jointTorque = -(ProsCtrl.kp*errorPos - ProsCtrl.kd*CM_jointSpeed);
 8002cb8:	4b28      	ldr	r3, [pc, #160]	; (8002d5c <RunImpedanceControl+0xdc>)
 8002cba:	ed93 7a02 	vldr	s14, [r3, #8]
 8002cbe:	edd7 7a02 	vldr	s15, [r7, #8]
 8002cc2:	ee67 7a27 	vmul.f32	s15, s14, s15
 8002cc6:	ee17 0a90 	vmov	r0, s15
 8002cca:	f7fd fbe1 	bl	8000490 <__aeabi_f2d>
 8002cce:	4604      	mov	r4, r0
 8002cd0:	460d      	mov	r5, r1
 8002cd2:	4b22      	ldr	r3, [pc, #136]	; (8002d5c <RunImpedanceControl+0xdc>)
 8002cd4:	685b      	ldr	r3, [r3, #4]
 8002cd6:	4618      	mov	r0, r3
 8002cd8:	f7fd fbda 	bl	8000490 <__aeabi_f2d>
 8002cdc:	4b21      	ldr	r3, [pc, #132]	; (8002d64 <RunImpedanceControl+0xe4>)
 8002cde:	e9d3 2300 	ldrd	r2, r3, [r3]
 8002ce2:	f7fd fc2d 	bl	8000540 <__aeabi_dmul>
 8002ce6:	4602      	mov	r2, r0
 8002ce8:	460b      	mov	r3, r1
 8002cea:	4620      	mov	r0, r4
 8002cec:	4629      	mov	r1, r5
 8002cee:	f7fd fa6f 	bl	80001d0 <__aeabi_dsub>
 8002cf2:	4602      	mov	r2, r0
 8002cf4:	460b      	mov	r3, r1
 8002cf6:	4610      	mov	r0, r2
 8002cf8:	4619      	mov	r1, r3
 8002cfa:	f7fd fed1 	bl	8000aa0 <__aeabi_d2f>
 8002cfe:	4603      	mov	r3, r0
 8002d00:	ee07 3a90 	vmov	s15, r3
 8002d04:	eef1 7a67 	vneg.f32	s15, s15
 8002d08:	4b17      	ldr	r3, [pc, #92]	; (8002d68 <RunImpedanceControl+0xe8>)
 8002d0a:	edc3 7a00 	vstr	s15, [r3]
	#endif
	#ifdef ANKLE
	CM_jointTorque_nm = ProsCtrl.kp*errorPos - ProsCtrl.kd*CM_jointSpeed;
	#endif

	int32_t motorTorque = CM_jointTorque / (torqueConst * gearRatio * nomCurrent) * 1000;
 8002d0e:	4b16      	ldr	r3, [pc, #88]	; (8002d68 <RunImpedanceControl+0xe8>)
 8002d10:	edd3 6a00 	vldr	s13, [r3]
 8002d14:	ed97 7a03 	vldr	s14, [r7, #12]
 8002d18:	edd7 7a05 	vldr	s15, [r7, #20]
 8002d1c:	ee27 7a27 	vmul.f32	s14, s14, s15
 8002d20:	edd7 7a04 	vldr	s15, [r7, #16]
 8002d24:	ee27 7a27 	vmul.f32	s14, s14, s15
 8002d28:	eec6 7a87 	vdiv.f32	s15, s13, s14
 8002d2c:	ed9f 7a0f 	vldr	s14, [pc, #60]	; 8002d6c <RunImpedanceControl+0xec>
 8002d30:	ee67 7a87 	vmul.f32	s15, s15, s14
 8002d34:	eefd 7ae7 	vcvt.s32.f32	s15, s15
 8002d38:	ee17 3a90 	vmov	r3, s15
 8002d3c:	607b      	str	r3, [r7, #4]
	EPOS4_SetTorque(CAN_ID, motorTorque);
 8002d3e:	4b0c      	ldr	r3, [pc, #48]	; (8002d70 <RunImpedanceControl+0xf0>)
 8002d40:	881b      	ldrh	r3, [r3, #0]
 8002d42:	6879      	ldr	r1, [r7, #4]
 8002d44:	4618      	mov	r0, r3
 8002d46:	f000 fd11 	bl	800376c <EPOS4_SetTorque>
}
 8002d4a:	bf00      	nop
 8002d4c:	3718      	adds	r7, #24
 8002d4e:	46bd      	mov	sp, r7
 8002d50:	bdb0      	pop	{r4, r5, r7, pc}
 8002d52:	bf00      	nop
 8002d54:	42200000 	.word	0x42200000
 8002d58:	3dc391d1 	.word	0x3dc391d1
 8002d5c:	200000a0 	.word	0x200000a0
 8002d60:	200000f0 	.word	0x200000f0
 8002d64:	20000100 	.word	0x20000100
 8002d68:	20000108 	.word	0x20000108
 8002d6c:	447a0000 	.word	0x447a0000
 8002d70:	20000000 	.word	0x20000000

08002d74 <RunTestProgram>:

void RunTestProgram(void)
{
 8002d74:	b580      	push	{r7, lr}
 8002d76:	b088      	sub	sp, #32
 8002d78:	af00      	add	r7, sp, #0
	switch (testProgram)
 8002d7a:	4b3c      	ldr	r3, [pc, #240]	; (8002e6c <RunTestProgram+0xf8>)
 8002d7c:	781b      	ldrb	r3, [r3, #0]
 8002d7e:	2b04      	cmp	r3, #4
 8002d80:	d870      	bhi.n	8002e64 <RunTestProgram+0xf0>
 8002d82:	a201      	add	r2, pc, #4	; (adr r2, 8002d88 <RunTestProgram+0x14>)
 8002d84:	f852 f023 	ldr.w	pc, [r2, r3, lsl #2]
 8002d88:	08002e63 	.word	0x08002e63
 8002d8c:	08002e63 	.word	0x08002e63
 8002d90:	08002d9d 	.word	0x08002d9d
 8002d94:	08002daf 	.word	0x08002daf
 8002d98:	08002de7 	.word	0x08002de7
		break;
	case ReadOnly:
		break;
	case ConstantTorque:
	{
		int32_t torque = 100;
 8002d9c:	2364      	movs	r3, #100	; 0x64
 8002d9e:	607b      	str	r3, [r7, #4]
		EPOS4_SetTorque(CAN_ID, torque);
 8002da0:	4b33      	ldr	r3, [pc, #204]	; (8002e70 <RunTestProgram+0xfc>)
 8002da2:	881b      	ldrh	r3, [r3, #0]
 8002da4:	6879      	ldr	r1, [r7, #4]
 8002da6:	4618      	mov	r0, r3
 8002da8:	f000 fce0 	bl	800376c <EPOS4_SetTorque>
		break;
 8002dac:	e05a      	b.n	8002e64 <RunTestProgram+0xf0>
	}
	case MagneticEncoderBias:
	{
		uint16_t i;

		uint32_t sum = 0;
 8002dae:	2300      	movs	r3, #0
 8002db0:	61bb      	str	r3, [r7, #24]

		for(i = 0; i < 1000; i++)
 8002db2:	2300      	movs	r3, #0
 8002db4:	83fb      	strh	r3, [r7, #30]
 8002db6:	e00a      	b.n	8002dce <RunTestProgram+0x5a>
		{
			uint16_t bias = AS5145B_ReadPosition_Raw();
 8002db8:	f000 fc28 	bl	800360c <AS5145B_ReadPosition_Raw>
 8002dbc:	4603      	mov	r3, r0
 8002dbe:	817b      	strh	r3, [r7, #10]
			sum += bias;
 8002dc0:	897b      	ldrh	r3, [r7, #10]
 8002dc2:	69ba      	ldr	r2, [r7, #24]
 8002dc4:	4413      	add	r3, r2
 8002dc6:	61bb      	str	r3, [r7, #24]
		for(i = 0; i < 1000; i++)
 8002dc8:	8bfb      	ldrh	r3, [r7, #30]
 8002dca:	3301      	adds	r3, #1
 8002dcc:	83fb      	strh	r3, [r7, #30]
 8002dce:	8bfb      	ldrh	r3, [r7, #30]
 8002dd0:	f5b3 7f7a 	cmp.w	r3, #1000	; 0x3e8
 8002dd4:	d3f0      	bcc.n	8002db8 <RunTestProgram+0x44>
		}

		CM_magEncBias = sum / i;
 8002dd6:	8bfb      	ldrh	r3, [r7, #30]
 8002dd8:	69ba      	ldr	r2, [r7, #24]
 8002dda:	fbb2 f3f3 	udiv	r3, r2, r3
 8002dde:	b29a      	uxth	r2, r3
 8002de0:	4b24      	ldr	r3, [pc, #144]	; (8002e74 <RunTestProgram+0x100>)
 8002de2:	801a      	strh	r2, [r3, #0]

		break;
 8002de4:	e03e      	b.n	8002e64 <RunTestProgram+0xf0>
	}
	case ImpedanceControl:
	{
		// First compute average of current position and use as equilibrium point
		// Then run impedance control
		if (isFirst)
 8002de6:	4b24      	ldr	r3, [pc, #144]	; (8002e78 <RunTestProgram+0x104>)
 8002de8:	781b      	ldrb	r3, [r3, #0]
 8002dea:	2b00      	cmp	r3, #0
 8002dec:	d02a      	beq.n	8002e44 <RunTestProgram+0xd0>
		{
			uint16_t i;
			float sum = 0.0f;
 8002dee:	f04f 0300 	mov.w	r3, #0
 8002df2:	613b      	str	r3, [r7, #16]

			for(i = 0; i < 1000; i++)
 8002df4:	2300      	movs	r3, #0
 8002df6:	82fb      	strh	r3, [r7, #22]
 8002df8:	e00e      	b.n	8002e18 <RunTestProgram+0xa4>
			{
				float pos = AS5145B_ReadPosition_Deg();
 8002dfa:	f000 fc15 	bl	8003628 <AS5145B_ReadPosition_Deg>
 8002dfe:	ed87 0a03 	vstr	s0, [r7, #12]
				sum += pos;
 8002e02:	ed97 7a04 	vldr	s14, [r7, #16]
 8002e06:	edd7 7a03 	vldr	s15, [r7, #12]
 8002e0a:	ee77 7a27 	vadd.f32	s15, s14, s15
 8002e0e:	edc7 7a04 	vstr	s15, [r7, #16]
			for(i = 0; i < 1000; i++)
 8002e12:	8afb      	ldrh	r3, [r7, #22]
 8002e14:	3301      	adds	r3, #1
 8002e16:	82fb      	strh	r3, [r7, #22]
 8002e18:	8afb      	ldrh	r3, [r7, #22]
 8002e1a:	f5b3 7f7a 	cmp.w	r3, #1000	; 0x3e8
 8002e1e:	d3ec      	bcc.n	8002dfa <RunTestProgram+0x86>
			}

			CM_ImpCtrl.eqPoint = sum / i - encBias;
 8002e20:	8afb      	ldrh	r3, [r7, #22]
 8002e22:	ee07 3a90 	vmov	s15, r3
 8002e26:	eef8 7ae7 	vcvt.f32.s32	s15, s15
 8002e2a:	edd7 6a04 	vldr	s13, [r7, #16]
 8002e2e:	ee86 7aa7 	vdiv.f32	s14, s13, s15
 8002e32:	4b12      	ldr	r3, [pc, #72]	; (8002e7c <RunTestProgram+0x108>)
 8002e34:	edd3 7a00 	vldr	s15, [r3]
 8002e38:	ee77 7a67 	vsub.f32	s15, s14, s15
 8002e3c:	4b10      	ldr	r3, [pc, #64]	; (8002e80 <RunTestProgram+0x10c>)
 8002e3e:	edc3 7a00 	vstr	s15, [r3]
			ProsCtrl.eqPoint = CM_ImpCtrl.eqPoint;

			RunImpedanceControl();
		}

		break;
 8002e42:	e00f      	b.n	8002e64 <RunTestProgram+0xf0>
			ProsCtrl.kd = CM_ImpCtrl.kd;
 8002e44:	4b0e      	ldr	r3, [pc, #56]	; (8002e80 <RunTestProgram+0x10c>)
 8002e46:	685b      	ldr	r3, [r3, #4]
 8002e48:	4a0e      	ldr	r2, [pc, #56]	; (8002e84 <RunTestProgram+0x110>)
 8002e4a:	6053      	str	r3, [r2, #4]
			ProsCtrl.kp = CM_ImpCtrl.kp;
 8002e4c:	4b0c      	ldr	r3, [pc, #48]	; (8002e80 <RunTestProgram+0x10c>)
 8002e4e:	689b      	ldr	r3, [r3, #8]
 8002e50:	4a0c      	ldr	r2, [pc, #48]	; (8002e84 <RunTestProgram+0x110>)
 8002e52:	6093      	str	r3, [r2, #8]
			ProsCtrl.eqPoint = CM_ImpCtrl.eqPoint;
 8002e54:	4b0a      	ldr	r3, [pc, #40]	; (8002e80 <RunTestProgram+0x10c>)
 8002e56:	681b      	ldr	r3, [r3, #0]
 8002e58:	4a0a      	ldr	r2, [pc, #40]	; (8002e84 <RunTestProgram+0x110>)
 8002e5a:	6013      	str	r3, [r2, #0]
			RunImpedanceControl();
 8002e5c:	f7ff ff10 	bl	8002c80 <RunImpedanceControl>
		break;
 8002e60:	e000      	b.n	8002e64 <RunTestProgram+0xf0>
		break;
 8002e62:	bf00      	nop
	}
	}
}
 8002e64:	bf00      	nop
 8002e66:	3720      	adds	r7, #32
 8002e68:	46bd      	mov	sp, r7
 8002e6a:	bd80      	pop	{r7, pc}
 8002e6c:	2000009d 	.word	0x2000009d
 8002e70:	20000000 	.word	0x20000000
 8002e74:	20000298 	.word	0x20000298
 8002e78:	20000008 	.word	0x20000008
 8002e7c:	2000000c 	.word	0x2000000c
 8002e80:	20000114 	.word	0x20000114
 8002e84:	200000a0 	.word	0x200000a0

08002e88 <LL_AHB2_GRP1_EnableClock>:
 8002e88:	b480      	push	{r7}
 8002e8a:	b085      	sub	sp, #20
 8002e8c:	af00      	add	r7, sp, #0
 8002e8e:	6078      	str	r0, [r7, #4]
 8002e90:	4b08      	ldr	r3, [pc, #32]	; (8002eb4 <LL_AHB2_GRP1_EnableClock+0x2c>)
 8002e92:	6cda      	ldr	r2, [r3, #76]	; 0x4c
 8002e94:	4907      	ldr	r1, [pc, #28]	; (8002eb4 <LL_AHB2_GRP1_EnableClock+0x2c>)
 8002e96:	687b      	ldr	r3, [r7, #4]
 8002e98:	4313      	orrs	r3, r2
 8002e9a:	64cb      	str	r3, [r1, #76]	; 0x4c
 8002e9c:	4b05      	ldr	r3, [pc, #20]	; (8002eb4 <LL_AHB2_GRP1_EnableClock+0x2c>)
 8002e9e:	6cda      	ldr	r2, [r3, #76]	; 0x4c
 8002ea0:	687b      	ldr	r3, [r7, #4]
 8002ea2:	4013      	ands	r3, r2
 8002ea4:	60fb      	str	r3, [r7, #12]
 8002ea6:	68fb      	ldr	r3, [r7, #12]
 8002ea8:	bf00      	nop
 8002eaa:	3714      	adds	r7, #20
 8002eac:	46bd      	mov	sp, r7
 8002eae:	f85d 7b04 	ldr.w	r7, [sp], #4
 8002eb2:	4770      	bx	lr
 8002eb4:	40021000 	.word	0x40021000

08002eb8 <LL_APB1_GRP1_EnableClock>:
 8002eb8:	b480      	push	{r7}
 8002eba:	b085      	sub	sp, #20
 8002ebc:	af00      	add	r7, sp, #0
 8002ebe:	6078      	str	r0, [r7, #4]
 8002ec0:	4b08      	ldr	r3, [pc, #32]	; (8002ee4 <LL_APB1_GRP1_EnableClock+0x2c>)
 8002ec2:	6d9a      	ldr	r2, [r3, #88]	; 0x58
 8002ec4:	4907      	ldr	r1, [pc, #28]	; (8002ee4 <LL_APB1_GRP1_EnableClock+0x2c>)
 8002ec6:	687b      	ldr	r3, [r7, #4]
 8002ec8:	4313      	orrs	r3, r2
 8002eca:	658b      	str	r3, [r1, #88]	; 0x58
 8002ecc:	4b05      	ldr	r3, [pc, #20]	; (8002ee4 <LL_APB1_GRP1_EnableClock+0x2c>)
 8002ece:	6d9a      	ldr	r2, [r3, #88]	; 0x58
 8002ed0:	687b      	ldr	r3, [r7, #4]
 8002ed2:	4013      	ands	r3, r2
 8002ed4:	60fb      	str	r3, [r7, #12]
 8002ed6:	68fb      	ldr	r3, [r7, #12]
 8002ed8:	bf00      	nop
 8002eda:	3714      	adds	r7, #20
 8002edc:	46bd      	mov	sp, r7
 8002ede:	f85d 7b04 	ldr.w	r7, [sp], #4
 8002ee2:	4770      	bx	lr
 8002ee4:	40021000 	.word	0x40021000

08002ee8 <LL_APB2_GRP1_EnableClock>:
 8002ee8:	b480      	push	{r7}
 8002eea:	b085      	sub	sp, #20
 8002eec:	af00      	add	r7, sp, #0
 8002eee:	6078      	str	r0, [r7, #4]
 8002ef0:	4b08      	ldr	r3, [pc, #32]	; (8002f14 <LL_APB2_GRP1_EnableClock+0x2c>)
 8002ef2:	6e1a      	ldr	r2, [r3, #96]	; 0x60
 8002ef4:	4907      	ldr	r1, [pc, #28]	; (8002f14 <LL_APB2_GRP1_EnableClock+0x2c>)
 8002ef6:	687b      	ldr	r3, [r7, #4]
 8002ef8:	4313      	orrs	r3, r2
 8002efa:	660b      	str	r3, [r1, #96]	; 0x60
 8002efc:	4b05      	ldr	r3, [pc, #20]	; (8002f14 <LL_APB2_GRP1_EnableClock+0x2c>)
 8002efe:	6e1a      	ldr	r2, [r3, #96]	; 0x60
 8002f00:	687b      	ldr	r3, [r7, #4]
 8002f02:	4013      	ands	r3, r2
 8002f04:	60fb      	str	r3, [r7, #12]
 8002f06:	68fb      	ldr	r3, [r7, #12]
 8002f08:	bf00      	nop
 8002f0a:	3714      	adds	r7, #20
 8002f0c:	46bd      	mov	sp, r7
 8002f0e:	f85d 7b04 	ldr.w	r7, [sp], #4
 8002f12:	4770      	bx	lr
 8002f14:	40021000 	.word	0x40021000

08002f18 <LL_SPI_SetStandard>:
 8002f18:	b480      	push	{r7}
 8002f1a:	b083      	sub	sp, #12
 8002f1c:	af00      	add	r7, sp, #0
 8002f1e:	6078      	str	r0, [r7, #4]
 8002f20:	6039      	str	r1, [r7, #0]
 8002f22:	687b      	ldr	r3, [r7, #4]
 8002f24:	685b      	ldr	r3, [r3, #4]
 8002f26:	f023 0210 	bic.w	r2, r3, #16
 8002f2a:	683b      	ldr	r3, [r7, #0]
 8002f2c:	431a      	orrs	r2, r3
 8002f2e:	687b      	ldr	r3, [r7, #4]
 8002f30:	605a      	str	r2, [r3, #4]
 8002f32:	bf00      	nop
 8002f34:	370c      	adds	r7, #12
 8002f36:	46bd      	mov	sp, r7
 8002f38:	f85d 7b04 	ldr.w	r7, [sp], #4
 8002f3c:	4770      	bx	lr

08002f3e <LL_SPI_DisableNSSPulseMgt>:
 8002f3e:	b480      	push	{r7}
 8002f40:	b083      	sub	sp, #12
 8002f42:	af00      	add	r7, sp, #0
 8002f44:	6078      	str	r0, [r7, #4]
 8002f46:	687b      	ldr	r3, [r7, #4]
 8002f48:	685b      	ldr	r3, [r3, #4]
 8002f4a:	f023 0208 	bic.w	r2, r3, #8
 8002f4e:	687b      	ldr	r3, [r7, #4]
 8002f50:	605a      	str	r2, [r3, #4]
 8002f52:	bf00      	nop
 8002f54:	370c      	adds	r7, #12
 8002f56:	46bd      	mov	sp, r7
 8002f58:	f85d 7b04 	ldr.w	r7, [sp], #4
 8002f5c:	4770      	bx	lr
	...

08002f60 <MX_SPI1_Init>:
 8002f60:	b580      	push	{r7, lr}
 8002f62:	b090      	sub	sp, #64	; 0x40
 8002f64:	af00      	add	r7, sp, #0
 8002f66:	f107 0318 	add.w	r3, r7, #24
 8002f6a:	2228      	movs	r2, #40	; 0x28
 8002f6c:	2100      	movs	r1, #0
 8002f6e:	4618      	mov	r0, r3
 8002f70:	f002 fc22 	bl	80057b8 <memset>
 8002f74:	463b      	mov	r3, r7
 8002f76:	2200      	movs	r2, #0
 8002f78:	601a      	str	r2, [r3, #0]
 8002f7a:	605a      	str	r2, [r3, #4]
 8002f7c:	609a      	str	r2, [r3, #8]
 8002f7e:	60da      	str	r2, [r3, #12]
 8002f80:	611a      	str	r2, [r3, #16]
 8002f82:	615a      	str	r2, [r3, #20]
 8002f84:	f44f 5080 	mov.w	r0, #4096	; 0x1000
 8002f88:	f7ff ffae 	bl	8002ee8 <LL_APB2_GRP1_EnableClock>
 8002f8c:	2001      	movs	r0, #1
 8002f8e:	f7ff ff7b 	bl	8002e88 <LL_AHB2_GRP1_EnableClock>
 8002f92:	23e0      	movs	r3, #224	; 0xe0
 8002f94:	603b      	str	r3, [r7, #0]
 8002f96:	2302      	movs	r3, #2
 8002f98:	607b      	str	r3, [r7, #4]
 8002f9a:	2303      	movs	r3, #3
 8002f9c:	60bb      	str	r3, [r7, #8]
 8002f9e:	2300      	movs	r3, #0
 8002fa0:	60fb      	str	r3, [r7, #12]
 8002fa2:	2300      	movs	r3, #0
 8002fa4:	613b      	str	r3, [r7, #16]
 8002fa6:	2305      	movs	r3, #5
 8002fa8:	617b      	str	r3, [r7, #20]
 8002faa:	463b      	mov	r3, r7
 8002fac:	4619      	mov	r1, r3
 8002fae:	f04f 4090 	mov.w	r0, #1207959552	; 0x48000000
 8002fb2:	f001 fdc3 	bl	8004b3c <LL_GPIO_Init>
 8002fb6:	2300      	movs	r3, #0
 8002fb8:	61bb      	str	r3, [r7, #24]
 8002fba:	f44f 7382 	mov.w	r3, #260	; 0x104
 8002fbe:	61fb      	str	r3, [r7, #28]
 8002fc0:	f44f 63e0 	mov.w	r3, #1792	; 0x700
 8002fc4:	623b      	str	r3, [r7, #32]
 8002fc6:	2302      	movs	r3, #2
 8002fc8:	627b      	str	r3, [r7, #36]	; 0x24
 8002fca:	2301      	movs	r3, #1
 8002fcc:	62bb      	str	r3, [r7, #40]	; 0x28
 8002fce:	f44f 7300 	mov.w	r3, #512	; 0x200
 8002fd2:	62fb      	str	r3, [r7, #44]	; 0x2c
 8002fd4:	2308      	movs	r3, #8
 8002fd6:	633b      	str	r3, [r7, #48]	; 0x30
 8002fd8:	2300      	movs	r3, #0
 8002fda:	637b      	str	r3, [r7, #52]	; 0x34
 8002fdc:	2300      	movs	r3, #0
 8002fde:	63bb      	str	r3, [r7, #56]	; 0x38
 8002fe0:	2307      	movs	r3, #7
 8002fe2:	63fb      	str	r3, [r7, #60]	; 0x3c
 8002fe4:	f107 0318 	add.w	r3, r7, #24
 8002fe8:	4619      	mov	r1, r3
 8002fea:	4807      	ldr	r0, [pc, #28]	; (8003008 <MX_SPI1_Init+0xa8>)
 8002fec:	f002 fa0e 	bl	800540c <LL_SPI_Init>
 8002ff0:	2100      	movs	r1, #0
 8002ff2:	4805      	ldr	r0, [pc, #20]	; (8003008 <MX_SPI1_Init+0xa8>)
 8002ff4:	f7ff ff90 	bl	8002f18 <LL_SPI_SetStandard>
 8002ff8:	4803      	ldr	r0, [pc, #12]	; (8003008 <MX_SPI1_Init+0xa8>)
 8002ffa:	f7ff ffa0 	bl	8002f3e <LL_SPI_DisableNSSPulseMgt>
 8002ffe:	bf00      	nop
 8003000:	3740      	adds	r7, #64	; 0x40
 8003002:	46bd      	mov	sp, r7
 8003004:	bd80      	pop	{r7, pc}
 8003006:	bf00      	nop
 8003008:	40013000 	.word	0x40013000

0800300c <MX_SPI2_Init>:
 800300c:	b580      	push	{r7, lr}
 800300e:	b090      	sub	sp, #64	; 0x40
 8003010:	af00      	add	r7, sp, #0
 8003012:	f107 0318 	add.w	r3, r7, #24
 8003016:	2228      	movs	r2, #40	; 0x28
 8003018:	2100      	movs	r1, #0
 800301a:	4618      	mov	r0, r3
 800301c:	f002 fbcc 	bl	80057b8 <memset>
 8003020:	463b      	mov	r3, r7
 8003022:	2200      	movs	r2, #0
 8003024:	601a      	str	r2, [r3, #0]
 8003026:	605a      	str	r2, [r3, #4]
 8003028:	609a      	str	r2, [r3, #8]
 800302a:	60da      	str	r2, [r3, #12]
 800302c:	611a      	str	r2, [r3, #16]
 800302e:	615a      	str	r2, [r3, #20]
 8003030:	f44f 4080 	mov.w	r0, #16384	; 0x4000
 8003034:	f7ff ff40 	bl	8002eb8 <LL_APB1_GRP1_EnableClock>
 8003038:	2002      	movs	r0, #2
 800303a:	f7ff ff25 	bl	8002e88 <LL_AHB2_GRP1_EnableClock>
 800303e:	f44f 4360 	mov.w	r3, #57344	; 0xe000
 8003042:	603b      	str	r3, [r7, #0]
 8003044:	2302      	movs	r3, #2
 8003046:	607b      	str	r3, [r7, #4]
 8003048:	2303      	movs	r3, #3
 800304a:	60bb      	str	r3, [r7, #8]
 800304c:	2300      	movs	r3, #0
 800304e:	60fb      	str	r3, [r7, #12]
 8003050:	2300      	movs	r3, #0
 8003052:	613b      	str	r3, [r7, #16]
 8003054:	2305      	movs	r3, #5
 8003056:	617b      	str	r3, [r7, #20]
 8003058:	463b      	mov	r3, r7
 800305a:	4619      	mov	r1, r3
 800305c:	4815      	ldr	r0, [pc, #84]	; (80030b4 <MX_SPI2_Init+0xa8>)
 800305e:	f001 fd6d 	bl	8004b3c <LL_GPIO_Init>
 8003062:	2300      	movs	r3, #0
 8003064:	61bb      	str	r3, [r7, #24]
 8003066:	f44f 7382 	mov.w	r3, #260	; 0x104
 800306a:	61fb      	str	r3, [r7, #28]
 800306c:	f44f 63e0 	mov.w	r3, #1792	; 0x700
 8003070:	623b      	str	r3, [r7, #32]
 8003072:	2302      	movs	r3, #2
 8003074:	627b      	str	r3, [r7, #36]	; 0x24
 8003076:	2301      	movs	r3, #1
 8003078:	62bb      	str	r3, [r7, #40]	; 0x28
 800307a:	f44f 7300 	mov.w	r3, #512	; 0x200
 800307e:	62fb      	str	r3, [r7, #44]	; 0x2c
 8003080:	2308      	movs	r3, #8
 8003082:	633b      	str	r3, [r7, #48]	; 0x30
 8003084:	2300      	movs	r3, #0
 8003086:	637b      	str	r3, [r7, #52]	; 0x34
 8003088:	2300      	movs	r3, #0
 800308a:	63bb      	str	r3, [r7, #56]	; 0x38
 800308c:	2307      	movs	r3, #7
 800308e:	63fb      	str	r3, [r7, #60]	; 0x3c
 8003090:	f107 0318 	add.w	r3, r7, #24
 8003094:	4619      	mov	r1, r3
 8003096:	4808      	ldr	r0, [pc, #32]	; (80030b8 <MX_SPI2_Init+0xac>)
 8003098:	f002 f9b8 	bl	800540c <LL_SPI_Init>
 800309c:	2100      	movs	r1, #0
 800309e:	4806      	ldr	r0, [pc, #24]	; (80030b8 <MX_SPI2_Init+0xac>)
 80030a0:	f7ff ff3a 	bl	8002f18 <LL_SPI_SetStandard>
 80030a4:	4804      	ldr	r0, [pc, #16]	; (80030b8 <MX_SPI2_Init+0xac>)
 80030a6:	f7ff ff4a 	bl	8002f3e <LL_SPI_DisableNSSPulseMgt>
 80030aa:	bf00      	nop
 80030ac:	3740      	adds	r7, #64	; 0x40
 80030ae:	46bd      	mov	sp, r7
 80030b0:	bd80      	pop	{r7, pc}
 80030b2:	bf00      	nop
 80030b4:	48000400 	.word	0x48000400
 80030b8:	40003800 	.word	0x40003800

080030bc <LL_LPTIM_ClearFLAG_ARRM>:
{
 80030bc:	b480      	push	{r7}
 80030be:	b083      	sub	sp, #12
 80030c0:	af00      	add	r7, sp, #0
 80030c2:	6078      	str	r0, [r7, #4]
  SET_BIT(LPTIMx->ICR, LPTIM_ICR_ARRMCF);
 80030c4:	687b      	ldr	r3, [r7, #4]
 80030c6:	685b      	ldr	r3, [r3, #4]
 80030c8:	f043 0202 	orr.w	r2, r3, #2
 80030cc:	687b      	ldr	r3, [r7, #4]
 80030ce:	605a      	str	r2, [r3, #4]
}
 80030d0:	bf00      	nop
 80030d2:	370c      	adds	r7, #12
 80030d4:	46bd      	mov	sp, r7
 80030d6:	f85d 7b04 	ldr.w	r7, [sp], #4
 80030da:	4770      	bx	lr

080030dc <LL_LPTIM_IsActiveFlag_ARRM>:
{
 80030dc:	b480      	push	{r7}
 80030de:	b083      	sub	sp, #12
 80030e0:	af00      	add	r7, sp, #0
 80030e2:	6078      	str	r0, [r7, #4]
  return (((READ_BIT(LPTIMx->ISR, LPTIM_ISR_ARRM) == LPTIM_ISR_ARRM) ? 1UL : 0UL));
 80030e4:	687b      	ldr	r3, [r7, #4]
 80030e6:	681b      	ldr	r3, [r3, #0]
 80030e8:	f003 0302 	and.w	r3, r3, #2
 80030ec:	2b02      	cmp	r3, #2
 80030ee:	d101      	bne.n	80030f4 <LL_LPTIM_IsActiveFlag_ARRM+0x18>
 80030f0:	2301      	movs	r3, #1
 80030f2:	e000      	b.n	80030f6 <LL_LPTIM_IsActiveFlag_ARRM+0x1a>
 80030f4:	2300      	movs	r3, #0
}
 80030f6:	4618      	mov	r0, r3
 80030f8:	370c      	adds	r7, #12
 80030fa:	46bd      	mov	sp, r7
 80030fc:	f85d 7b04 	ldr.w	r7, [sp], #4
 8003100:	4770      	bx	lr

08003102 <NMI_Handler>:
/******************************************************************************/
/**
  * @brief This function handles Non maskable interrupt.
  */
void NMI_Handler(void)
{
 8003102:	b480      	push	{r7}
 8003104:	af00      	add	r7, sp, #0
  /* USER CODE BEGIN NonMaskableInt_IRQn 0 */

  /* USER CODE END NonMaskableInt_IRQn 0 */
  /* USER CODE BEGIN NonMaskableInt_IRQn 1 */
  while (1)
 8003106:	e7fe      	b.n	8003106 <NMI_Handler+0x4>

08003108 <HardFault_Handler>:

/**
  * @brief This function handles Hard fault interrupt.
  */
void HardFault_Handler(void)
{
 8003108:	b480      	push	{r7}
 800310a:	af00      	add	r7, sp, #0
  /* USER CODE BEGIN HardFault_IRQn 0 */

  /* USER CODE END HardFault_IRQn 0 */
  while (1)
 800310c:	e7fe      	b.n	800310c <HardFault_Handler+0x4>

0800310e <MemManage_Handler>:

/**
  * @brief This function handles Memory management fault.
  */
void MemManage_Handler(void)
{
 800310e:	b480      	push	{r7}
 8003110:	af00      	add	r7, sp, #0
  /* USER CODE BEGIN MemoryManagement_IRQn 0 */

  /* USER CODE END MemoryManagement_IRQn 0 */
  while (1)
 8003112:	e7fe      	b.n	8003112 <MemManage_Handler+0x4>

08003114 <BusFault_Handler>:

/**
  * @brief This function handles Prefetch fault, memory access fault.
  */
void BusFault_Handler(void)
{
 8003114:	b480      	push	{r7}
 8003116:	af00      	add	r7, sp, #0
  /* USER CODE BEGIN BusFault_IRQn 0 */

  /* USER CODE END BusFault_IRQn 0 */
  while (1)
 8003118:	e7fe      	b.n	8003118 <BusFault_Handler+0x4>

0800311a <UsageFault_Handler>:

/**
  * @brief This function handles Undefined instruction or illegal state.
  */
void UsageFault_Handler(void)
{
 800311a:	b480      	push	{r7}
 800311c:	af00      	add	r7, sp, #0
  /* USER CODE BEGIN UsageFault_IRQn 0 */

  /* USER CODE END UsageFault_IRQn 0 */
  while (1)
 800311e:	e7fe      	b.n	800311e <UsageFault_Handler+0x4>

08003120 <SVC_Handler>:

/**
  * @brief This function handles System service call via SWI instruction.
  */
void SVC_Handler(void)
{
 8003120:	b480      	push	{r7}
 8003122:	af00      	add	r7, sp, #0

  /* USER CODE END SVCall_IRQn 0 */
  /* USER CODE BEGIN SVCall_IRQn 1 */

  /* USER CODE END SVCall_IRQn 1 */
}
 8003124:	bf00      	nop
 8003126:	46bd      	mov	sp, r7
 8003128:	f85d 7b04 	ldr.w	r7, [sp], #4
 800312c:	4770      	bx	lr

0800312e <DebugMon_Handler>:

/**
  * @brief This function handles Debug monitor.
  */
void DebugMon_Handler(void)
{
 800312e:	b480      	push	{r7}
 8003130:	af00      	add	r7, sp, #0

  /* USER CODE END DebugMonitor_IRQn 0 */
  /* USER CODE BEGIN DebugMonitor_IRQn 1 */

  /* USER CODE END DebugMonitor_IRQn 1 */
}
 8003132:	bf00      	nop
 8003134:	46bd      	mov	sp, r7
 8003136:	f85d 7b04 	ldr.w	r7, [sp], #4
 800313a:	4770      	bx	lr

0800313c <PendSV_Handler>:

/**
  * @brief This function handles Pendable request for system service.
  */
void PendSV_Handler(void)
{
 800313c:	b480      	push	{r7}
 800313e:	af00      	add	r7, sp, #0

  /* USER CODE END PendSV_IRQn 0 */
  /* USER CODE BEGIN PendSV_IRQn 1 */

  /* USER CODE END PendSV_IRQn 1 */
}
 8003140:	bf00      	nop
 8003142:	46bd      	mov	sp, r7
 8003144:	f85d 7b04 	ldr.w	r7, [sp], #4
 8003148:	4770      	bx	lr

0800314a <SysTick_Handler>:

/**
  * @brief This function handles System tick timer.
  */
void SysTick_Handler(void)
{
 800314a:	b580      	push	{r7, lr}
 800314c:	af00      	add	r7, sp, #0

/******************************************************************************
* USER SysTick_Handler
******************************************************************************/

	systick_app_timer_tickAndProcess();
 800314e:	f000 f829 	bl	80031a4 <systick_app_timer_tickAndProcess>
  /* USER CODE END SysTick_IRQn 0 */

  /* USER CODE BEGIN SysTick_IRQn 1 */

  /* USER CODE END SysTick_IRQn 1 */
}
 8003152:	bf00      	nop
 8003154:	bd80      	pop	{r7, pc}
	...

08003158 <LPTIM2_IRQHandler>:

/**
  * @brief This function handles LPTIM2 global interrupt.
  */
void LPTIM2_IRQHandler(void)
{
 8003158:	b580      	push	{r7, lr}
 800315a:	af00      	add	r7, sp, #0
/******************************************************************************
* USER LPTIM2_IRQHandler
******************************************************************************/

	// Wait for auto reload match to occur
	if(LL_LPTIM_IsActiveFlag_ARRM(LPTIM2) == 1)
 800315c:	4806      	ldr	r0, [pc, #24]	; (8003178 <LPTIM2_IRQHandler+0x20>)
 800315e:	f7ff ffbd 	bl	80030dc <LL_LPTIM_IsActiveFlag_ARRM>
 8003162:	4603      	mov	r3, r0
 8003164:	2b01      	cmp	r3, #1
 8003166:	d105      	bne.n	8003174 <LPTIM2_IRQHandler+0x1c>
	{
		isProsthesisControlRequired = 1;	// Set flag for prosthesis control
 8003168:	4b04      	ldr	r3, [pc, #16]	; (800317c <LPTIM2_IRQHandler+0x24>)
 800316a:	2201      	movs	r2, #1
 800316c:	701a      	strb	r2, [r3, #0]
		LL_LPTIM_ClearFLAG_ARRM(LPTIM2);	// Clear ARR interrupt flag
 800316e:	4802      	ldr	r0, [pc, #8]	; (8003178 <LPTIM2_IRQHandler+0x20>)
 8003170:	f7ff ffa4 	bl	80030bc <LL_LPTIM_ClearFLAG_ARRM>

  /* USER CODE END LPTIM2_IRQn 0 */
  /* USER CODE BEGIN LPTIM2_IRQn 1 */

  /* USER CODE END LPTIM2_IRQn 1 */
}
 8003174:	bf00      	nop
 8003176:	bd80      	pop	{r7, pc}
 8003178:	40009400 	.word	0x40009400
 800317c:	2000009c 	.word	0x2000009c

08003180 <SystemInit>:
 8003180:	b480      	push	{r7}
 8003182:	af00      	add	r7, sp, #0
 8003184:	4b06      	ldr	r3, [pc, #24]	; (80031a0 <SystemInit+0x20>)
 8003186:	f8d3 3088 	ldr.w	r3, [r3, #136]	; 0x88
 800318a:	4a05      	ldr	r2, [pc, #20]	; (80031a0 <SystemInit+0x20>)
 800318c:	f443 0370 	orr.w	r3, r3, #15728640	; 0xf00000
 8003190:	f8c2 3088 	str.w	r3, [r2, #136]	; 0x88
 8003194:	bf00      	nop
 8003196:	46bd      	mov	sp, r7
 8003198:	f85d 7b04 	ldr.w	r7, [sp], #4
 800319c:	4770      	bx	lr
 800319e:	bf00      	nop
 80031a0:	e000ed00 	.word	0xe000ed00

080031a4 <systick_app_timer_tickAndProcess>:
 80031a4:	b580      	push	{r7, lr}
 80031a6:	b082      	sub	sp, #8
 80031a8:	af00      	add	r7, sp, #0
 80031aa:	2300      	movs	r3, #0
 80031ac:	71fb      	strb	r3, [r7, #7]
 80031ae:	e050      	b.n	8003252 <systick_app_timer_tickAndProcess+0xae>
 80031b0:	79fb      	ldrb	r3, [r7, #7]
 80031b2:	4a2c      	ldr	r2, [pc, #176]	; (8003264 <systick_app_timer_tickAndProcess+0xc0>)
 80031b4:	00db      	lsls	r3, r3, #3
 80031b6:	4413      	add	r3, r2
 80031b8:	685b      	ldr	r3, [r3, #4]
 80031ba:	2b00      	cmp	r3, #0
 80031bc:	d046      	beq.n	800324c <systick_app_timer_tickAndProcess+0xa8>
 80031be:	79fb      	ldrb	r3, [r7, #7]
 80031c0:	4a28      	ldr	r2, [pc, #160]	; (8003264 <systick_app_timer_tickAndProcess+0xc0>)
 80031c2:	f812 3033 	ldrb.w	r3, [r2, r3, lsl #3]
 80031c6:	2b00      	cmp	r3, #0
 80031c8:	d040      	beq.n	800324c <systick_app_timer_tickAndProcess+0xa8>
 80031ca:	79fb      	ldrb	r3, [r7, #7]
 80031cc:	4a25      	ldr	r2, [pc, #148]	; (8003264 <systick_app_timer_tickAndProcess+0xc0>)
 80031ce:	00db      	lsls	r3, r3, #3
 80031d0:	4413      	add	r3, r2
 80031d2:	685b      	ldr	r3, [r3, #4]
 80031d4:	685a      	ldr	r2, [r3, #4]
 80031d6:	3201      	adds	r2, #1
 80031d8:	605a      	str	r2, [r3, #4]
 80031da:	79fb      	ldrb	r3, [r7, #7]
 80031dc:	4a21      	ldr	r2, [pc, #132]	; (8003264 <systick_app_timer_tickAndProcess+0xc0>)
 80031de:	00db      	lsls	r3, r3, #3
 80031e0:	4413      	add	r3, r2
 80031e2:	685b      	ldr	r3, [r3, #4]
 80031e4:	68db      	ldr	r3, [r3, #12]
 80031e6:	2b00      	cmp	r3, #0
 80031e8:	d030      	beq.n	800324c <systick_app_timer_tickAndProcess+0xa8>
 80031ea:	79fb      	ldrb	r3, [r7, #7]
 80031ec:	4a1d      	ldr	r2, [pc, #116]	; (8003264 <systick_app_timer_tickAndProcess+0xc0>)
 80031ee:	00db      	lsls	r3, r3, #3
 80031f0:	4413      	add	r3, r2
 80031f2:	685b      	ldr	r3, [r3, #4]
 80031f4:	685a      	ldr	r2, [r3, #4]
 80031f6:	79fb      	ldrb	r3, [r7, #7]
 80031f8:	491a      	ldr	r1, [pc, #104]	; (8003264 <systick_app_timer_tickAndProcess+0xc0>)
 80031fa:	00db      	lsls	r3, r3, #3
 80031fc:	440b      	add	r3, r1
 80031fe:	685b      	ldr	r3, [r3, #4]
 8003200:	68db      	ldr	r3, [r3, #12]
 8003202:	429a      	cmp	r2, r3
 8003204:	d322      	bcc.n	800324c <systick_app_timer_tickAndProcess+0xa8>
 8003206:	79fb      	ldrb	r3, [r7, #7]
 8003208:	4a16      	ldr	r2, [pc, #88]	; (8003264 <systick_app_timer_tickAndProcess+0xc0>)
 800320a:	00db      	lsls	r3, r3, #3
 800320c:	4413      	add	r3, r2
 800320e:	685b      	ldr	r3, [r3, #4]
 8003210:	691b      	ldr	r3, [r3, #16]
 8003212:	2b00      	cmp	r3, #0
 8003214:	d00d      	beq.n	8003232 <systick_app_timer_tickAndProcess+0x8e>
 8003216:	79fb      	ldrb	r3, [r7, #7]
 8003218:	4a12      	ldr	r2, [pc, #72]	; (8003264 <systick_app_timer_tickAndProcess+0xc0>)
 800321a:	00db      	lsls	r3, r3, #3
 800321c:	4413      	add	r3, r2
 800321e:	685b      	ldr	r3, [r3, #4]
 8003220:	691b      	ldr	r3, [r3, #16]
 8003222:	4798      	blx	r3
 8003224:	79fb      	ldrb	r3, [r7, #7]
 8003226:	4a0f      	ldr	r2, [pc, #60]	; (8003264 <systick_app_timer_tickAndProcess+0xc0>)
 8003228:	00db      	lsls	r3, r3, #3
 800322a:	4413      	add	r3, r2
 800322c:	685b      	ldr	r3, [r3, #4]
 800322e:	2200      	movs	r2, #0
 8003230:	605a      	str	r2, [r3, #4]
 8003232:	79fb      	ldrb	r3, [r7, #7]
 8003234:	4a0b      	ldr	r2, [pc, #44]	; (8003264 <systick_app_timer_tickAndProcess+0xc0>)
 8003236:	00db      	lsls	r3, r3, #3
 8003238:	4413      	add	r3, r2
 800323a:	685b      	ldr	r3, [r3, #4]
 800323c:	7a1b      	ldrb	r3, [r3, #8]
 800323e:	2b01      	cmp	r3, #1
 8003240:	d104      	bne.n	800324c <systick_app_timer_tickAndProcess+0xa8>
 8003242:	79fb      	ldrb	r3, [r7, #7]
 8003244:	4a07      	ldr	r2, [pc, #28]	; (8003264 <systick_app_timer_tickAndProcess+0xc0>)
 8003246:	2100      	movs	r1, #0
 8003248:	f802 1033 	strb.w	r1, [r2, r3, lsl #3]
 800324c:	79fb      	ldrb	r3, [r7, #7]
 800324e:	3301      	adds	r3, #1
 8003250:	71fb      	strb	r3, [r7, #7]
 8003252:	79fb      	ldrb	r3, [r7, #7]
 8003254:	2b09      	cmp	r3, #9
 8003256:	d9ab      	bls.n	80031b0 <systick_app_timer_tickAndProcess+0xc>
 8003258:	bf00      	nop
 800325a:	bf00      	nop
 800325c:	3708      	adds	r7, #8
 800325e:	46bd      	mov	sp, r7
 8003260:	bd80      	pop	{r7, pc}
 8003262:	bf00      	nop
 8003264:	200002b4 	.word	0x200002b4

08003268 <LL_RCC_SetUSARTClockSource>:
 8003268:	b480      	push	{r7}
 800326a:	b083      	sub	sp, #12
 800326c:	af00      	add	r7, sp, #0
 800326e:	6078      	str	r0, [r7, #4]
 8003270:	4b09      	ldr	r3, [pc, #36]	; (8003298 <LL_RCC_SetUSARTClockSource+0x30>)
 8003272:	f8d3 2088 	ldr.w	r2, [r3, #136]	; 0x88
 8003276:	687b      	ldr	r3, [r7, #4]
 8003278:	0c1b      	lsrs	r3, r3, #16
 800327a:	43db      	mvns	r3, r3
 800327c:	401a      	ands	r2, r3
 800327e:	687b      	ldr	r3, [r7, #4]
 8003280:	b29b      	uxth	r3, r3
 8003282:	4905      	ldr	r1, [pc, #20]	; (8003298 <LL_RCC_SetUSARTClockSource+0x30>)
 8003284:	4313      	orrs	r3, r2
 8003286:	f8c1 3088 	str.w	r3, [r1, #136]	; 0x88
 800328a:	bf00      	nop
 800328c:	370c      	adds	r7, #12
 800328e:	46bd      	mov	sp, r7
 8003290:	f85d 7b04 	ldr.w	r7, [sp], #4
 8003294:	4770      	bx	lr
 8003296:	bf00      	nop
 8003298:	40021000 	.word	0x40021000

0800329c <LL_AHB2_GRP1_EnableClock>:
 800329c:	b480      	push	{r7}
 800329e:	b085      	sub	sp, #20
 80032a0:	af00      	add	r7, sp, #0
 80032a2:	6078      	str	r0, [r7, #4]
 80032a4:	4b08      	ldr	r3, [pc, #32]	; (80032c8 <LL_AHB2_GRP1_EnableClock+0x2c>)
 80032a6:	6cda      	ldr	r2, [r3, #76]	; 0x4c
 80032a8:	4907      	ldr	r1, [pc, #28]	; (80032c8 <LL_AHB2_GRP1_EnableClock+0x2c>)
 80032aa:	687b      	ldr	r3, [r7, #4]
 80032ac:	4313      	orrs	r3, r2
 80032ae:	64cb      	str	r3, [r1, #76]	; 0x4c
 80032b0:	4b05      	ldr	r3, [pc, #20]	; (80032c8 <LL_AHB2_GRP1_EnableClock+0x2c>)
 80032b2:	6cda      	ldr	r2, [r3, #76]	; 0x4c
 80032b4:	687b      	ldr	r3, [r7, #4]
 80032b6:	4013      	ands	r3, r2
 80032b8:	60fb      	str	r3, [r7, #12]
 80032ba:	68fb      	ldr	r3, [r7, #12]
 80032bc:	bf00      	nop
 80032be:	3714      	adds	r7, #20
 80032c0:	46bd      	mov	sp, r7
 80032c2:	f85d 7b04 	ldr.w	r7, [sp], #4
 80032c6:	4770      	bx	lr
 80032c8:	40021000 	.word	0x40021000

080032cc <LL_APB1_GRP1_EnableClock>:
 80032cc:	b480      	push	{r7}
 80032ce:	b085      	sub	sp, #20
 80032d0:	af00      	add	r7, sp, #0
 80032d2:	6078      	str	r0, [r7, #4]
 80032d4:	4b08      	ldr	r3, [pc, #32]	; (80032f8 <LL_APB1_GRP1_EnableClock+0x2c>)
 80032d6:	6d9a      	ldr	r2, [r3, #88]	; 0x58
 80032d8:	4907      	ldr	r1, [pc, #28]	; (80032f8 <LL_APB1_GRP1_EnableClock+0x2c>)
 80032da:	687b      	ldr	r3, [r7, #4]
 80032dc:	4313      	orrs	r3, r2
 80032de:	658b      	str	r3, [r1, #88]	; 0x58
 80032e0:	4b05      	ldr	r3, [pc, #20]	; (80032f8 <LL_APB1_GRP1_EnableClock+0x2c>)
 80032e2:	6d9a      	ldr	r2, [r3, #88]	; 0x58
 80032e4:	687b      	ldr	r3, [r7, #4]
 80032e6:	4013      	ands	r3, r2
 80032e8:	60fb      	str	r3, [r7, #12]
 80032ea:	68fb      	ldr	r3, [r7, #12]
 80032ec:	bf00      	nop
 80032ee:	3714      	adds	r7, #20
 80032f0:	46bd      	mov	sp, r7
 80032f2:	f85d 7b04 	ldr.w	r7, [sp], #4
 80032f6:	4770      	bx	lr
 80032f8:	40021000 	.word	0x40021000

080032fc <LL_USART_Enable>:
 80032fc:	b480      	push	{r7}
 80032fe:	b083      	sub	sp, #12
 8003300:	af00      	add	r7, sp, #0
 8003302:	6078      	str	r0, [r7, #4]
 8003304:	687b      	ldr	r3, [r7, #4]
 8003306:	681b      	ldr	r3, [r3, #0]
 8003308:	f043 0201 	orr.w	r2, r3, #1
 800330c:	687b      	ldr	r3, [r7, #4]
 800330e:	601a      	str	r2, [r3, #0]
 8003310:	bf00      	nop
 8003312:	370c      	adds	r7, #12
 8003314:	46bd      	mov	sp, r7
 8003316:	f85d 7b04 	ldr.w	r7, [sp], #4
 800331a:	4770      	bx	lr

0800331c <LL_USART_ConfigAsyncMode>:
 800331c:	b480      	push	{r7}
 800331e:	b083      	sub	sp, #12
 8003320:	af00      	add	r7, sp, #0
 8003322:	6078      	str	r0, [r7, #4]
 8003324:	687b      	ldr	r3, [r7, #4]
 8003326:	685b      	ldr	r3, [r3, #4]
 8003328:	f423 4290 	bic.w	r2, r3, #18432	; 0x4800
 800332c:	687b      	ldr	r3, [r7, #4]
 800332e:	605a      	str	r2, [r3, #4]
 8003330:	687b      	ldr	r3, [r7, #4]
 8003332:	689b      	ldr	r3, [r3, #8]
 8003334:	f023 022a 	bic.w	r2, r3, #42	; 0x2a
 8003338:	687b      	ldr	r3, [r7, #4]
 800333a:	609a      	str	r2, [r3, #8]
 800333c:	bf00      	nop
 800333e:	370c      	adds	r7, #12
 8003340:	46bd      	mov	sp, r7
 8003342:	f85d 7b04 	ldr.w	r7, [sp], #4
 8003346:	4770      	bx	lr

08003348 <MX_USART2_UART_Init>:
 8003348:	b580      	push	{r7, lr}
 800334a:	b08e      	sub	sp, #56	; 0x38
 800334c:	af00      	add	r7, sp, #0
 800334e:	f107 031c 	add.w	r3, r7, #28
 8003352:	2200      	movs	r2, #0
 8003354:	601a      	str	r2, [r3, #0]
 8003356:	605a      	str	r2, [r3, #4]
 8003358:	609a      	str	r2, [r3, #8]
 800335a:	60da      	str	r2, [r3, #12]
 800335c:	611a      	str	r2, [r3, #16]
 800335e:	615a      	str	r2, [r3, #20]
 8003360:	619a      	str	r2, [r3, #24]
 8003362:	1d3b      	adds	r3, r7, #4
 8003364:	2200      	movs	r2, #0
 8003366:	601a      	str	r2, [r3, #0]
 8003368:	605a      	str	r2, [r3, #4]
 800336a:	609a      	str	r2, [r3, #8]
 800336c:	60da      	str	r2, [r3, #12]
 800336e:	611a      	str	r2, [r3, #16]
 8003370:	615a      	str	r2, [r3, #20]
 8003372:	f44f 2040 	mov.w	r0, #786432	; 0xc0000
 8003376:	f7ff ff77 	bl	8003268 <LL_RCC_SetUSARTClockSource>
 800337a:	f44f 3000 	mov.w	r0, #131072	; 0x20000
 800337e:	f7ff ffa5 	bl	80032cc <LL_APB1_GRP1_EnableClock>
 8003382:	2001      	movs	r0, #1
 8003384:	f7ff ff8a 	bl	800329c <LL_AHB2_GRP1_EnableClock>
 8003388:	230c      	movs	r3, #12
 800338a:	607b      	str	r3, [r7, #4]
 800338c:	2302      	movs	r3, #2
 800338e:	60bb      	str	r3, [r7, #8]
 8003390:	2303      	movs	r3, #3
 8003392:	60fb      	str	r3, [r7, #12]
 8003394:	2300      	movs	r3, #0
 8003396:	613b      	str	r3, [r7, #16]
 8003398:	2300      	movs	r3, #0
 800339a:	617b      	str	r3, [r7, #20]
 800339c:	2307      	movs	r3, #7
 800339e:	61bb      	str	r3, [r7, #24]
 80033a0:	1d3b      	adds	r3, r7, #4
 80033a2:	4619      	mov	r1, r3
 80033a4:	f04f 4090 	mov.w	r0, #1207959552	; 0x48000000
 80033a8:	f001 fbc8 	bl	8004b3c <LL_GPIO_Init>
 80033ac:	f44f 33e1 	mov.w	r3, #115200	; 0x1c200
 80033b0:	61fb      	str	r3, [r7, #28]
 80033b2:	2300      	movs	r3, #0
 80033b4:	623b      	str	r3, [r7, #32]
 80033b6:	2300      	movs	r3, #0
 80033b8:	627b      	str	r3, [r7, #36]	; 0x24
 80033ba:	2300      	movs	r3, #0
 80033bc:	62bb      	str	r3, [r7, #40]	; 0x28
 80033be:	230c      	movs	r3, #12
 80033c0:	62fb      	str	r3, [r7, #44]	; 0x2c
 80033c2:	2300      	movs	r3, #0
 80033c4:	633b      	str	r3, [r7, #48]	; 0x30
 80033c6:	2300      	movs	r3, #0
 80033c8:	637b      	str	r3, [r7, #52]	; 0x34
 80033ca:	f107 031c 	add.w	r3, r7, #28
 80033ce:	4619      	mov	r1, r3
 80033d0:	4806      	ldr	r0, [pc, #24]	; (80033ec <MX_USART2_UART_Init+0xa4>)
 80033d2:	f002 f8e3 	bl	800559c <LL_USART_Init>
 80033d6:	4805      	ldr	r0, [pc, #20]	; (80033ec <MX_USART2_UART_Init+0xa4>)
 80033d8:	f7ff ffa0 	bl	800331c <LL_USART_ConfigAsyncMode>
 80033dc:	4803      	ldr	r0, [pc, #12]	; (80033ec <MX_USART2_UART_Init+0xa4>)
 80033de:	f7ff ff8d 	bl	80032fc <LL_USART_Enable>
 80033e2:	bf00      	nop
 80033e4:	3738      	adds	r7, #56	; 0x38
 80033e6:	46bd      	mov	sp, r7
 80033e8:	bd80      	pop	{r7, pc}
 80033ea:	bf00      	nop
 80033ec:	40004400 	.word	0x40004400

080033f0 <Reset_Handler>:
 80033f0:	f8df d034 	ldr.w	sp, [pc, #52]	; 8003428 <LoopForever+0x2>
 80033f4:	f7ff fec4 	bl	8003180 <SystemInit>
 80033f8:	480c      	ldr	r0, [pc, #48]	; (800342c <LoopForever+0x6>)
 80033fa:	490d      	ldr	r1, [pc, #52]	; (8003430 <LoopForever+0xa>)
 80033fc:	4a0d      	ldr	r2, [pc, #52]	; (8003434 <LoopForever+0xe>)
 80033fe:	2300      	movs	r3, #0
 8003400:	e002      	b.n	8003408 <LoopCopyDataInit>

08003402 <CopyDataInit>:
 8003402:	58d4      	ldr	r4, [r2, r3]
 8003404:	50c4      	str	r4, [r0, r3]
 8003406:	3304      	adds	r3, #4

08003408 <LoopCopyDataInit>:
 8003408:	18c4      	adds	r4, r0, r3
 800340a:	428c      	cmp	r4, r1
 800340c:	d3f9      	bcc.n	8003402 <CopyDataInit>
 800340e:	4a0a      	ldr	r2, [pc, #40]	; (8003438 <LoopForever+0x12>)
 8003410:	4c0a      	ldr	r4, [pc, #40]	; (800343c <LoopForever+0x16>)
 8003412:	2300      	movs	r3, #0
 8003414:	e001      	b.n	800341a <LoopFillZerobss>

08003416 <FillZerobss>:
 8003416:	6013      	str	r3, [r2, #0]
 8003418:	3204      	adds	r2, #4

0800341a <LoopFillZerobss>:
 800341a:	42a2      	cmp	r2, r4
 800341c:	d3fb      	bcc.n	8003416 <FillZerobss>
 800341e:	f002 f999 	bl	8005754 <__libc_init_array>
 8003422:	f7fe fb19 	bl	8001a58 <main>

08003426 <LoopForever>:
 8003426:	e7fe      	b.n	8003426 <LoopForever>
 8003428:	20018000 	.word	0x20018000
 800342c:	20000000 	.word	0x20000000
 8003430:	20000080 	.word	0x20000080
 8003434:	08006a80 	.word	0x08006a80
 8003438:	20000080 	.word	0x20000080
 800343c:	200005a0 	.word	0x200005a0

08003440 <ADC1_2_IRQHandler>:
 8003440:	e7fe      	b.n	8003440 <ADC1_2_IRQHandler>

08003442 <LL_GPIO_IsInputPinSet>:
 8003442:	b480      	push	{r7}
 8003444:	b083      	sub	sp, #12
 8003446:	af00      	add	r7, sp, #0
 8003448:	6078      	str	r0, [r7, #4]
 800344a:	6039      	str	r1, [r7, #0]
 800344c:	687b      	ldr	r3, [r7, #4]
 800344e:	691a      	ldr	r2, [r3, #16]
 8003450:	683b      	ldr	r3, [r7, #0]
 8003452:	4013      	ands	r3, r2
 8003454:	683a      	ldr	r2, [r7, #0]
 8003456:	429a      	cmp	r2, r3
 8003458:	d101      	bne.n	800345e <LL_GPIO_IsInputPinSet+0x1c>
 800345a:	2301      	movs	r3, #1
 800345c:	e000      	b.n	8003460 <LL_GPIO_IsInputPinSet+0x1e>
 800345e:	2300      	movs	r3, #0
 8003460:	4618      	mov	r0, r3
 8003462:	370c      	adds	r7, #12
 8003464:	46bd      	mov	sp, r7
 8003466:	f85d 7b04 	ldr.w	r7, [sp], #4
 800346a:	4770      	bx	lr

0800346c <LL_GPIO_SetOutputPin>:
 800346c:	b480      	push	{r7}
 800346e:	b083      	sub	sp, #12
 8003470:	af00      	add	r7, sp, #0
 8003472:	6078      	str	r0, [r7, #4]
 8003474:	6039      	str	r1, [r7, #0]
 8003476:	687b      	ldr	r3, [r7, #4]
 8003478:	683a      	ldr	r2, [r7, #0]
 800347a:	619a      	str	r2, [r3, #24]
 800347c:	bf00      	nop
 800347e:	370c      	adds	r7, #12
 8003480:	46bd      	mov	sp, r7
 8003482:	f85d 7b04 	ldr.w	r7, [sp], #4
 8003486:	4770      	bx	lr

08003488 <LL_GPIO_ResetOutputPin>:
 8003488:	b480      	push	{r7}
 800348a:	b083      	sub	sp, #12
 800348c:	af00      	add	r7, sp, #0
 800348e:	6078      	str	r0, [r7, #4]
 8003490:	6039      	str	r1, [r7, #0]
 8003492:	687b      	ldr	r3, [r7, #4]
 8003494:	683a      	ldr	r2, [r7, #0]
 8003496:	629a      	str	r2, [r3, #40]	; 0x28
 8003498:	bf00      	nop
 800349a:	370c      	adds	r7, #12
 800349c:	46bd      	mov	sp, r7
 800349e:	f85d 7b04 	ldr.w	r7, [sp], #4
 80034a2:	4770      	bx	lr

080034a4 <AS5145B_Init>:
 80034a4:	b580      	push	{r7, lr}
 80034a6:	b082      	sub	sp, #8
 80034a8:	af00      	add	r7, sp, #0
 80034aa:	6078      	str	r0, [r7, #4]
 80034ac:	2214      	movs	r2, #20
 80034ae:	6879      	ldr	r1, [r7, #4]
 80034b0:	480b      	ldr	r0, [pc, #44]	; (80034e0 <AS5145B_Init+0x3c>)
 80034b2:	f002 f973 	bl	800579c <memcpy>
 80034b6:	4b0a      	ldr	r3, [pc, #40]	; (80034e0 <AS5145B_Init+0x3c>)
 80034b8:	689b      	ldr	r3, [r3, #8]
 80034ba:	4a09      	ldr	r2, [pc, #36]	; (80034e0 <AS5145B_Init+0x3c>)
 80034bc:	8a12      	ldrh	r2, [r2, #16]
 80034be:	4611      	mov	r1, r2
 80034c0:	4618      	mov	r0, r3
 80034c2:	f7ff ffd3 	bl	800346c <LL_GPIO_SetOutputPin>
 80034c6:	4b06      	ldr	r3, [pc, #24]	; (80034e0 <AS5145B_Init+0x3c>)
 80034c8:	685b      	ldr	r3, [r3, #4]
 80034ca:	4a05      	ldr	r2, [pc, #20]	; (80034e0 <AS5145B_Init+0x3c>)
 80034cc:	89d2      	ldrh	r2, [r2, #14]
 80034ce:	4611      	mov	r1, r2
 80034d0:	4618      	mov	r0, r3
 80034d2:	f7ff ffcb 	bl	800346c <LL_GPIO_SetOutputPin>
 80034d6:	bf00      	nop
 80034d8:	3708      	adds	r7, #8
 80034da:	46bd      	mov	sp, r7
 80034dc:	bd80      	pop	{r7, pc}
 80034de:	bf00      	nop
 80034e0:	20000308 	.word	0x20000308

080034e4 <AS5145B_ReadData>:
 80034e4:	b580      	push	{r7, lr}
 80034e6:	b086      	sub	sp, #24
 80034e8:	af00      	add	r7, sp, #0
 80034ea:	2300      	movs	r3, #0
 80034ec:	80bb      	strh	r3, [r7, #4]
 80034ee:	2300      	movs	r3, #0
 80034f0:	71bb      	strb	r3, [r7, #6]
 80034f2:	4b45      	ldr	r3, [pc, #276]	; (8003608 <AS5145B_ReadData+0x124>)
 80034f4:	689b      	ldr	r3, [r3, #8]
 80034f6:	4a44      	ldr	r2, [pc, #272]	; (8003608 <AS5145B_ReadData+0x124>)
 80034f8:	8a12      	ldrh	r2, [r2, #16]
 80034fa:	4611      	mov	r1, r2
 80034fc:	4618      	mov	r0, r3
 80034fe:	f7ff ffc3 	bl	8003488 <LL_GPIO_ResetOutputPin>
 8003502:	f000 f8b3 	bl	800366c <AS5145B_Delay_500ns>
 8003506:	230b      	movs	r3, #11
 8003508:	617b      	str	r3, [r7, #20]
 800350a:	e02d      	b.n	8003568 <AS5145B_ReadData+0x84>
 800350c:	4b3e      	ldr	r3, [pc, #248]	; (8003608 <AS5145B_ReadData+0x124>)
 800350e:	685b      	ldr	r3, [r3, #4]
 8003510:	4a3d      	ldr	r2, [pc, #244]	; (8003608 <AS5145B_ReadData+0x124>)
 8003512:	89d2      	ldrh	r2, [r2, #14]
 8003514:	4611      	mov	r1, r2
 8003516:	4618      	mov	r0, r3
 8003518:	f7ff ffb6 	bl	8003488 <LL_GPIO_ResetOutputPin>
 800351c:	f000 f8a6 	bl	800366c <AS5145B_Delay_500ns>
 8003520:	4b39      	ldr	r3, [pc, #228]	; (8003608 <AS5145B_ReadData+0x124>)
 8003522:	685b      	ldr	r3, [r3, #4]
 8003524:	4a38      	ldr	r2, [pc, #224]	; (8003608 <AS5145B_ReadData+0x124>)
 8003526:	89d2      	ldrh	r2, [r2, #14]
 8003528:	4611      	mov	r1, r2
 800352a:	4618      	mov	r0, r3
 800352c:	f7ff ff9e 	bl	800346c <LL_GPIO_SetOutputPin>
 8003530:	f000 f89c 	bl	800366c <AS5145B_Delay_500ns>
 8003534:	4b34      	ldr	r3, [pc, #208]	; (8003608 <AS5145B_ReadData+0x124>)
 8003536:	681b      	ldr	r3, [r3, #0]
 8003538:	4a33      	ldr	r2, [pc, #204]	; (8003608 <AS5145B_ReadData+0x124>)
 800353a:	8992      	ldrh	r2, [r2, #12]
 800353c:	4611      	mov	r1, r2
 800353e:	4618      	mov	r0, r3
 8003540:	f7ff ff7f 	bl	8003442 <LL_GPIO_IsInputPinSet>
 8003544:	4603      	mov	r3, r0
 8003546:	b2db      	uxtb	r3, r3
 8003548:	f003 0301 	and.w	r3, r3, #1
 800354c:	73bb      	strb	r3, [r7, #14]
 800354e:	f9b7 2004 	ldrsh.w	r2, [r7, #4]
 8003552:	7bb9      	ldrb	r1, [r7, #14]
 8003554:	697b      	ldr	r3, [r7, #20]
 8003556:	fa01 f303 	lsl.w	r3, r1, r3
 800355a:	b21b      	sxth	r3, r3
 800355c:	4313      	orrs	r3, r2
 800355e:	b21b      	sxth	r3, r3
 8003560:	80bb      	strh	r3, [r7, #4]
 8003562:	697b      	ldr	r3, [r7, #20]
 8003564:	3b01      	subs	r3, #1
 8003566:	617b      	str	r3, [r7, #20]
 8003568:	697b      	ldr	r3, [r7, #20]
 800356a:	2b00      	cmp	r3, #0
 800356c:	dace      	bge.n	800350c <AS5145B_ReadData+0x28>
 800356e:	2305      	movs	r3, #5
 8003570:	613b      	str	r3, [r7, #16]
 8003572:	e02e      	b.n	80035d2 <AS5145B_ReadData+0xee>
 8003574:	4b24      	ldr	r3, [pc, #144]	; (8003608 <AS5145B_ReadData+0x124>)
 8003576:	685b      	ldr	r3, [r3, #4]
 8003578:	4a23      	ldr	r2, [pc, #140]	; (8003608 <AS5145B_ReadData+0x124>)
 800357a:	89d2      	ldrh	r2, [r2, #14]
 800357c:	4611      	mov	r1, r2
 800357e:	4618      	mov	r0, r3
 8003580:	f7ff ff82 	bl	8003488 <LL_GPIO_ResetOutputPin>
 8003584:	f000 f872 	bl	800366c <AS5145B_Delay_500ns>
 8003588:	4b1f      	ldr	r3, [pc, #124]	; (8003608 <AS5145B_ReadData+0x124>)
 800358a:	685b      	ldr	r3, [r3, #4]
 800358c:	4a1e      	ldr	r2, [pc, #120]	; (8003608 <AS5145B_ReadData+0x124>)
 800358e:	89d2      	ldrh	r2, [r2, #14]
 8003590:	4611      	mov	r1, r2
 8003592:	4618      	mov	r0, r3
 8003594:	f7ff ff6a 	bl	800346c <LL_GPIO_SetOutputPin>
 8003598:	f000 f868 	bl	800366c <AS5145B_Delay_500ns>
 800359c:	4b1a      	ldr	r3, [pc, #104]	; (8003608 <AS5145B_ReadData+0x124>)
 800359e:	681b      	ldr	r3, [r3, #0]
 80035a0:	4a19      	ldr	r2, [pc, #100]	; (8003608 <AS5145B_ReadData+0x124>)
 80035a2:	8992      	ldrh	r2, [r2, #12]
 80035a4:	4611      	mov	r1, r2
 80035a6:	4618      	mov	r0, r3
 80035a8:	f7ff ff4b 	bl	8003442 <LL_GPIO_IsInputPinSet>
 80035ac:	4603      	mov	r3, r0
 80035ae:	b2db      	uxtb	r3, r3
 80035b0:	f003 0301 	and.w	r3, r3, #1
 80035b4:	73fb      	strb	r3, [r7, #15]
 80035b6:	79bb      	ldrb	r3, [r7, #6]
 80035b8:	b25a      	sxtb	r2, r3
 80035ba:	7bf9      	ldrb	r1, [r7, #15]
 80035bc:	693b      	ldr	r3, [r7, #16]
 80035be:	fa01 f303 	lsl.w	r3, r1, r3
 80035c2:	b25b      	sxtb	r3, r3
 80035c4:	4313      	orrs	r3, r2
 80035c6:	b25b      	sxtb	r3, r3
 80035c8:	b2db      	uxtb	r3, r3
 80035ca:	71bb      	strb	r3, [r7, #6]
 80035cc:	693b      	ldr	r3, [r7, #16]
 80035ce:	3b01      	subs	r3, #1
 80035d0:	613b      	str	r3, [r7, #16]
 80035d2:	693b      	ldr	r3, [r7, #16]
 80035d4:	2b00      	cmp	r3, #0
 80035d6:	dacd      	bge.n	8003574 <AS5145B_ReadData+0x90>
 80035d8:	4b0b      	ldr	r3, [pc, #44]	; (8003608 <AS5145B_ReadData+0x124>)
 80035da:	689b      	ldr	r3, [r3, #8]
 80035dc:	4a0a      	ldr	r2, [pc, #40]	; (8003608 <AS5145B_ReadData+0x124>)
 80035de:	8a12      	ldrh	r2, [r2, #16]
 80035e0:	4611      	mov	r1, r2
 80035e2:	4618      	mov	r0, r3
 80035e4:	f7ff ff42 	bl	800346c <LL_GPIO_SetOutputPin>
 80035e8:	f000 f840 	bl	800366c <AS5145B_Delay_500ns>
 80035ec:	687b      	ldr	r3, [r7, #4]
 80035ee:	60bb      	str	r3, [r7, #8]
 80035f0:	2300      	movs	r3, #0
 80035f2:	893a      	ldrh	r2, [r7, #8]
 80035f4:	f362 030f 	bfi	r3, r2, #0, #16
 80035f8:	897a      	ldrh	r2, [r7, #10]
 80035fa:	f362 431f 	bfi	r3, r2, #16, #16
 80035fe:	4618      	mov	r0, r3
 8003600:	3718      	adds	r7, #24
 8003602:	46bd      	mov	sp, r7
 8003604:	bd80      	pop	{r7, pc}
 8003606:	bf00      	nop
 8003608:	20000308 	.word	0x20000308

0800360c <AS5145B_ReadPosition_Raw>:
 800360c:	b580      	push	{r7, lr}
 800360e:	b082      	sub	sp, #8
 8003610:	af00      	add	r7, sp, #0
 8003612:	f7ff ff67 	bl	80034e4 <AS5145B_ReadData>
 8003616:	4603      	mov	r3, r0
 8003618:	607b      	str	r3, [r7, #4]
 800361a:	f9b7 3004 	ldrsh.w	r3, [r7, #4]
 800361e:	b29b      	uxth	r3, r3
 8003620:	4618      	mov	r0, r3
 8003622:	3708      	adds	r7, #8
 8003624:	46bd      	mov	sp, r7
 8003626:	bd80      	pop	{r7, pc}

08003628 <AS5145B_ReadPosition_Deg>:
 8003628:	b580      	push	{r7, lr}
 800362a:	b082      	sub	sp, #8
 800362c:	af00      	add	r7, sp, #0
 800362e:	f7ff ffed 	bl	800360c <AS5145B_ReadPosition_Raw>
 8003632:	4603      	mov	r3, r0
 8003634:	80fb      	strh	r3, [r7, #6]
 8003636:	88fb      	ldrh	r3, [r7, #6]
 8003638:	ee07 3a90 	vmov	s15, r3
 800363c:	eef8 7a67 	vcvt.f32.u32	s15, s15
 8003640:	ed9f 7a08 	vldr	s14, [pc, #32]	; 8003664 <AS5145B_ReadPosition_Deg+0x3c>
 8003644:	ee27 7a87 	vmul.f32	s14, s15, s14
 8003648:	eddf 6a07 	vldr	s13, [pc, #28]	; 8003668 <AS5145B_ReadPosition_Deg+0x40>
 800364c:	eec7 7a26 	vdiv.f32	s15, s14, s13
 8003650:	edc7 7a00 	vstr	s15, [r7]
 8003654:	683b      	ldr	r3, [r7, #0]
 8003656:	ee07 3a90 	vmov	s15, r3
 800365a:	eeb0 0a67 	vmov.f32	s0, s15
 800365e:	3708      	adds	r7, #8
 8003660:	46bd      	mov	sp, r7
 8003662:	bd80      	pop	{r7, pc}
 8003664:	43b40000 	.word	0x43b40000
 8003668:	45800000 	.word	0x45800000

0800366c <AS5145B_Delay_500ns>:
 800366c:	b480      	push	{r7}
 800366e:	b083      	sub	sp, #12
 8003670:	af00      	add	r7, sp, #0
 8003672:	2300      	movs	r3, #0
 8003674:	71fb      	strb	r3, [r7, #7]
 8003676:	e00c      	b.n	8003692 <AS5145B_Delay_500ns+0x26>
 8003678:	2300      	movs	r3, #0
 800367a:	71bb      	strb	r3, [r7, #6]
 800367c:	e003      	b.n	8003686 <AS5145B_Delay_500ns+0x1a>
 800367e:	bf00      	nop
 8003680:	79bb      	ldrb	r3, [r7, #6]
 8003682:	3301      	adds	r3, #1
 8003684:	71bb      	strb	r3, [r7, #6]
 8003686:	79bb      	ldrb	r3, [r7, #6]
 8003688:	2b02      	cmp	r3, #2
 800368a:	d9f8      	bls.n	800367e <AS5145B_Delay_500ns+0x12>
 800368c:	79fb      	ldrb	r3, [r7, #7]
 800368e:	3301      	adds	r3, #1
 8003690:	71fb      	strb	r3, [r7, #7]
 8003692:	79fb      	ldrb	r3, [r7, #7]
 8003694:	2b01      	cmp	r3, #1
 8003696:	d9ef      	bls.n	8003678 <AS5145B_Delay_500ns+0xc>
 8003698:	bf00      	nop
 800369a:	bf00      	nop
 800369c:	370c      	adds	r7, #12
 800369e:	46bd      	mov	sp, r7
 80036a0:	f85d 7b04 	ldr.w	r7, [sp], #4
 80036a4:	4770      	bx	lr

080036a6 <EPOS4_SetCSTMode>:
 80036a6:	b580      	push	{r7, lr}
 80036a8:	b084      	sub	sp, #16
 80036aa:	af00      	add	r7, sp, #0
 80036ac:	4603      	mov	r3, r0
 80036ae:	80fb      	strh	r3, [r7, #6]
 80036b0:	f107 0008 	add.w	r0, r7, #8
 80036b4:	2306      	movs	r3, #6
 80036b6:	2200      	movs	r2, #0
 80036b8:	f246 0140 	movw	r1, #24640	; 0x6040
 80036bc:	f000 f872 	bl	80037a4 <EPOS4_DataFramer>
 80036c0:	f107 0208 	add.w	r2, r7, #8
 80036c4:	88fb      	ldrh	r3, [r7, #6]
 80036c6:	2108      	movs	r1, #8
 80036c8:	4618      	mov	r0, r3
 80036ca:	f000 fa76 	bl	8003bba <CAN_transmit>
 80036ce:	200a      	movs	r0, #10
 80036d0:	f002 f808 	bl	80056e4 <LL_mDelay>
 80036d4:	f107 0008 	add.w	r0, r7, #8
 80036d8:	230f      	movs	r3, #15
 80036da:	2200      	movs	r2, #0
 80036dc:	f246 0140 	movw	r1, #24640	; 0x6040
 80036e0:	f000 f860 	bl	80037a4 <EPOS4_DataFramer>
 80036e4:	f107 0208 	add.w	r2, r7, #8
 80036e8:	88fb      	ldrh	r3, [r7, #6]
 80036ea:	2108      	movs	r1, #8
 80036ec:	4618      	mov	r0, r3
 80036ee:	f000 fa64 	bl	8003bba <CAN_transmit>
 80036f2:	200a      	movs	r0, #10
 80036f4:	f001 fff6 	bl	80056e4 <LL_mDelay>
 80036f8:	f107 0008 	add.w	r0, r7, #8
 80036fc:	230a      	movs	r3, #10
 80036fe:	2200      	movs	r2, #0
 8003700:	f246 0160 	movw	r1, #24672	; 0x6060
 8003704:	f000 f84e 	bl	80037a4 <EPOS4_DataFramer>
 8003708:	f107 0208 	add.w	r2, r7, #8
 800370c:	88fb      	ldrh	r3, [r7, #6]
 800370e:	2108      	movs	r1, #8
 8003710:	4618      	mov	r0, r3
 8003712:	f000 fa52 	bl	8003bba <CAN_transmit>
 8003716:	200a      	movs	r0, #10
 8003718:	f001 ffe4 	bl	80056e4 <LL_mDelay>
 800371c:	f107 0008 	add.w	r0, r7, #8
 8003720:	2306      	movs	r3, #6
 8003722:	2200      	movs	r2, #0
 8003724:	f246 0140 	movw	r1, #24640	; 0x6040
 8003728:	f000 f83c 	bl	80037a4 <EPOS4_DataFramer>
 800372c:	f107 0208 	add.w	r2, r7, #8
 8003730:	88fb      	ldrh	r3, [r7, #6]
 8003732:	2108      	movs	r1, #8
 8003734:	4618      	mov	r0, r3
 8003736:	f000 fa40 	bl	8003bba <CAN_transmit>
 800373a:	200a      	movs	r0, #10
 800373c:	f001 ffd2 	bl	80056e4 <LL_mDelay>
 8003740:	f107 0008 	add.w	r0, r7, #8
 8003744:	230f      	movs	r3, #15
 8003746:	2200      	movs	r2, #0
 8003748:	f246 0140 	movw	r1, #24640	; 0x6040
 800374c:	f000 f82a 	bl	80037a4 <EPOS4_DataFramer>
 8003750:	f107 0208 	add.w	r2, r7, #8
 8003754:	88fb      	ldrh	r3, [r7, #6]
 8003756:	2108      	movs	r1, #8
 8003758:	4618      	mov	r0, r3
 800375a:	f000 fa2e 	bl	8003bba <CAN_transmit>
 800375e:	200a      	movs	r0, #10
 8003760:	f001 ffc0 	bl	80056e4 <LL_mDelay>
 8003764:	bf00      	nop
 8003766:	3710      	adds	r7, #16
 8003768:	46bd      	mov	sp, r7
 800376a:	bd80      	pop	{r7, pc}

0800376c <EPOS4_SetTorque>:
 800376c:	b580      	push	{r7, lr}
 800376e:	b084      	sub	sp, #16
 8003770:	af00      	add	r7, sp, #0
 8003772:	4603      	mov	r3, r0
 8003774:	6039      	str	r1, [r7, #0]
 8003776:	80fb      	strh	r3, [r7, #6]
 8003778:	683b      	ldr	r3, [r7, #0]
 800377a:	f107 0008 	add.w	r0, r7, #8
 800377e:	2200      	movs	r2, #0
 8003780:	f246 0171 	movw	r1, #24689	; 0x6071
 8003784:	f000 f80e 	bl	80037a4 <EPOS4_DataFramer>
 8003788:	f107 0208 	add.w	r2, r7, #8
 800378c:	88fb      	ldrh	r3, [r7, #6]
 800378e:	2108      	movs	r1, #8
 8003790:	4618      	mov	r0, r3
 8003792:	f000 fa12 	bl	8003bba <CAN_transmit>
 8003796:	2032      	movs	r0, #50	; 0x32
 8003798:	f000 f83d 	bl	8003816 <EPOS4_usDelay>
 800379c:	bf00      	nop
 800379e:	3710      	adds	r7, #16
 80037a0:	46bd      	mov	sp, r7
 80037a2:	bd80      	pop	{r7, pc}

080037a4 <EPOS4_DataFramer>:
 80037a4:	b480      	push	{r7}
 80037a6:	b085      	sub	sp, #20
 80037a8:	af00      	add	r7, sp, #0
 80037aa:	60f8      	str	r0, [r7, #12]
 80037ac:	607b      	str	r3, [r7, #4]
 80037ae:	460b      	mov	r3, r1
 80037b0:	817b      	strh	r3, [r7, #10]
 80037b2:	4613      	mov	r3, r2
 80037b4:	727b      	strb	r3, [r7, #9]
 80037b6:	68fb      	ldr	r3, [r7, #12]
 80037b8:	2222      	movs	r2, #34	; 0x22
 80037ba:	701a      	strb	r2, [r3, #0]
 80037bc:	68fb      	ldr	r3, [r7, #12]
 80037be:	3301      	adds	r3, #1
 80037c0:	897a      	ldrh	r2, [r7, #10]
 80037c2:	b2d2      	uxtb	r2, r2
 80037c4:	701a      	strb	r2, [r3, #0]
 80037c6:	897b      	ldrh	r3, [r7, #10]
 80037c8:	0a1b      	lsrs	r3, r3, #8
 80037ca:	b29a      	uxth	r2, r3
 80037cc:	68fb      	ldr	r3, [r7, #12]
 80037ce:	3302      	adds	r3, #2
 80037d0:	b2d2      	uxtb	r2, r2
 80037d2:	701a      	strb	r2, [r3, #0]
 80037d4:	68fb      	ldr	r3, [r7, #12]
 80037d6:	3303      	adds	r3, #3
 80037d8:	7a7a      	ldrb	r2, [r7, #9]
 80037da:	701a      	strb	r2, [r3, #0]
 80037dc:	68fb      	ldr	r3, [r7, #12]
 80037de:	3304      	adds	r3, #4
 80037e0:	687a      	ldr	r2, [r7, #4]
 80037e2:	b2d2      	uxtb	r2, r2
 80037e4:	701a      	strb	r2, [r3, #0]
 80037e6:	687b      	ldr	r3, [r7, #4]
 80037e8:	0a1a      	lsrs	r2, r3, #8
 80037ea:	68fb      	ldr	r3, [r7, #12]
 80037ec:	3305      	adds	r3, #5
 80037ee:	b2d2      	uxtb	r2, r2
 80037f0:	701a      	strb	r2, [r3, #0]
 80037f2:	687b      	ldr	r3, [r7, #4]
 80037f4:	0c1a      	lsrs	r2, r3, #16
 80037f6:	68fb      	ldr	r3, [r7, #12]
 80037f8:	3306      	adds	r3, #6
 80037fa:	b2d2      	uxtb	r2, r2
 80037fc:	701a      	strb	r2, [r3, #0]
 80037fe:	687b      	ldr	r3, [r7, #4]
 8003800:	0e1a      	lsrs	r2, r3, #24
 8003802:	68fb      	ldr	r3, [r7, #12]
 8003804:	3307      	adds	r3, #7
 8003806:	b2d2      	uxtb	r2, r2
 8003808:	701a      	strb	r2, [r3, #0]
 800380a:	bf00      	nop
 800380c:	3714      	adds	r7, #20
 800380e:	46bd      	mov	sp, r7
 8003810:	f85d 7b04 	ldr.w	r7, [sp], #4
 8003814:	4770      	bx	lr

08003816 <EPOS4_usDelay>:
 8003816:	b480      	push	{r7}
 8003818:	b085      	sub	sp, #20
 800381a:	af00      	add	r7, sp, #0
 800381c:	6078      	str	r0, [r7, #4]
 800381e:	2300      	movs	r3, #0
 8003820:	60bb      	str	r3, [r7, #8]
 8003822:	e00c      	b.n	800383e <EPOS4_usDelay+0x28>
 8003824:	2300      	movs	r3, #0
 8003826:	60fb      	str	r3, [r7, #12]
 8003828:	e003      	b.n	8003832 <EPOS4_usDelay+0x1c>
 800382a:	bf00      	nop
 800382c:	68fb      	ldr	r3, [r7, #12]
 800382e:	3301      	adds	r3, #1
 8003830:	60fb      	str	r3, [r7, #12]
 8003832:	68fb      	ldr	r3, [r7, #12]
 8003834:	2b0a      	cmp	r3, #10
 8003836:	d9f8      	bls.n	800382a <EPOS4_usDelay+0x14>
 8003838:	68bb      	ldr	r3, [r7, #8]
 800383a:	3301      	adds	r3, #1
 800383c:	60bb      	str	r3, [r7, #8]
 800383e:	68ba      	ldr	r2, [r7, #8]
 8003840:	687b      	ldr	r3, [r7, #4]
 8003842:	429a      	cmp	r2, r3
 8003844:	d3ee      	bcc.n	8003824 <EPOS4_usDelay+0xe>
 8003846:	bf00      	nop
 8003848:	bf00      	nop
 800384a:	3714      	adds	r7, #20
 800384c:	46bd      	mov	sp, r7
 800384e:	f85d 7b04 	ldr.w	r7, [sp], #4
 8003852:	4770      	bx	lr

08003854 <LL_SPI_TransmitData8>:
 8003854:	b480      	push	{r7}
 8003856:	b085      	sub	sp, #20
 8003858:	af00      	add	r7, sp, #0
 800385a:	6078      	str	r0, [r7, #4]
 800385c:	460b      	mov	r3, r1
 800385e:	70fb      	strb	r3, [r7, #3]
 8003860:	687b      	ldr	r3, [r7, #4]
 8003862:	330c      	adds	r3, #12
 8003864:	60fb      	str	r3, [r7, #12]
 8003866:	68fb      	ldr	r3, [r7, #12]
 8003868:	78fa      	ldrb	r2, [r7, #3]
 800386a:	701a      	strb	r2, [r3, #0]
 800386c:	bf00      	nop
 800386e:	3714      	adds	r7, #20
 8003870:	46bd      	mov	sp, r7
 8003872:	f85d 7b04 	ldr.w	r7, [sp], #4
 8003876:	4770      	bx	lr

08003878 <LL_GPIO_SetOutputPin>:
 8003878:	b480      	push	{r7}
 800387a:	b083      	sub	sp, #12
 800387c:	af00      	add	r7, sp, #0
 800387e:	6078      	str	r0, [r7, #4]
 8003880:	6039      	str	r1, [r7, #0]
 8003882:	687b      	ldr	r3, [r7, #4]
 8003884:	683a      	ldr	r2, [r7, #0]
 8003886:	619a      	str	r2, [r3, #24]
 8003888:	bf00      	nop
 800388a:	370c      	adds	r7, #12
 800388c:	46bd      	mov	sp, r7
 800388e:	f85d 7b04 	ldr.w	r7, [sp], #4
 8003892:	4770      	bx	lr

08003894 <LL_GPIO_ResetOutputPin>:
 8003894:	b480      	push	{r7}
 8003896:	b083      	sub	sp, #12
 8003898:	af00      	add	r7, sp, #0
 800389a:	6078      	str	r0, [r7, #4]
 800389c:	6039      	str	r1, [r7, #0]
 800389e:	687b      	ldr	r3, [r7, #4]
 80038a0:	683a      	ldr	r2, [r7, #0]
 80038a2:	629a      	str	r2, [r3, #40]	; 0x28
 80038a4:	bf00      	nop
 80038a6:	370c      	adds	r7, #12
 80038a8:	46bd      	mov	sp, r7
 80038aa:	f85d 7b04 	ldr.w	r7, [sp], #4
 80038ae:	4770      	bx	lr

080038b0 <clearChipSelect>:
 80038b0:	b580      	push	{r7, lr}
 80038b2:	af00      	add	r7, sp, #0
 80038b4:	f44f 5180 	mov.w	r1, #4096	; 0x1000
 80038b8:	4802      	ldr	r0, [pc, #8]	; (80038c4 <clearChipSelect+0x14>)
 80038ba:	f7ff ffdd 	bl	8003878 <LL_GPIO_SetOutputPin>
 80038be:	bf00      	nop
 80038c0:	bd80      	pop	{r7, pc}
 80038c2:	bf00      	nop
 80038c4:	48000400 	.word	0x48000400

080038c8 <setChipSelect>:
 80038c8:	b580      	push	{r7, lr}
 80038ca:	af00      	add	r7, sp, #0
 80038cc:	f44f 5180 	mov.w	r1, #4096	; 0x1000
 80038d0:	4802      	ldr	r0, [pc, #8]	; (80038dc <setChipSelect+0x14>)
 80038d2:	f7ff ffdf 	bl	8003894 <LL_GPIO_ResetOutputPin>
 80038d6:	bf00      	nop
 80038d8:	bd80      	pop	{r7, pc}
 80038da:	bf00      	nop
 80038dc:	48000400 	.word	0x48000400

080038e0 <mcp25625_reset>:
 80038e0:	b580      	push	{r7, lr}
 80038e2:	b082      	sub	sp, #8
 80038e4:	af00      	add	r7, sp, #0
 80038e6:	f7ff ffef 	bl	80038c8 <setChipSelect>
 80038ea:	21c0      	movs	r1, #192	; 0xc0
 80038ec:	480d      	ldr	r0, [pc, #52]	; (8003924 <mcp25625_reset+0x44>)
 80038ee:	f7ff ffb1 	bl	8003854 <LL_SPI_TransmitData8>
 80038f2:	bf00      	nop
 80038f4:	4b0b      	ldr	r3, [pc, #44]	; (8003924 <mcp25625_reset+0x44>)
 80038f6:	689b      	ldr	r3, [r3, #8]
 80038f8:	f003 0380 	and.w	r3, r3, #128	; 0x80
 80038fc:	2b00      	cmp	r3, #0
 80038fe:	d1f9      	bne.n	80038f4 <mcp25625_reset+0x14>
 8003900:	f7ff ffd6 	bl	80038b0 <clearChipSelect>
 8003904:	e002      	b.n	800390c <mcp25625_reset+0x2c>
 8003906:	4b07      	ldr	r3, [pc, #28]	; (8003924 <mcp25625_reset+0x44>)
 8003908:	68db      	ldr	r3, [r3, #12]
 800390a:	71fb      	strb	r3, [r7, #7]
 800390c:	4b05      	ldr	r3, [pc, #20]	; (8003924 <mcp25625_reset+0x44>)
 800390e:	689b      	ldr	r3, [r3, #8]
 8003910:	f403 63c0 	and.w	r3, r3, #1536	; 0x600
 8003914:	2b00      	cmp	r3, #0
 8003916:	d1f6      	bne.n	8003906 <mcp25625_reset+0x26>
 8003918:	bf00      	nop
 800391a:	bf00      	nop
 800391c:	3708      	adds	r7, #8
 800391e:	46bd      	mov	sp, r7
 8003920:	bd80      	pop	{r7, pc}
 8003922:	bf00      	nop
 8003924:	40003800 	.word	0x40003800

08003928 <mcp25625_writeRegister>:
 8003928:	b580      	push	{r7, lr}
 800392a:	b084      	sub	sp, #16
 800392c:	af00      	add	r7, sp, #0
 800392e:	4603      	mov	r3, r0
 8003930:	460a      	mov	r2, r1
 8003932:	71fb      	strb	r3, [r7, #7]
 8003934:	4613      	mov	r3, r2
 8003936:	71bb      	strb	r3, [r7, #6]
 8003938:	f7ff ffc6 	bl	80038c8 <setChipSelect>
 800393c:	2102      	movs	r1, #2
 800393e:	4816      	ldr	r0, [pc, #88]	; (8003998 <mcp25625_writeRegister+0x70>)
 8003940:	f7ff ff88 	bl	8003854 <LL_SPI_TransmitData8>
 8003944:	79fb      	ldrb	r3, [r7, #7]
 8003946:	4619      	mov	r1, r3
 8003948:	4813      	ldr	r0, [pc, #76]	; (8003998 <mcp25625_writeRegister+0x70>)
 800394a:	f7ff ff83 	bl	8003854 <LL_SPI_TransmitData8>
 800394e:	79bb      	ldrb	r3, [r7, #6]
 8003950:	4619      	mov	r1, r3
 8003952:	4811      	ldr	r0, [pc, #68]	; (8003998 <mcp25625_writeRegister+0x70>)
 8003954:	f7ff ff7e 	bl	8003854 <LL_SPI_TransmitData8>
 8003958:	bf00      	nop
 800395a:	4b0f      	ldr	r3, [pc, #60]	; (8003998 <mcp25625_writeRegister+0x70>)
 800395c:	689b      	ldr	r3, [r3, #8]
 800395e:	f403 53c0 	and.w	r3, r3, #6144	; 0x1800
 8003962:	2b00      	cmp	r3, #0
 8003964:	d1f9      	bne.n	800395a <mcp25625_writeRegister+0x32>
 8003966:	bf00      	nop
 8003968:	4b0b      	ldr	r3, [pc, #44]	; (8003998 <mcp25625_writeRegister+0x70>)
 800396a:	689b      	ldr	r3, [r3, #8]
 800396c:	f003 0380 	and.w	r3, r3, #128	; 0x80
 8003970:	2b00      	cmp	r3, #0
 8003972:	d1f9      	bne.n	8003968 <mcp25625_writeRegister+0x40>
 8003974:	f7ff ff9c 	bl	80038b0 <clearChipSelect>
 8003978:	e002      	b.n	8003980 <mcp25625_writeRegister+0x58>
 800397a:	4b07      	ldr	r3, [pc, #28]	; (8003998 <mcp25625_writeRegister+0x70>)
 800397c:	68db      	ldr	r3, [r3, #12]
 800397e:	73fb      	strb	r3, [r7, #15]
 8003980:	4b05      	ldr	r3, [pc, #20]	; (8003998 <mcp25625_writeRegister+0x70>)
 8003982:	689b      	ldr	r3, [r3, #8]
 8003984:	f403 63c0 	and.w	r3, r3, #1536	; 0x600
 8003988:	2b00      	cmp	r3, #0
 800398a:	d1f6      	bne.n	800397a <mcp25625_writeRegister+0x52>
 800398c:	bf00      	nop
 800398e:	bf00      	nop
 8003990:	3710      	adds	r7, #16
 8003992:	46bd      	mov	sp, r7
 8003994:	bd80      	pop	{r7, pc}
 8003996:	bf00      	nop
 8003998:	40003800 	.word	0x40003800

0800399c <mcp25625_readRegister>:
 800399c:	b580      	push	{r7, lr}
 800399e:	b084      	sub	sp, #16
 80039a0:	af00      	add	r7, sp, #0
 80039a2:	4603      	mov	r3, r0
 80039a4:	71fb      	strb	r3, [r7, #7]
 80039a6:	f7ff ff8f 	bl	80038c8 <setChipSelect>
 80039aa:	2103      	movs	r1, #3
 80039ac:	4814      	ldr	r0, [pc, #80]	; (8003a00 <mcp25625_readRegister+0x64>)
 80039ae:	f7ff ff51 	bl	8003854 <LL_SPI_TransmitData8>
 80039b2:	79fb      	ldrb	r3, [r7, #7]
 80039b4:	4619      	mov	r1, r3
 80039b6:	4812      	ldr	r0, [pc, #72]	; (8003a00 <mcp25625_readRegister+0x64>)
 80039b8:	f7ff ff4c 	bl	8003854 <LL_SPI_TransmitData8>
 80039bc:	2100      	movs	r1, #0
 80039be:	4810      	ldr	r0, [pc, #64]	; (8003a00 <mcp25625_readRegister+0x64>)
 80039c0:	f7ff ff48 	bl	8003854 <LL_SPI_TransmitData8>
 80039c4:	bf00      	nop
 80039c6:	4b0e      	ldr	r3, [pc, #56]	; (8003a00 <mcp25625_readRegister+0x64>)
 80039c8:	689b      	ldr	r3, [r3, #8]
 80039ca:	f403 53c0 	and.w	r3, r3, #6144	; 0x1800
 80039ce:	2b00      	cmp	r3, #0
 80039d0:	d1f9      	bne.n	80039c6 <mcp25625_readRegister+0x2a>
 80039d2:	bf00      	nop
 80039d4:	4b0a      	ldr	r3, [pc, #40]	; (8003a00 <mcp25625_readRegister+0x64>)
 80039d6:	689b      	ldr	r3, [r3, #8]
 80039d8:	f003 0380 	and.w	r3, r3, #128	; 0x80
 80039dc:	2b00      	cmp	r3, #0
 80039de:	d1f9      	bne.n	80039d4 <mcp25625_readRegister+0x38>
 80039e0:	4b07      	ldr	r3, [pc, #28]	; (8003a00 <mcp25625_readRegister+0x64>)
 80039e2:	68db      	ldr	r3, [r3, #12]
 80039e4:	73fb      	strb	r3, [r7, #15]
 80039e6:	4b06      	ldr	r3, [pc, #24]	; (8003a00 <mcp25625_readRegister+0x64>)
 80039e8:	68db      	ldr	r3, [r3, #12]
 80039ea:	73fb      	strb	r3, [r7, #15]
 80039ec:	4b04      	ldr	r3, [pc, #16]	; (8003a00 <mcp25625_readRegister+0x64>)
 80039ee:	68db      	ldr	r3, [r3, #12]
 80039f0:	73bb      	strb	r3, [r7, #14]
 80039f2:	f7ff ff5d 	bl	80038b0 <clearChipSelect>
 80039f6:	7bbb      	ldrb	r3, [r7, #14]
 80039f8:	4618      	mov	r0, r3
 80039fa:	3710      	adds	r7, #16
 80039fc:	46bd      	mov	sp, r7
 80039fe:	bd80      	pop	{r7, pc}
 8003a00:	40003800 	.word	0x40003800

08003a04 <mcp25625_loadTXB>:
 8003a04:	b580      	push	{r7, lr}
 8003a06:	b084      	sub	sp, #16
 8003a08:	af00      	add	r7, sp, #0
 8003a0a:	4603      	mov	r3, r0
 8003a0c:	603a      	str	r2, [r7, #0]
 8003a0e:	71fb      	strb	r3, [r7, #7]
 8003a10:	460b      	mov	r3, r1
 8003a12:	71bb      	strb	r3, [r7, #6]
 8003a14:	f7ff ff58 	bl	80038c8 <setChipSelect>
 8003a18:	79fb      	ldrb	r3, [r7, #7]
 8003a1a:	4619      	mov	r1, r3
 8003a1c:	481d      	ldr	r0, [pc, #116]	; (8003a94 <mcp25625_loadTXB+0x90>)
 8003a1e:	f7ff ff19 	bl	8003854 <LL_SPI_TransmitData8>
 8003a22:	2300      	movs	r3, #0
 8003a24:	73fb      	strb	r3, [r7, #15]
 8003a26:	e011      	b.n	8003a4c <mcp25625_loadTXB+0x48>
 8003a28:	bf00      	nop
 8003a2a:	4b1a      	ldr	r3, [pc, #104]	; (8003a94 <mcp25625_loadTXB+0x90>)
 8003a2c:	689b      	ldr	r3, [r3, #8]
 8003a2e:	f003 0302 	and.w	r3, r3, #2
 8003a32:	2b00      	cmp	r3, #0
 8003a34:	d0f9      	beq.n	8003a2a <mcp25625_loadTXB+0x26>
 8003a36:	7bfb      	ldrb	r3, [r7, #15]
 8003a38:	683a      	ldr	r2, [r7, #0]
 8003a3a:	4413      	add	r3, r2
 8003a3c:	781b      	ldrb	r3, [r3, #0]
 8003a3e:	4619      	mov	r1, r3
 8003a40:	4814      	ldr	r0, [pc, #80]	; (8003a94 <mcp25625_loadTXB+0x90>)
 8003a42:	f7ff ff07 	bl	8003854 <LL_SPI_TransmitData8>
 8003a46:	7bfb      	ldrb	r3, [r7, #15]
 8003a48:	3301      	adds	r3, #1
 8003a4a:	73fb      	strb	r3, [r7, #15]
 8003a4c:	7bfa      	ldrb	r2, [r7, #15]
 8003a4e:	79bb      	ldrb	r3, [r7, #6]
 8003a50:	429a      	cmp	r2, r3
 8003a52:	d3e9      	bcc.n	8003a28 <mcp25625_loadTXB+0x24>
 8003a54:	bf00      	nop
 8003a56:	4b0f      	ldr	r3, [pc, #60]	; (8003a94 <mcp25625_loadTXB+0x90>)
 8003a58:	689b      	ldr	r3, [r3, #8]
 8003a5a:	f403 53c0 	and.w	r3, r3, #6144	; 0x1800
 8003a5e:	2b00      	cmp	r3, #0
 8003a60:	d1f9      	bne.n	8003a56 <mcp25625_loadTXB+0x52>
 8003a62:	bf00      	nop
 8003a64:	4b0b      	ldr	r3, [pc, #44]	; (8003a94 <mcp25625_loadTXB+0x90>)
 8003a66:	689b      	ldr	r3, [r3, #8]
 8003a68:	f003 0380 	and.w	r3, r3, #128	; 0x80
 8003a6c:	2b00      	cmp	r3, #0
 8003a6e:	d1f9      	bne.n	8003a64 <mcp25625_loadTXB+0x60>
 8003a70:	f7ff ff1e 	bl	80038b0 <clearChipSelect>
 8003a74:	e002      	b.n	8003a7c <mcp25625_loadTXB+0x78>
 8003a76:	4b07      	ldr	r3, [pc, #28]	; (8003a94 <mcp25625_loadTXB+0x90>)
 8003a78:	68db      	ldr	r3, [r3, #12]
 8003a7a:	73bb      	strb	r3, [r7, #14]
 8003a7c:	4b05      	ldr	r3, [pc, #20]	; (8003a94 <mcp25625_loadTXB+0x90>)
 8003a7e:	689b      	ldr	r3, [r3, #8]
 8003a80:	f403 63c0 	and.w	r3, r3, #1536	; 0x600
 8003a84:	2b00      	cmp	r3, #0
 8003a86:	d1f6      	bne.n	8003a76 <mcp25625_loadTXB+0x72>
 8003a88:	bf00      	nop
 8003a8a:	bf00      	nop
 8003a8c:	3710      	adds	r7, #16
 8003a8e:	46bd      	mov	sp, r7
 8003a90:	bd80      	pop	{r7, pc}
 8003a92:	bf00      	nop
 8003a94:	40003800 	.word	0x40003800

08003a98 <getTXB0CTRL>:
 8003a98:	b580      	push	{r7, lr}
 8003a9a:	af00      	add	r7, sp, #0
 8003a9c:	2030      	movs	r0, #48	; 0x30
 8003a9e:	f7ff ff7d 	bl	800399c <mcp25625_readRegister>
 8003aa2:	4603      	mov	r3, r0
 8003aa4:	4618      	mov	r0, r3
 8003aa6:	bd80      	pop	{r7, pc}

08003aa8 <getTXB1CTRL>:
 8003aa8:	b580      	push	{r7, lr}
 8003aaa:	af00      	add	r7, sp, #0
 8003aac:	2040      	movs	r0, #64	; 0x40
 8003aae:	f7ff ff75 	bl	800399c <mcp25625_readRegister>
 8003ab2:	4603      	mov	r3, r0
 8003ab4:	4618      	mov	r0, r3
 8003ab6:	bd80      	pop	{r7, pc}

08003ab8 <getTXB2CTRL>:
 8003ab8:	b580      	push	{r7, lr}
 8003aba:	af00      	add	r7, sp, #0
 8003abc:	2050      	movs	r0, #80	; 0x50
 8003abe:	f7ff ff6d 	bl	800399c <mcp25625_readRegister>
 8003ac2:	4603      	mov	r3, r0
 8003ac4:	4618      	mov	r0, r3
 8003ac6:	bd80      	pop	{r7, pc}

08003ac8 <loadTXB2>:
 8003ac8:	b580      	push	{r7, lr}
 8003aca:	b082      	sub	sp, #8
 8003acc:	af00      	add	r7, sp, #0
 8003ace:	6078      	str	r0, [r7, #4]
 8003ad0:	687a      	ldr	r2, [r7, #4]
 8003ad2:	210d      	movs	r1, #13
 8003ad4:	2044      	movs	r0, #68	; 0x44
 8003ad6:	f7ff ff95 	bl	8003a04 <mcp25625_loadTXB>
 8003ada:	bf00      	nop
 8003adc:	3708      	adds	r7, #8
 8003ade:	46bd      	mov	sp, r7
 8003ae0:	bd80      	pop	{r7, pc}

08003ae2 <loadTXB1>:
 8003ae2:	b580      	push	{r7, lr}
 8003ae4:	b082      	sub	sp, #8
 8003ae6:	af00      	add	r7, sp, #0
 8003ae8:	6078      	str	r0, [r7, #4]
 8003aea:	687a      	ldr	r2, [r7, #4]
 8003aec:	210d      	movs	r1, #13
 8003aee:	2042      	movs	r0, #66	; 0x42
 8003af0:	f7ff ff88 	bl	8003a04 <mcp25625_loadTXB>
 8003af4:	bf00      	nop
 8003af6:	3708      	adds	r7, #8
 8003af8:	46bd      	mov	sp, r7
 8003afa:	bd80      	pop	{r7, pc}

08003afc <loadTXB0>:
 8003afc:	b580      	push	{r7, lr}
 8003afe:	b082      	sub	sp, #8
 8003b00:	af00      	add	r7, sp, #0
 8003b02:	6078      	str	r0, [r7, #4]
 8003b04:	687a      	ldr	r2, [r7, #4]
 8003b06:	210d      	movs	r1, #13
 8003b08:	2040      	movs	r0, #64	; 0x40
 8003b0a:	f7ff ff7b 	bl	8003a04 <mcp25625_loadTXB>
 8003b0e:	bf00      	nop
 8003b10:	3708      	adds	r7, #8
 8003b12:	46bd      	mov	sp, r7
 8003b14:	bd80      	pop	{r7, pc}

08003b16 <setTXREQ2>:
 8003b16:	b580      	push	{r7, lr}
 8003b18:	af00      	add	r7, sp, #0
 8003b1a:	210b      	movs	r1, #11
 8003b1c:	2050      	movs	r0, #80	; 0x50
 8003b1e:	f7ff ff03 	bl	8003928 <mcp25625_writeRegister>
 8003b22:	bf00      	nop
 8003b24:	bd80      	pop	{r7, pc}

08003b26 <setTXREQ1>:
 8003b26:	b580      	push	{r7, lr}
 8003b28:	af00      	add	r7, sp, #0
 8003b2a:	210b      	movs	r1, #11
 8003b2c:	2040      	movs	r0, #64	; 0x40
 8003b2e:	f7ff fefb 	bl	8003928 <mcp25625_writeRegister>
 8003b32:	bf00      	nop
 8003b34:	bd80      	pop	{r7, pc}

08003b36 <setTXREQ0>:
 8003b36:	b580      	push	{r7, lr}
 8003b38:	af00      	add	r7, sp, #0
 8003b3a:	210b      	movs	r1, #11
 8003b3c:	2030      	movs	r0, #48	; 0x30
 8003b3e:	f7ff fef3 	bl	8003928 <mcp25625_writeRegister>
 8003b42:	bf00      	nop
 8003b44:	bd80      	pop	{r7, pc}

08003b46 <mcp25625_sendCAN>:
 8003b46:	b580      	push	{r7, lr}
 8003b48:	b084      	sub	sp, #16
 8003b4a:	af00      	add	r7, sp, #0
 8003b4c:	6078      	str	r0, [r7, #4]
 8003b4e:	f7ff ffb3 	bl	8003ab8 <getTXB2CTRL>
 8003b52:	4603      	mov	r3, r0
 8003b54:	733b      	strb	r3, [r7, #12]
 8003b56:	7b3b      	ldrb	r3, [r7, #12]
 8003b58:	f003 0310 	and.w	r3, r3, #16
 8003b5c:	b2db      	uxtb	r3, r3
 8003b5e:	2b00      	cmp	r3, #0
 8003b60:	d106      	bne.n	8003b70 <mcp25625_sendCAN+0x2a>
 8003b62:	687b      	ldr	r3, [r7, #4]
 8003b64:	4618      	mov	r0, r3
 8003b66:	f7ff ffaf 	bl	8003ac8 <loadTXB2>
 8003b6a:	f7ff ffd4 	bl	8003b16 <setTXREQ2>
 8003b6e:	e021      	b.n	8003bb4 <mcp25625_sendCAN+0x6e>
 8003b70:	f7ff ff9a 	bl	8003aa8 <getTXB1CTRL>
 8003b74:	4603      	mov	r3, r0
 8003b76:	733b      	strb	r3, [r7, #12]
 8003b78:	7b3b      	ldrb	r3, [r7, #12]
 8003b7a:	f003 0310 	and.w	r3, r3, #16
 8003b7e:	b2db      	uxtb	r3, r3
 8003b80:	2b00      	cmp	r3, #0
 8003b82:	d106      	bne.n	8003b92 <mcp25625_sendCAN+0x4c>
 8003b84:	687b      	ldr	r3, [r7, #4]
 8003b86:	4618      	mov	r0, r3
 8003b88:	f7ff ffab 	bl	8003ae2 <loadTXB1>
 8003b8c:	f7ff ffcb 	bl	8003b26 <setTXREQ1>
 8003b90:	e010      	b.n	8003bb4 <mcp25625_sendCAN+0x6e>
 8003b92:	f7ff ff81 	bl	8003a98 <getTXB0CTRL>
 8003b96:	4603      	mov	r3, r0
 8003b98:	733b      	strb	r3, [r7, #12]
 8003b9a:	7b3b      	ldrb	r3, [r7, #12]
 8003b9c:	f003 0310 	and.w	r3, r3, #16
 8003ba0:	b2db      	uxtb	r3, r3
 8003ba2:	2b00      	cmp	r3, #0
 8003ba4:	d106      	bne.n	8003bb4 <mcp25625_sendCAN+0x6e>
 8003ba6:	687b      	ldr	r3, [r7, #4]
 8003ba8:	4618      	mov	r0, r3
 8003baa:	f7ff ffa7 	bl	8003afc <loadTXB0>
 8003bae:	f7ff ffc2 	bl	8003b36 <setTXREQ0>
 8003bb2:	bf00      	nop
 8003bb4:	3710      	adds	r7, #16
 8003bb6:	46bd      	mov	sp, r7
 8003bb8:	bd80      	pop	{r7, pc}

08003bba <CAN_transmit>:
 8003bba:	b580      	push	{r7, lr}
 8003bbc:	b086      	sub	sp, #24
 8003bbe:	af00      	add	r7, sp, #0
 8003bc0:	4603      	mov	r3, r0
 8003bc2:	603a      	str	r2, [r7, #0]
 8003bc4:	80fb      	strh	r3, [r7, #6]
 8003bc6:	460b      	mov	r3, r1
 8003bc8:	717b      	strb	r3, [r7, #5]
 8003bca:	f107 0308 	add.w	r3, r7, #8
 8003bce:	220d      	movs	r2, #13
 8003bd0:	2100      	movs	r1, #0
 8003bd2:	4618      	mov	r0, r3
 8003bd4:	f001 fdf0 	bl	80057b8 <memset>
 8003bd8:	88fb      	ldrh	r3, [r7, #6]
 8003bda:	08db      	lsrs	r3, r3, #3
 8003bdc:	b29b      	uxth	r3, r3
 8003bde:	b2db      	uxtb	r3, r3
 8003be0:	723b      	strb	r3, [r7, #8]
 8003be2:	88fb      	ldrh	r3, [r7, #6]
 8003be4:	015b      	lsls	r3, r3, #5
 8003be6:	b2db      	uxtb	r3, r3
 8003be8:	727b      	strb	r3, [r7, #9]
 8003bea:	797b      	ldrb	r3, [r7, #5]
 8003bec:	733b      	strb	r3, [r7, #12]
 8003bee:	2300      	movs	r3, #0
 8003bf0:	75fb      	strb	r3, [r7, #23]
 8003bf2:	e00b      	b.n	8003c0c <CAN_transmit+0x52>
 8003bf4:	7dfb      	ldrb	r3, [r7, #23]
 8003bf6:	683a      	ldr	r2, [r7, #0]
 8003bf8:	441a      	add	r2, r3
 8003bfa:	7dfb      	ldrb	r3, [r7, #23]
 8003bfc:	7812      	ldrb	r2, [r2, #0]
 8003bfe:	3318      	adds	r3, #24
 8003c00:	443b      	add	r3, r7
 8003c02:	f803 2c0b 	strb.w	r2, [r3, #-11]
 8003c06:	7dfb      	ldrb	r3, [r7, #23]
 8003c08:	3301      	adds	r3, #1
 8003c0a:	75fb      	strb	r3, [r7, #23]
 8003c0c:	7dfa      	ldrb	r2, [r7, #23]
 8003c0e:	797b      	ldrb	r3, [r7, #5]
 8003c10:	429a      	cmp	r2, r3
 8003c12:	d3ef      	bcc.n	8003bf4 <CAN_transmit+0x3a>
 8003c14:	f107 0308 	add.w	r3, r7, #8
 8003c18:	4618      	mov	r0, r3
 8003c1a:	f7ff ff94 	bl	8003b46 <mcp25625_sendCAN>
 8003c1e:	bf00      	nop
 8003c20:	3718      	adds	r7, #24
 8003c22:	46bd      	mov	sp, r7
 8003c24:	bd80      	pop	{r7, pc}
	...

08003c28 <mcp25625_init>:
 8003c28:	b580      	push	{r7, lr}
 8003c2a:	af00      	add	r7, sp, #0
 8003c2c:	f240 2276 	movw	r2, #630	; 0x276
 8003c30:	2100      	movs	r1, #0
 8003c32:	4804      	ldr	r0, [pc, #16]	; (8003c44 <mcp25625_init+0x1c>)
 8003c34:	f001 fdc0 	bl	80057b8 <memset>
 8003c38:	f7ff fe3a 	bl	80038b0 <clearChipSelect>
 8003c3c:	f7ff fe50 	bl	80038e0 <mcp25625_reset>
 8003c40:	bf00      	nop
 8003c42:	bd80      	pop	{r7, pc}
 8003c44:	2000031c 	.word	0x2000031c

08003c48 <CAN_configure>:
 8003c48:	b580      	push	{r7, lr}
 8003c4a:	b084      	sub	sp, #16
 8003c4c:	af00      	add	r7, sp, #0
 8003c4e:	23c0      	movs	r3, #192	; 0xc0
 8003c50:	733b      	strb	r3, [r7, #12]
 8003c52:	2389      	movs	r3, #137	; 0x89
 8003c54:	723b      	strb	r3, [r7, #8]
 8003c56:	2304      	movs	r3, #4
 8003c58:	713b      	strb	r3, [r7, #4]
 8003c5a:	2308      	movs	r3, #8
 8003c5c:	703b      	strb	r3, [r7, #0]
 8003c5e:	f7ff ffe3 	bl	8003c28 <mcp25625_init>
 8003c62:	7b3b      	ldrb	r3, [r7, #12]
 8003c64:	4619      	mov	r1, r3
 8003c66:	202a      	movs	r0, #42	; 0x2a
 8003c68:	f7ff fe5e 	bl	8003928 <mcp25625_writeRegister>
 8003c6c:	7a3b      	ldrb	r3, [r7, #8]
 8003c6e:	4619      	mov	r1, r3
 8003c70:	2029      	movs	r0, #41	; 0x29
 8003c72:	f7ff fe59 	bl	8003928 <mcp25625_writeRegister>
 8003c76:	793b      	ldrb	r3, [r7, #4]
 8003c78:	4619      	mov	r1, r3
 8003c7a:	2028      	movs	r0, #40	; 0x28
 8003c7c:	f7ff fe54 	bl	8003928 <mcp25625_writeRegister>
 8003c80:	783b      	ldrb	r3, [r7, #0]
 8003c82:	4619      	mov	r1, r3
 8003c84:	200f      	movs	r0, #15
 8003c86:	f7ff fe4f 	bl	8003928 <mcp25625_writeRegister>
 8003c8a:	bf00      	nop
 8003c8c:	3710      	adds	r7, #16
 8003c8e:	46bd      	mov	sp, r7
 8003c90:	bd80      	pop	{r7, pc}

08003c92 <LL_SPI_IsActiveFlag_RXNE>:
  * @rmtoll SR           RXNE          LL_SPI_IsActiveFlag_RXNE
  * @param  SPIx SPI Instance
  * @retval State of bit (1 or 0).
  */
__STATIC_INLINE uint32_t LL_SPI_IsActiveFlag_RXNE(SPI_TypeDef *SPIx)
{
 8003c92:	b480      	push	{r7}
 8003c94:	b083      	sub	sp, #12
 8003c96:	af00      	add	r7, sp, #0
 8003c98:	6078      	str	r0, [r7, #4]
  return ((READ_BIT(SPIx->SR, SPI_SR_RXNE) == (SPI_SR_RXNE)) ? 1UL : 0UL);
 8003c9a:	687b      	ldr	r3, [r7, #4]
 8003c9c:	689b      	ldr	r3, [r3, #8]
 8003c9e:	f003 0301 	and.w	r3, r3, #1
 8003ca2:	2b01      	cmp	r3, #1
 8003ca4:	d101      	bne.n	8003caa <LL_SPI_IsActiveFlag_RXNE+0x18>
 8003ca6:	2301      	movs	r3, #1
 8003ca8:	e000      	b.n	8003cac <LL_SPI_IsActiveFlag_RXNE+0x1a>
 8003caa:	2300      	movs	r3, #0
}
 8003cac:	4618      	mov	r0, r3
 8003cae:	370c      	adds	r7, #12
 8003cb0:	46bd      	mov	sp, r7
 8003cb2:	f85d 7b04 	ldr.w	r7, [sp], #4
 8003cb6:	4770      	bx	lr

08003cb8 <LL_SPI_IsActiveFlag_TXE>:
  * @rmtoll SR           TXE           LL_SPI_IsActiveFlag_TXE
  * @param  SPIx SPI Instance
  * @retval State of bit (1 or 0).
  */
__STATIC_INLINE uint32_t LL_SPI_IsActiveFlag_TXE(SPI_TypeDef *SPIx)
{
 8003cb8:	b480      	push	{r7}
 8003cba:	b083      	sub	sp, #12
 8003cbc:	af00      	add	r7, sp, #0
 8003cbe:	6078      	str	r0, [r7, #4]
  return ((READ_BIT(SPIx->SR, SPI_SR_TXE) == (SPI_SR_TXE)) ? 1UL : 0UL);
 8003cc0:	687b      	ldr	r3, [r7, #4]
 8003cc2:	689b      	ldr	r3, [r3, #8]
 8003cc4:	f003 0302 	and.w	r3, r3, #2
 8003cc8:	2b02      	cmp	r3, #2
 8003cca:	d101      	bne.n	8003cd0 <LL_SPI_IsActiveFlag_TXE+0x18>
 8003ccc:	2301      	movs	r3, #1
 8003cce:	e000      	b.n	8003cd2 <LL_SPI_IsActiveFlag_TXE+0x1a>
 8003cd0:	2300      	movs	r3, #0
}
 8003cd2:	4618      	mov	r0, r3
 8003cd4:	370c      	adds	r7, #12
 8003cd6:	46bd      	mov	sp, r7
 8003cd8:	f85d 7b04 	ldr.w	r7, [sp], #4
 8003cdc:	4770      	bx	lr

08003cde <LL_SPI_ReceiveData8>:
  * @rmtoll DR           DR            LL_SPI_ReceiveData8
  * @param  SPIx SPI Instance
  * @retval RxData Value between Min_Data=0x00 and Max_Data=0xFF
  */
__STATIC_INLINE uint8_t LL_SPI_ReceiveData8(SPI_TypeDef *SPIx)
{
 8003cde:	b480      	push	{r7}
 8003ce0:	b083      	sub	sp, #12
 8003ce2:	af00      	add	r7, sp, #0
 8003ce4:	6078      	str	r0, [r7, #4]
  return (*((__IO uint8_t *)&SPIx->DR));
 8003ce6:	687b      	ldr	r3, [r7, #4]
 8003ce8:	330c      	adds	r3, #12
 8003cea:	781b      	ldrb	r3, [r3, #0]
 8003cec:	b2db      	uxtb	r3, r3
}
 8003cee:	4618      	mov	r0, r3
 8003cf0:	370c      	adds	r7, #12
 8003cf2:	46bd      	mov	sp, r7
 8003cf4:	f85d 7b04 	ldr.w	r7, [sp], #4
 8003cf8:	4770      	bx	lr

08003cfa <LL_SPI_TransmitData8>:
  * @param  SPIx SPI Instance
  * @param  TxData Value between Min_Data=0x00 and Max_Data=0xFF
  * @retval None
  */
__STATIC_INLINE void LL_SPI_TransmitData8(SPI_TypeDef *SPIx, uint8_t TxData)
{
 8003cfa:	b480      	push	{r7}
 8003cfc:	b085      	sub	sp, #20
 8003cfe:	af00      	add	r7, sp, #0
 8003d00:	6078      	str	r0, [r7, #4]
 8003d02:	460b      	mov	r3, r1
 8003d04:	70fb      	strb	r3, [r7, #3]
#if defined (__GNUC__)
  __IO uint8_t *spidr = ((__IO uint8_t *)&SPIx->DR);
 8003d06:	687b      	ldr	r3, [r7, #4]
 8003d08:	330c      	adds	r3, #12
 8003d0a:	60fb      	str	r3, [r7, #12]
  *spidr = TxData;
 8003d0c:	68fb      	ldr	r3, [r7, #12]
 8003d0e:	78fa      	ldrb	r2, [r7, #3]
 8003d10:	701a      	strb	r2, [r3, #0]
#else
  *((__IO uint8_t *)&SPIx->DR) = TxData;
#endif /* __GNUC__ */
}
 8003d12:	bf00      	nop
 8003d14:	3714      	adds	r7, #20
 8003d16:	46bd      	mov	sp, r7
 8003d18:	f85d 7b04 	ldr.w	r7, [sp], #4
 8003d1c:	4770      	bx	lr

08003d1e <LL_GPIO_SetOutputPin>:
  *         @arg @ref LL_GPIO_PIN_15
  *         @arg @ref LL_GPIO_PIN_ALL
  * @retval None
  */
__STATIC_INLINE void LL_GPIO_SetOutputPin(GPIO_TypeDef *GPIOx, uint32_t PinMask)
{
 8003d1e:	b480      	push	{r7}
 8003d20:	b083      	sub	sp, #12
 8003d22:	af00      	add	r7, sp, #0
 8003d24:	6078      	str	r0, [r7, #4]
 8003d26:	6039      	str	r1, [r7, #0]
  WRITE_REG(GPIOx->BSRR, PinMask);
 8003d28:	687b      	ldr	r3, [r7, #4]
 8003d2a:	683a      	ldr	r2, [r7, #0]
 8003d2c:	619a      	str	r2, [r3, #24]
}
 8003d2e:	bf00      	nop
 8003d30:	370c      	adds	r7, #12
 8003d32:	46bd      	mov	sp, r7
 8003d34:	f85d 7b04 	ldr.w	r7, [sp], #4
 8003d38:	4770      	bx	lr

08003d3a <LL_GPIO_ResetOutputPin>:
  *         @arg @ref LL_GPIO_PIN_15
  *         @arg @ref LL_GPIO_PIN_ALL
  * @retval None
  */
__STATIC_INLINE void LL_GPIO_ResetOutputPin(GPIO_TypeDef *GPIOx, uint32_t PinMask)
{
 8003d3a:	b480      	push	{r7}
 8003d3c:	b083      	sub	sp, #12
 8003d3e:	af00      	add	r7, sp, #0
 8003d40:	6078      	str	r0, [r7, #4]
 8003d42:	6039      	str	r1, [r7, #0]
  WRITE_REG(GPIOx->BRR, PinMask);
 8003d44:	687b      	ldr	r3, [r7, #4]
 8003d46:	683a      	ldr	r2, [r7, #0]
 8003d48:	629a      	str	r2, [r3, #40]	; 0x28
}
 8003d4a:	bf00      	nop
 8003d4c:	370c      	adds	r7, #12
 8003d4e:	46bd      	mov	sp, r7
 8003d50:	f85d 7b04 	ldr.w	r7, [sp], #4
 8003d54:	4770      	bx	lr
	...

08003d58 <MPU925x_Init>:
/*******************************************************************************
* PUBLIC FUNCTIONS
*******************************************************************************/

uint8_t MPU925x_Init(SPI_TypeDef *spix, GPIO_TypeDef *cs_gpiox, uint16_t cs_pinx)
{
 8003d58:	b580      	push	{r7, lr}
 8003d5a:	b086      	sub	sp, #24
 8003d5c:	af00      	add	r7, sp, #0
 8003d5e:	60f8      	str	r0, [r7, #12]
 8003d60:	60b9      	str	r1, [r7, #8]
 8003d62:	4613      	mov	r3, r2
 8003d64:	80fb      	strh	r3, [r7, #6]
	uint8_t whoAmI;

	mpu925x.spiHandle = spix;
 8003d66:	4a0e      	ldr	r2, [pc, #56]	; (8003da0 <MPU925x_Init+0x48>)
 8003d68:	68fb      	ldr	r3, [r7, #12]
 8003d6a:	6013      	str	r3, [r2, #0]
	mpu925x.CS_GPIOx = cs_gpiox;
 8003d6c:	4a0c      	ldr	r2, [pc, #48]	; (8003da0 <MPU925x_Init+0x48>)
 8003d6e:	68bb      	ldr	r3, [r7, #8]
 8003d70:	6053      	str	r3, [r2, #4]
	mpu925x.CS_Pin = cs_pinx;
 8003d72:	4a0b      	ldr	r2, [pc, #44]	; (8003da0 <MPU925x_Init+0x48>)
 8003d74:	88fb      	ldrh	r3, [r7, #6]
 8003d76:	8113      	strh	r3, [r2, #8]

	MPU925x_ReadRegs(MPU925X_REG_WHO_AM_I, &whoAmI, 1);
 8003d78:	f107 0317 	add.w	r3, r7, #23
 8003d7c:	2201      	movs	r2, #1
 8003d7e:	4619      	mov	r1, r3
 8003d80:	2075      	movs	r0, #117	; 0x75
 8003d82:	f000 fa1f 	bl	80041c4 <MPU925x_ReadRegs>

	if((whoAmI != MPU9250_DEVICE_ID) && (whoAmI != MPU9255_DEVICE_ID))
 8003d86:	7dfb      	ldrb	r3, [r7, #23]
 8003d88:	2b71      	cmp	r3, #113	; 0x71
 8003d8a:	d004      	beq.n	8003d96 <MPU925x_Init+0x3e>
 8003d8c:	7dfb      	ldrb	r3, [r7, #23]
 8003d8e:	2b73      	cmp	r3, #115	; 0x73
 8003d90:	d001      	beq.n	8003d96 <MPU925x_Init+0x3e>
		return 1;
 8003d92:	2301      	movs	r3, #1
 8003d94:	e000      	b.n	8003d98 <MPU925x_Init+0x40>

	return 0;
 8003d96:	2300      	movs	r3, #0
}
 8003d98:	4618      	mov	r0, r3
 8003d9a:	3718      	adds	r7, #24
 8003d9c:	46bd      	mov	sp, r7
 8003d9e:	bd80      	pop	{r7, pc}
 8003da0:	20000594 	.word	0x20000594

08003da4 <MPU925x_SetAccelSensitivity>:

void MPU925x_SetAccelSensitivity(enum MPU925x_AccelSensitivity_e option)
{
 8003da4:	b580      	push	{r7, lr}
 8003da6:	b084      	sub	sp, #16
 8003da8:	af00      	add	r7, sp, #0
 8003daa:	4603      	mov	r3, r0
 8003dac:	71fb      	strb	r3, [r7, #7]
	uint8_t data;

	switch (option)
 8003dae:	79fb      	ldrb	r3, [r7, #7]
 8003db0:	2b03      	cmp	r3, #3
 8003db2:	d86d      	bhi.n	8003e90 <MPU925x_SetAccelSensitivity+0xec>
 8003db4:	a201      	add	r2, pc, #4	; (adr r2, 8003dbc <MPU925x_SetAccelSensitivity+0x18>)
 8003db6:	f852 f023 	ldr.w	pc, [r2, r3, lsl #2]
 8003dba:	bf00      	nop
 8003dbc:	08003dcd 	.word	0x08003dcd
 8003dc0:	08003df9 	.word	0x08003df9
 8003dc4:	08003e2f 	.word	0x08003e2f
 8003dc8:	08003e65 	.word	0x08003e65
	{
	case mpu925x_accelSensitivity_2g:
		MPU925x_ReadRegs(MPU925X_REG_ACCEL_CONFIG, &data, 1);
 8003dcc:	f107 030f 	add.w	r3, r7, #15
 8003dd0:	2201      	movs	r2, #1
 8003dd2:	4619      	mov	r1, r3
 8003dd4:	201c      	movs	r0, #28
 8003dd6:	f000 f9f5 	bl	80041c4 <MPU925x_ReadRegs>
		data = data & ~0x18;
 8003dda:	7bfb      	ldrb	r3, [r7, #15]
 8003ddc:	f023 0318 	bic.w	r3, r3, #24
 8003de0:	b2db      	uxtb	r3, r3
 8003de2:	73fb      	strb	r3, [r7, #15]
		MPU925x_WriteReg(MPU925X_REG_ACCEL_CONFIG, data);
 8003de4:	7bfb      	ldrb	r3, [r7, #15]
 8003de6:	4619      	mov	r1, r3
 8003de8:	201c      	movs	r0, #28
 8003dea:	f000 f995 	bl	8004118 <MPU925x_WriteReg>
		accelSensitivity = MPU925X_ACCEL_SENSITIVITY_2G;
 8003dee:	4b2a      	ldr	r3, [pc, #168]	; (8003e98 <MPU925x_SetAccelSensitivity+0xf4>)
 8003df0:	f04f 428d 	mov.w	r2, #1182793728	; 0x46800000
 8003df4:	601a      	str	r2, [r3, #0]
		break;
 8003df6:	e04b      	b.n	8003e90 <MPU925x_SetAccelSensitivity+0xec>

	case mpu925x_accelSensitivity_4g:
		MPU925x_ReadRegs(MPU925X_REG_ACCEL_CONFIG, &data, 1);
 8003df8:	f107 030f 	add.w	r3, r7, #15
 8003dfc:	2201      	movs	r2, #1
 8003dfe:	4619      	mov	r1, r3
 8003e00:	201c      	movs	r0, #28
 8003e02:	f000 f9df 	bl	80041c4 <MPU925x_ReadRegs>
		data = (data & ~0x18) | 0x08;
 8003e06:	7bfb      	ldrb	r3, [r7, #15]
 8003e08:	b25b      	sxtb	r3, r3
 8003e0a:	f023 0318 	bic.w	r3, r3, #24
 8003e0e:	b25b      	sxtb	r3, r3
 8003e10:	f043 0308 	orr.w	r3, r3, #8
 8003e14:	b25b      	sxtb	r3, r3
 8003e16:	b2db      	uxtb	r3, r3
 8003e18:	73fb      	strb	r3, [r7, #15]
		MPU925x_WriteReg(MPU925X_REG_ACCEL_CONFIG, data);
 8003e1a:	7bfb      	ldrb	r3, [r7, #15]
 8003e1c:	4619      	mov	r1, r3
 8003e1e:	201c      	movs	r0, #28
 8003e20:	f000 f97a 	bl	8004118 <MPU925x_WriteReg>
		accelSensitivity = MPU925X_ACCEL_SENSITIVITY_4G;
 8003e24:	4b1c      	ldr	r3, [pc, #112]	; (8003e98 <MPU925x_SetAccelSensitivity+0xf4>)
 8003e26:	f04f 428c 	mov.w	r2, #1174405120	; 0x46000000
 8003e2a:	601a      	str	r2, [r3, #0]
		break;
 8003e2c:	e030      	b.n	8003e90 <MPU925x_SetAccelSensitivity+0xec>

	case mpu925x_accelSensitivity_8g:
		MPU925x_ReadRegs(MPU925X_REG_ACCEL_CONFIG, &data, 1);
 8003e2e:	f107 030f 	add.w	r3, r7, #15
 8003e32:	2201      	movs	r2, #1
 8003e34:	4619      	mov	r1, r3
 8003e36:	201c      	movs	r0, #28
 8003e38:	f000 f9c4 	bl	80041c4 <MPU925x_ReadRegs>
		data = (data & ~0x18) | 0x10;
 8003e3c:	7bfb      	ldrb	r3, [r7, #15]
 8003e3e:	b25b      	sxtb	r3, r3
 8003e40:	f023 0318 	bic.w	r3, r3, #24
 8003e44:	b25b      	sxtb	r3, r3
 8003e46:	f043 0310 	orr.w	r3, r3, #16
 8003e4a:	b25b      	sxtb	r3, r3
 8003e4c:	b2db      	uxtb	r3, r3
 8003e4e:	73fb      	strb	r3, [r7, #15]
		MPU925x_WriteReg(MPU925X_REG_ACCEL_CONFIG, data);
 8003e50:	7bfb      	ldrb	r3, [r7, #15]
 8003e52:	4619      	mov	r1, r3
 8003e54:	201c      	movs	r0, #28
 8003e56:	f000 f95f 	bl	8004118 <MPU925x_WriteReg>
		accelSensitivity = MPU925X_ACCEL_SENSITIVITY_8G;
 8003e5a:	4b0f      	ldr	r3, [pc, #60]	; (8003e98 <MPU925x_SetAccelSensitivity+0xf4>)
 8003e5c:	f04f 428b 	mov.w	r2, #1166016512	; 0x45800000
 8003e60:	601a      	str	r2, [r3, #0]
		break;
 8003e62:	e015      	b.n	8003e90 <MPU925x_SetAccelSensitivity+0xec>

	case mpu925x_accelSensitivity_16g:
		MPU925x_ReadRegs(MPU925X_REG_ACCEL_CONFIG, &data, 1);
 8003e64:	f107 030f 	add.w	r3, r7, #15
 8003e68:	2201      	movs	r2, #1
 8003e6a:	4619      	mov	r1, r3
 8003e6c:	201c      	movs	r0, #28
 8003e6e:	f000 f9a9 	bl	80041c4 <MPU925x_ReadRegs>
		data = (data & ~0x18) | 0x18;
 8003e72:	7bfb      	ldrb	r3, [r7, #15]
 8003e74:	f043 0318 	orr.w	r3, r3, #24
 8003e78:	b2db      	uxtb	r3, r3
 8003e7a:	73fb      	strb	r3, [r7, #15]
		MPU925x_WriteReg(MPU925X_REG_ACCEL_CONFIG, data);
 8003e7c:	7bfb      	ldrb	r3, [r7, #15]
 8003e7e:	4619      	mov	r1, r3
 8003e80:	201c      	movs	r0, #28
 8003e82:	f000 f949 	bl	8004118 <MPU925x_WriteReg>
		accelSensitivity = MPU925X_ACCEL_SENSITIVITY_16G;
 8003e86:	4b04      	ldr	r3, [pc, #16]	; (8003e98 <MPU925x_SetAccelSensitivity+0xf4>)
 8003e88:	f04f 428a 	mov.w	r2, #1157627904	; 0x45000000
 8003e8c:	601a      	str	r2, [r3, #0]
		break;
 8003e8e:	bf00      	nop
	}
}
 8003e90:	bf00      	nop
 8003e92:	3710      	adds	r7, #16
 8003e94:	46bd      	mov	sp, r7
 8003e96:	bd80      	pop	{r7, pc}
 8003e98:	20000014 	.word	0x20000014

08003e9c <MPU925x_SetGyroSensitivity>:

void MPU925x_SetGyroSensitivity(enum MPU925x_GyroSensitivity_e option)
{
 8003e9c:	b580      	push	{r7, lr}
 8003e9e:	b084      	sub	sp, #16
 8003ea0:	af00      	add	r7, sp, #0
 8003ea2:	4603      	mov	r3, r0
 8003ea4:	71fb      	strb	r3, [r7, #7]
	uint8_t data;

	switch (option)
 8003ea6:	79fb      	ldrb	r3, [r7, #7]
 8003ea8:	2b03      	cmp	r3, #3
 8003eaa:	d86d      	bhi.n	8003f88 <MPU925x_SetGyroSensitivity+0xec>
 8003eac:	a201      	add	r2, pc, #4	; (adr r2, 8003eb4 <MPU925x_SetGyroSensitivity+0x18>)
 8003eae:	f852 f023 	ldr.w	pc, [r2, r3, lsl #2]
 8003eb2:	bf00      	nop
 8003eb4:	08003ec5 	.word	0x08003ec5
 8003eb8:	08003ef1 	.word	0x08003ef1
 8003ebc:	08003f27 	.word	0x08003f27
 8003ec0:	08003f5d 	.word	0x08003f5d
	{
	case mpu925x_gyroSensitivity_250dps:
		MPU925x_ReadRegs(MPU925X_REG_GYRO_CONFIG, &data, 1);
 8003ec4:	f107 030f 	add.w	r3, r7, #15
 8003ec8:	2201      	movs	r2, #1
 8003eca:	4619      	mov	r1, r3
 8003ecc:	201b      	movs	r0, #27
 8003ece:	f000 f979 	bl	80041c4 <MPU925x_ReadRegs>
		data = data & ~0x18;
 8003ed2:	7bfb      	ldrb	r3, [r7, #15]
 8003ed4:	f023 0318 	bic.w	r3, r3, #24
 8003ed8:	b2db      	uxtb	r3, r3
 8003eda:	73fb      	strb	r3, [r7, #15]
		MPU925x_WriteReg(MPU925X_REG_GYRO_CONFIG, data);
 8003edc:	7bfb      	ldrb	r3, [r7, #15]
 8003ede:	4619      	mov	r1, r3
 8003ee0:	201b      	movs	r0, #27
 8003ee2:	f000 f919 	bl	8004118 <MPU925x_WriteReg>
		gyroSensitivity = MPU925X_GYRO_SENSITIVITY_250DPS;
 8003ee6:	4b2a      	ldr	r3, [pc, #168]	; (8003f90 <MPU925x_SetGyroSensitivity+0xf4>)
 8003ee8:	f04f 428d 	mov.w	r2, #1182793728	; 0x46800000
 8003eec:	601a      	str	r2, [r3, #0]
		break;
 8003eee:	e04b      	b.n	8003f88 <MPU925x_SetGyroSensitivity+0xec>

	case mpu925x_gyroSensitivity_500dps:
		MPU925x_ReadRegs(MPU925X_REG_GYRO_CONFIG, &data, 1);
 8003ef0:	f107 030f 	add.w	r3, r7, #15
 8003ef4:	2201      	movs	r2, #1
 8003ef6:	4619      	mov	r1, r3
 8003ef8:	201b      	movs	r0, #27
 8003efa:	f000 f963 	bl	80041c4 <MPU925x_ReadRegs>
		data = (data & ~0x18) | 0x08;
 8003efe:	7bfb      	ldrb	r3, [r7, #15]
 8003f00:	b25b      	sxtb	r3, r3
 8003f02:	f023 0318 	bic.w	r3, r3, #24
 8003f06:	b25b      	sxtb	r3, r3
 8003f08:	f043 0308 	orr.w	r3, r3, #8
 8003f0c:	b25b      	sxtb	r3, r3
 8003f0e:	b2db      	uxtb	r3, r3
 8003f10:	73fb      	strb	r3, [r7, #15]
		MPU925x_WriteReg(MPU925X_REG_GYRO_CONFIG, data);
 8003f12:	7bfb      	ldrb	r3, [r7, #15]
 8003f14:	4619      	mov	r1, r3
 8003f16:	201b      	movs	r0, #27
 8003f18:	f000 f8fe 	bl	8004118 <MPU925x_WriteReg>
		gyroSensitivity = MPU925X_GYRO_SENSITIVITY_500DPS;
 8003f1c:	4b1c      	ldr	r3, [pc, #112]	; (8003f90 <MPU925x_SetGyroSensitivity+0xf4>)
 8003f1e:	f04f 428c 	mov.w	r2, #1174405120	; 0x46000000
 8003f22:	601a      	str	r2, [r3, #0]
		break;
 8003f24:	e030      	b.n	8003f88 <MPU925x_SetGyroSensitivity+0xec>

	case mpu925x_gyroSensitivity_1000dps:
		MPU925x_ReadRegs(MPU925X_REG_GYRO_CONFIG, &data, 1);
 8003f26:	f107 030f 	add.w	r3, r7, #15
 8003f2a:	2201      	movs	r2, #1
 8003f2c:	4619      	mov	r1, r3
 8003f2e:	201b      	movs	r0, #27
 8003f30:	f000 f948 	bl	80041c4 <MPU925x_ReadRegs>
		data = (data & ~0x18) | 0x10;
 8003f34:	7bfb      	ldrb	r3, [r7, #15]
 8003f36:	b25b      	sxtb	r3, r3
 8003f38:	f023 0318 	bic.w	r3, r3, #24
 8003f3c:	b25b      	sxtb	r3, r3
 8003f3e:	f043 0310 	orr.w	r3, r3, #16
 8003f42:	b25b      	sxtb	r3, r3
 8003f44:	b2db      	uxtb	r3, r3
 8003f46:	73fb      	strb	r3, [r7, #15]
		MPU925x_WriteReg(MPU925X_REG_GYRO_CONFIG, data);
 8003f48:	7bfb      	ldrb	r3, [r7, #15]
 8003f4a:	4619      	mov	r1, r3
 8003f4c:	201b      	movs	r0, #27
 8003f4e:	f000 f8e3 	bl	8004118 <MPU925x_WriteReg>
		gyroSensitivity = MPU925X_GYRO_SENSITIVITY_1000DPS;
 8003f52:	4b0f      	ldr	r3, [pc, #60]	; (8003f90 <MPU925x_SetGyroSensitivity+0xf4>)
 8003f54:	f04f 428b 	mov.w	r2, #1166016512	; 0x45800000
 8003f58:	601a      	str	r2, [r3, #0]
		break;
 8003f5a:	e015      	b.n	8003f88 <MPU925x_SetGyroSensitivity+0xec>

	case mpu925x_gyroSensitivity_2000dps:
		MPU925x_ReadRegs(MPU925X_REG_GYRO_CONFIG, &data, 1);
 8003f5c:	f107 030f 	add.w	r3, r7, #15
 8003f60:	2201      	movs	r2, #1
 8003f62:	4619      	mov	r1, r3
 8003f64:	201b      	movs	r0, #27
 8003f66:	f000 f92d 	bl	80041c4 <MPU925x_ReadRegs>
		data = (data & ~0x18) | 0x18;
 8003f6a:	7bfb      	ldrb	r3, [r7, #15]
 8003f6c:	f043 0318 	orr.w	r3, r3, #24
 8003f70:	b2db      	uxtb	r3, r3
 8003f72:	73fb      	strb	r3, [r7, #15]
		MPU925x_WriteReg(MPU925X_REG_GYRO_CONFIG, data);
 8003f74:	7bfb      	ldrb	r3, [r7, #15]
 8003f76:	4619      	mov	r1, r3
 8003f78:	201b      	movs	r0, #27
 8003f7a:	f000 f8cd 	bl	8004118 <MPU925x_WriteReg>
		gyroSensitivity = MPU925X_GYRO_SENSITIVITY_2000DPS;
 8003f7e:	4b04      	ldr	r3, [pc, #16]	; (8003f90 <MPU925x_SetGyroSensitivity+0xf4>)
 8003f80:	f04f 428a 	mov.w	r2, #1157627904	; 0x45000000
 8003f84:	601a      	str	r2, [r3, #0]
		break;
 8003f86:	bf00      	nop
	}
}
 8003f88:	bf00      	nop
 8003f8a:	3710      	adds	r7, #16
 8003f8c:	46bd      	mov	sp, r7
 8003f8e:	bd80      	pop	{r7, pc}
 8003f90:	20000018 	.word	0x20000018

08003f94 <MPU925x_ReadIMU>:
{
	MPU925x_WriteReg(MPU925X_REG_SMPLRT_DIV, divider);
}

struct MPU925x_IMUData_s MPU925x_ReadIMU(void)
{
 8003f94:	b5b0      	push	{r4, r5, r7, lr}
 8003f96:	b096      	sub	sp, #88	; 0x58
 8003f98:	af00      	add	r7, sp, #0
 8003f9a:	6078      	str	r0, [r7, #4]
	struct MPU925x_IMUData_s IMUData;
	uint8_t data[14];

	MPU925x_ReadRegs(MPU925X_REG_ACCEL_XOUT_H, data, 14);
 8003f9c:	f107 0308 	add.w	r3, r7, #8
 8003fa0:	220e      	movs	r2, #14
 8003fa2:	4619      	mov	r1, r3
 8003fa4:	203b      	movs	r0, #59	; 0x3b
 8003fa6:	f000 f90d 	bl	80041c4 <MPU925x_ReadRegs>

	int16_t ax = ((int16_t) data[0] << 8) | data[1];
 8003faa:	7a3b      	ldrb	r3, [r7, #8]
 8003fac:	021b      	lsls	r3, r3, #8
 8003fae:	b21a      	sxth	r2, r3
 8003fb0:	7a7b      	ldrb	r3, [r7, #9]
 8003fb2:	b21b      	sxth	r3, r3
 8003fb4:	4313      	orrs	r3, r2
 8003fb6:	f8a7 3056 	strh.w	r3, [r7, #86]	; 0x56
	int16_t ay = ((int16_t) data[2] << 8) | data[3];
 8003fba:	7abb      	ldrb	r3, [r7, #10]
 8003fbc:	021b      	lsls	r3, r3, #8
 8003fbe:	b21a      	sxth	r2, r3
 8003fc0:	7afb      	ldrb	r3, [r7, #11]
 8003fc2:	b21b      	sxth	r3, r3
 8003fc4:	4313      	orrs	r3, r2
 8003fc6:	f8a7 3054 	strh.w	r3, [r7, #84]	; 0x54
	int16_t az = ((int16_t) data[4] << 8) | data[5];
 8003fca:	7b3b      	ldrb	r3, [r7, #12]
 8003fcc:	021b      	lsls	r3, r3, #8
 8003fce:	b21a      	sxth	r2, r3
 8003fd0:	7b7b      	ldrb	r3, [r7, #13]
 8003fd2:	b21b      	sxth	r3, r3
 8003fd4:	4313      	orrs	r3, r2
 8003fd6:	f8a7 3052 	strh.w	r3, [r7, #82]	; 0x52
	int16_t gx = ((int16_t) data[8] << 8) | data[9];
 8003fda:	7c3b      	ldrb	r3, [r7, #16]
 8003fdc:	021b      	lsls	r3, r3, #8
 8003fde:	b21a      	sxth	r2, r3
 8003fe0:	7c7b      	ldrb	r3, [r7, #17]
 8003fe2:	b21b      	sxth	r3, r3
 8003fe4:	4313      	orrs	r3, r2
 8003fe6:	f8a7 3050 	strh.w	r3, [r7, #80]	; 0x50
	int16_t gy = ((int16_t) data[10] << 8) | data[11];
 8003fea:	7cbb      	ldrb	r3, [r7, #18]
 8003fec:	021b      	lsls	r3, r3, #8
 8003fee:	b21a      	sxth	r2, r3
 8003ff0:	7cfb      	ldrb	r3, [r7, #19]
 8003ff2:	b21b      	sxth	r3, r3
 8003ff4:	4313      	orrs	r3, r2
 8003ff6:	f8a7 304e 	strh.w	r3, [r7, #78]	; 0x4e
	int16_t gz = ((int16_t) data[12] << 8) | data[13];
 8003ffa:	7d3b      	ldrb	r3, [r7, #20]
 8003ffc:	021b      	lsls	r3, r3, #8
 8003ffe:	b21a      	sxth	r2, r3
 8004000:	7d7b      	ldrb	r3, [r7, #21]
 8004002:	b21b      	sxth	r3, r3
 8004004:	4313      	orrs	r3, r2
 8004006:	f8a7 304c 	strh.w	r3, [r7, #76]	; 0x4c

	IMUData.ax = ax / accelSensitivity;
 800400a:	f9b7 3056 	ldrsh.w	r3, [r7, #86]	; 0x56
 800400e:	ee07 3a90 	vmov	s15, r3
 8004012:	eeb8 7ae7 	vcvt.f32.s32	s14, s15
 8004016:	4b3e      	ldr	r3, [pc, #248]	; (8004110 <MPU925x_ReadIMU+0x17c>)
 8004018:	edd3 7a00 	vldr	s15, [r3]
 800401c:	eec7 6a27 	vdiv.f32	s13, s14, s15
 8004020:	ee16 0a90 	vmov	r0, s13
 8004024:	f7fc fa34 	bl	8000490 <__aeabi_f2d>
 8004028:	4602      	mov	r2, r0
 800402a:	460b      	mov	r3, r1
 800402c:	e9c7 2306 	strd	r2, r3, [r7, #24]
	IMUData.ay = ay / accelSensitivity;
 8004030:	f9b7 3054 	ldrsh.w	r3, [r7, #84]	; 0x54
 8004034:	ee07 3a90 	vmov	s15, r3
 8004038:	eeb8 7ae7 	vcvt.f32.s32	s14, s15
 800403c:	4b34      	ldr	r3, [pc, #208]	; (8004110 <MPU925x_ReadIMU+0x17c>)
 800403e:	edd3 7a00 	vldr	s15, [r3]
 8004042:	eec7 6a27 	vdiv.f32	s13, s14, s15
 8004046:	ee16 0a90 	vmov	r0, s13
 800404a:	f7fc fa21 	bl	8000490 <__aeabi_f2d>
 800404e:	4602      	mov	r2, r0
 8004050:	460b      	mov	r3, r1
 8004052:	e9c7 2308 	strd	r2, r3, [r7, #32]
	IMUData.az = az / accelSensitivity;
 8004056:	f9b7 3052 	ldrsh.w	r3, [r7, #82]	; 0x52
 800405a:	ee07 3a90 	vmov	s15, r3
 800405e:	eeb8 7ae7 	vcvt.f32.s32	s14, s15
 8004062:	4b2b      	ldr	r3, [pc, #172]	; (8004110 <MPU925x_ReadIMU+0x17c>)
 8004064:	edd3 7a00 	vldr	s15, [r3]
 8004068:	eec7 6a27 	vdiv.f32	s13, s14, s15
 800406c:	ee16 0a90 	vmov	r0, s13
 8004070:	f7fc fa0e 	bl	8000490 <__aeabi_f2d>
 8004074:	4602      	mov	r2, r0
 8004076:	460b      	mov	r3, r1
 8004078:	e9c7 230a 	strd	r2, r3, [r7, #40]	; 0x28
	IMUData.gx = gx / gyroSensitivity;
 800407c:	f9b7 3050 	ldrsh.w	r3, [r7, #80]	; 0x50
 8004080:	ee07 3a90 	vmov	s15, r3
 8004084:	eeb8 7ae7 	vcvt.f32.s32	s14, s15
 8004088:	4b22      	ldr	r3, [pc, #136]	; (8004114 <MPU925x_ReadIMU+0x180>)
 800408a:	edd3 7a00 	vldr	s15, [r3]
 800408e:	eec7 6a27 	vdiv.f32	s13, s14, s15
 8004092:	ee16 0a90 	vmov	r0, s13
 8004096:	f7fc f9fb 	bl	8000490 <__aeabi_f2d>
 800409a:	4602      	mov	r2, r0
 800409c:	460b      	mov	r3, r1
 800409e:	e9c7 230c 	strd	r2, r3, [r7, #48]	; 0x30
	IMUData.gy = gy / gyroSensitivity;
 80040a2:	f9b7 304e 	ldrsh.w	r3, [r7, #78]	; 0x4e
 80040a6:	ee07 3a90 	vmov	s15, r3
 80040aa:	eeb8 7ae7 	vcvt.f32.s32	s14, s15
 80040ae:	4b19      	ldr	r3, [pc, #100]	; (8004114 <MPU925x_ReadIMU+0x180>)
 80040b0:	edd3 7a00 	vldr	s15, [r3]
 80040b4:	eec7 6a27 	vdiv.f32	s13, s14, s15
 80040b8:	ee16 0a90 	vmov	r0, s13
 80040bc:	f7fc f9e8 	bl	8000490 <__aeabi_f2d>
 80040c0:	4602      	mov	r2, r0
 80040c2:	460b      	mov	r3, r1
 80040c4:	e9c7 230e 	strd	r2, r3, [r7, #56]	; 0x38
	IMUData.gz = gz / gyroSensitivity;
 80040c8:	f9b7 304c 	ldrsh.w	r3, [r7, #76]	; 0x4c
 80040cc:	ee07 3a90 	vmov	s15, r3
 80040d0:	eeb8 7ae7 	vcvt.f32.s32	s14, s15
 80040d4:	4b0f      	ldr	r3, [pc, #60]	; (8004114 <MPU925x_ReadIMU+0x180>)
 80040d6:	edd3 7a00 	vldr	s15, [r3]
 80040da:	eec7 6a27 	vdiv.f32	s13, s14, s15
 80040de:	ee16 0a90 	vmov	r0, s13
 80040e2:	f7fc f9d5 	bl	8000490 <__aeabi_f2d>
 80040e6:	4602      	mov	r2, r0
 80040e8:	460b      	mov	r3, r1
 80040ea:	e9c7 2310 	strd	r2, r3, [r7, #64]	; 0x40

	return IMUData;
 80040ee:	687b      	ldr	r3, [r7, #4]
 80040f0:	461d      	mov	r5, r3
 80040f2:	f107 0418 	add.w	r4, r7, #24
 80040f6:	cc0f      	ldmia	r4!, {r0, r1, r2, r3}
 80040f8:	c50f      	stmia	r5!, {r0, r1, r2, r3}
 80040fa:	cc0f      	ldmia	r4!, {r0, r1, r2, r3}
 80040fc:	c50f      	stmia	r5!, {r0, r1, r2, r3}
 80040fe:	e894 000f 	ldmia.w	r4, {r0, r1, r2, r3}
 8004102:	e885 000f 	stmia.w	r5, {r0, r1, r2, r3}
}
 8004106:	6878      	ldr	r0, [r7, #4]
 8004108:	3758      	adds	r7, #88	; 0x58
 800410a:	46bd      	mov	sp, r7
 800410c:	bdb0      	pop	{r4, r5, r7, pc}
 800410e:	bf00      	nop
 8004110:	20000014 	.word	0x20000014
 8004114:	20000018 	.word	0x20000018

08004118 <MPU925x_WriteReg>:

void MPU925x_WriteReg(uint8_t adress, uint8_t data)
{
 8004118:	b580      	push	{r7, lr}
 800411a:	b082      	sub	sp, #8
 800411c:	af00      	add	r7, sp, #0
 800411e:	4603      	mov	r3, r0
 8004120:	460a      	mov	r2, r1
 8004122:	71fb      	strb	r3, [r7, #7]
 8004124:	4613      	mov	r3, r2
 8004126:	71bb      	strb	r3, [r7, #6]
	LL_GPIO_ResetOutputPin(mpu925x.CS_GPIOx, mpu925x.CS_Pin);
 8004128:	4b25      	ldr	r3, [pc, #148]	; (80041c0 <MPU925x_WriteReg+0xa8>)
 800412a:	685b      	ldr	r3, [r3, #4]
 800412c:	4a24      	ldr	r2, [pc, #144]	; (80041c0 <MPU925x_WriteReg+0xa8>)
 800412e:	8912      	ldrh	r2, [r2, #8]
 8004130:	4611      	mov	r1, r2
 8004132:	4618      	mov	r0, r3
 8004134:	f7ff fe01 	bl	8003d3a <LL_GPIO_ResetOutputPin>

	while (!(mpu925x.spiHandle->SR & SPI_SR_TXE));
 8004138:	bf00      	nop
 800413a:	4b21      	ldr	r3, [pc, #132]	; (80041c0 <MPU925x_WriteReg+0xa8>)
 800413c:	681b      	ldr	r3, [r3, #0]
 800413e:	689b      	ldr	r3, [r3, #8]
 8004140:	f003 0302 	and.w	r3, r3, #2
 8004144:	2b00      	cmp	r3, #0
 8004146:	d0f8      	beq.n	800413a <MPU925x_WriteReg+0x22>
	LL_SPI_TransmitData8(mpu925x.spiHandle, adress);
 8004148:	4b1d      	ldr	r3, [pc, #116]	; (80041c0 <MPU925x_WriteReg+0xa8>)
 800414a:	681b      	ldr	r3, [r3, #0]
 800414c:	79fa      	ldrb	r2, [r7, #7]
 800414e:	4611      	mov	r1, r2
 8004150:	4618      	mov	r0, r3
 8004152:	f7ff fdd2 	bl	8003cfa <LL_SPI_TransmitData8>
	while (!(mpu925x.spiHandle->SR & SPI_SR_RXNE));
 8004156:	bf00      	nop
 8004158:	4b19      	ldr	r3, [pc, #100]	; (80041c0 <MPU925x_WriteReg+0xa8>)
 800415a:	681b      	ldr	r3, [r3, #0]
 800415c:	689b      	ldr	r3, [r3, #8]
 800415e:	f003 0301 	and.w	r3, r3, #1
 8004162:	2b00      	cmp	r3, #0
 8004164:	d0f8      	beq.n	8004158 <MPU925x_WriteReg+0x40>
	LL_SPI_ReceiveData8(mpu925x.spiHandle);						// Read out bogus data
 8004166:	4b16      	ldr	r3, [pc, #88]	; (80041c0 <MPU925x_WriteReg+0xa8>)
 8004168:	681b      	ldr	r3, [r3, #0]
 800416a:	4618      	mov	r0, r3
 800416c:	f7ff fdb7 	bl	8003cde <LL_SPI_ReceiveData8>

	while (!(mpu925x.spiHandle->SR & SPI_SR_TXE));
 8004170:	bf00      	nop
 8004172:	4b13      	ldr	r3, [pc, #76]	; (80041c0 <MPU925x_WriteReg+0xa8>)
 8004174:	681b      	ldr	r3, [r3, #0]
 8004176:	689b      	ldr	r3, [r3, #8]
 8004178:	f003 0302 	and.w	r3, r3, #2
 800417c:	2b00      	cmp	r3, #0
 800417e:	d0f8      	beq.n	8004172 <MPU925x_WriteReg+0x5a>
	LL_SPI_TransmitData8(mpu925x.spiHandle, data);
 8004180:	4b0f      	ldr	r3, [pc, #60]	; (80041c0 <MPU925x_WriteReg+0xa8>)
 8004182:	681b      	ldr	r3, [r3, #0]
 8004184:	79ba      	ldrb	r2, [r7, #6]
 8004186:	4611      	mov	r1, r2
 8004188:	4618      	mov	r0, r3
 800418a:	f7ff fdb6 	bl	8003cfa <LL_SPI_TransmitData8>
	while (!(mpu925x.spiHandle->SR & SPI_SR_RXNE));
 800418e:	bf00      	nop
 8004190:	4b0b      	ldr	r3, [pc, #44]	; (80041c0 <MPU925x_WriteReg+0xa8>)
 8004192:	681b      	ldr	r3, [r3, #0]
 8004194:	689b      	ldr	r3, [r3, #8]
 8004196:	f003 0301 	and.w	r3, r3, #1
 800419a:	2b00      	cmp	r3, #0
 800419c:	d0f8      	beq.n	8004190 <MPU925x_WriteReg+0x78>
	LL_SPI_ReceiveData8(mpu925x.spiHandle);						// Read out bogus data
 800419e:	4b08      	ldr	r3, [pc, #32]	; (80041c0 <MPU925x_WriteReg+0xa8>)
 80041a0:	681b      	ldr	r3, [r3, #0]
 80041a2:	4618      	mov	r0, r3
 80041a4:	f7ff fd9b 	bl	8003cde <LL_SPI_ReceiveData8>

	LL_GPIO_SetOutputPin(mpu925x.CS_GPIOx, mpu925x.CS_Pin);
 80041a8:	4b05      	ldr	r3, [pc, #20]	; (80041c0 <MPU925x_WriteReg+0xa8>)
 80041aa:	685b      	ldr	r3, [r3, #4]
 80041ac:	4a04      	ldr	r2, [pc, #16]	; (80041c0 <MPU925x_WriteReg+0xa8>)
 80041ae:	8912      	ldrh	r2, [r2, #8]
 80041b0:	4611      	mov	r1, r2
 80041b2:	4618      	mov	r0, r3
 80041b4:	f7ff fdb3 	bl	8003d1e <LL_GPIO_SetOutputPin>
}
 80041b8:	bf00      	nop
 80041ba:	3708      	adds	r7, #8
 80041bc:	46bd      	mov	sp, r7
 80041be:	bd80      	pop	{r7, pc}
 80041c0:	20000594 	.word	0x20000594

080041c4 <MPU925x_ReadRegs>:

void MPU925x_ReadRegs(uint8_t address, uint8_t *data, uint8_t bytes)
{
 80041c4:	b590      	push	{r4, r7, lr}
 80041c6:	b085      	sub	sp, #20
 80041c8:	af00      	add	r7, sp, #0
 80041ca:	4603      	mov	r3, r0
 80041cc:	6039      	str	r1, [r7, #0]
 80041ce:	71fb      	strb	r3, [r7, #7]
 80041d0:	4613      	mov	r3, r2
 80041d2:	71bb      	strb	r3, [r7, #6]
	LL_GPIO_ResetOutputPin(mpu925x.CS_GPIOx, mpu925x.CS_Pin);
 80041d4:	4b30      	ldr	r3, [pc, #192]	; (8004298 <MPU925x_ReadRegs+0xd4>)
 80041d6:	685b      	ldr	r3, [r3, #4]
 80041d8:	4a2f      	ldr	r2, [pc, #188]	; (8004298 <MPU925x_ReadRegs+0xd4>)
 80041da:	8912      	ldrh	r2, [r2, #8]
 80041dc:	4611      	mov	r1, r2
 80041de:	4618      	mov	r0, r3
 80041e0:	f7ff fdab 	bl	8003d3a <LL_GPIO_ResetOutputPin>

	while(!(LL_SPI_IsActiveFlag_TXE(mpu925x.spiHandle)));
 80041e4:	bf00      	nop
 80041e6:	4b2c      	ldr	r3, [pc, #176]	; (8004298 <MPU925x_ReadRegs+0xd4>)
 80041e8:	681b      	ldr	r3, [r3, #0]
 80041ea:	4618      	mov	r0, r3
 80041ec:	f7ff fd64 	bl	8003cb8 <LL_SPI_IsActiveFlag_TXE>
 80041f0:	4603      	mov	r3, r0
 80041f2:	2b00      	cmp	r3, #0
 80041f4:	d0f7      	beq.n	80041e6 <MPU925x_ReadRegs+0x22>
	LL_SPI_TransmitData8(mpu925x.spiHandle, (address | 0x80));
 80041f6:	4b28      	ldr	r3, [pc, #160]	; (8004298 <MPU925x_ReadRegs+0xd4>)
 80041f8:	681a      	ldr	r2, [r3, #0]
 80041fa:	79fb      	ldrb	r3, [r7, #7]
 80041fc:	f063 037f 	orn	r3, r3, #127	; 0x7f
 8004200:	b2db      	uxtb	r3, r3
 8004202:	4619      	mov	r1, r3
 8004204:	4610      	mov	r0, r2
 8004206:	f7ff fd78 	bl	8003cfa <LL_SPI_TransmitData8>
	while(!(LL_SPI_IsActiveFlag_RXNE(mpu925x.spiHandle)));
 800420a:	bf00      	nop
 800420c:	4b22      	ldr	r3, [pc, #136]	; (8004298 <MPU925x_ReadRegs+0xd4>)
 800420e:	681b      	ldr	r3, [r3, #0]
 8004210:	4618      	mov	r0, r3
 8004212:	f7ff fd3e 	bl	8003c92 <LL_SPI_IsActiveFlag_RXNE>
 8004216:	4603      	mov	r3, r0
 8004218:	2b00      	cmp	r3, #0
 800421a:	d0f7      	beq.n	800420c <MPU925x_ReadRegs+0x48>
	LL_SPI_ReceiveData8(mpu925x.spiHandle);							// Read out bogus data
 800421c:	4b1e      	ldr	r3, [pc, #120]	; (8004298 <MPU925x_ReadRegs+0xd4>)
 800421e:	681b      	ldr	r3, [r3, #0]
 8004220:	4618      	mov	r0, r3
 8004222:	f7ff fd5c 	bl	8003cde <LL_SPI_ReceiveData8>

	for(uint8_t i = 0; i < bytes; i++)
 8004226:	2300      	movs	r3, #0
 8004228:	73fb      	strb	r3, [r7, #15]
 800422a:	e024      	b.n	8004276 <MPU925x_ReadRegs+0xb2>
	{
		while(!(LL_SPI_IsActiveFlag_TXE(mpu925x.spiHandle)));
 800422c:	bf00      	nop
 800422e:	4b1a      	ldr	r3, [pc, #104]	; (8004298 <MPU925x_ReadRegs+0xd4>)
 8004230:	681b      	ldr	r3, [r3, #0]
 8004232:	4618      	mov	r0, r3
 8004234:	f7ff fd40 	bl	8003cb8 <LL_SPI_IsActiveFlag_TXE>
 8004238:	4603      	mov	r3, r0
 800423a:	2b00      	cmp	r3, #0
 800423c:	d0f7      	beq.n	800422e <MPU925x_ReadRegs+0x6a>
		LL_SPI_TransmitData8(mpu925x.spiHandle, 0x00);				// Send out 8 bits to read 8 more bits
 800423e:	4b16      	ldr	r3, [pc, #88]	; (8004298 <MPU925x_ReadRegs+0xd4>)
 8004240:	681b      	ldr	r3, [r3, #0]
 8004242:	2100      	movs	r1, #0
 8004244:	4618      	mov	r0, r3
 8004246:	f7ff fd58 	bl	8003cfa <LL_SPI_TransmitData8>
		while(!(LL_SPI_IsActiveFlag_RXNE(mpu925x.spiHandle)));
 800424a:	bf00      	nop
 800424c:	4b12      	ldr	r3, [pc, #72]	; (8004298 <MPU925x_ReadRegs+0xd4>)
 800424e:	681b      	ldr	r3, [r3, #0]
 8004250:	4618      	mov	r0, r3
 8004252:	f7ff fd1e 	bl	8003c92 <LL_SPI_IsActiveFlag_RXNE>
 8004256:	4603      	mov	r3, r0
 8004258:	2b00      	cmp	r3, #0
 800425a:	d0f7      	beq.n	800424c <MPU925x_ReadRegs+0x88>
		data[i] = LL_SPI_ReceiveData8(mpu925x.spiHandle);
 800425c:	4b0e      	ldr	r3, [pc, #56]	; (8004298 <MPU925x_ReadRegs+0xd4>)
 800425e:	6819      	ldr	r1, [r3, #0]
 8004260:	7bfb      	ldrb	r3, [r7, #15]
 8004262:	683a      	ldr	r2, [r7, #0]
 8004264:	18d4      	adds	r4, r2, r3
 8004266:	4608      	mov	r0, r1
 8004268:	f7ff fd39 	bl	8003cde <LL_SPI_ReceiveData8>
 800426c:	4603      	mov	r3, r0
 800426e:	7023      	strb	r3, [r4, #0]
	for(uint8_t i = 0; i < bytes; i++)
 8004270:	7bfb      	ldrb	r3, [r7, #15]
 8004272:	3301      	adds	r3, #1
 8004274:	73fb      	strb	r3, [r7, #15]
 8004276:	7bfa      	ldrb	r2, [r7, #15]
 8004278:	79bb      	ldrb	r3, [r7, #6]
 800427a:	429a      	cmp	r2, r3
 800427c:	d3d6      	bcc.n	800422c <MPU925x_ReadRegs+0x68>
	}

	LL_GPIO_SetOutputPin(mpu925x.CS_GPIOx, mpu925x.CS_Pin);
 800427e:	4b06      	ldr	r3, [pc, #24]	; (8004298 <MPU925x_ReadRegs+0xd4>)
 8004280:	685b      	ldr	r3, [r3, #4]
 8004282:	4a05      	ldr	r2, [pc, #20]	; (8004298 <MPU925x_ReadRegs+0xd4>)
 8004284:	8912      	ldrh	r2, [r2, #8]
 8004286:	4611      	mov	r1, r2
 8004288:	4618      	mov	r0, r3
 800428a:	f7ff fd48 	bl	8003d1e <LL_GPIO_SetOutputPin>
}
 800428e:	bf00      	nop
 8004290:	3714      	adds	r7, #20
 8004292:	46bd      	mov	sp, r7
 8004294:	bd90      	pop	{r4, r7, pc}
 8004296:	bf00      	nop
 8004298:	20000594 	.word	0x20000594

0800429c <LL_ADC_REG_SetSequencerLength>:
 800429c:	b480      	push	{r7}
 800429e:	b083      	sub	sp, #12
 80042a0:	af00      	add	r7, sp, #0
 80042a2:	6078      	str	r0, [r7, #4]
 80042a4:	6039      	str	r1, [r7, #0]
 80042a6:	687b      	ldr	r3, [r7, #4]
 80042a8:	6b1b      	ldr	r3, [r3, #48]	; 0x30
 80042aa:	f023 020f 	bic.w	r2, r3, #15
 80042ae:	683b      	ldr	r3, [r7, #0]
 80042b0:	431a      	orrs	r2, r3
 80042b2:	687b      	ldr	r3, [r7, #4]
 80042b4:	631a      	str	r2, [r3, #48]	; 0x30
 80042b6:	bf00      	nop
 80042b8:	370c      	adds	r7, #12
 80042ba:	46bd      	mov	sp, r7
 80042bc:	f85d 7b04 	ldr.w	r7, [sp], #4
 80042c0:	4770      	bx	lr

080042c2 <LL_ADC_IsEnabled>:
 80042c2:	b480      	push	{r7}
 80042c4:	b083      	sub	sp, #12
 80042c6:	af00      	add	r7, sp, #0
 80042c8:	6078      	str	r0, [r7, #4]
 80042ca:	687b      	ldr	r3, [r7, #4]
 80042cc:	689b      	ldr	r3, [r3, #8]
 80042ce:	f003 0301 	and.w	r3, r3, #1
 80042d2:	2b01      	cmp	r3, #1
 80042d4:	d101      	bne.n	80042da <LL_ADC_IsEnabled+0x18>
 80042d6:	2301      	movs	r3, #1
 80042d8:	e000      	b.n	80042dc <LL_ADC_IsEnabled+0x1a>
 80042da:	2300      	movs	r3, #0
 80042dc:	4618      	mov	r0, r3
 80042de:	370c      	adds	r7, #12
 80042e0:	46bd      	mov	sp, r7
 80042e2:	f85d 7b04 	ldr.w	r7, [sp], #4
 80042e6:	4770      	bx	lr

080042e8 <LL_ADC_CommonInit>:
 80042e8:	b590      	push	{r4, r7, lr}
 80042ea:	b085      	sub	sp, #20
 80042ec:	af00      	add	r7, sp, #0
 80042ee:	6078      	str	r0, [r7, #4]
 80042f0:	6039      	str	r1, [r7, #0]
 80042f2:	2300      	movs	r3, #0
 80042f4:	73fb      	strb	r3, [r7, #15]
 80042f6:	481c      	ldr	r0, [pc, #112]	; (8004368 <LL_ADC_CommonInit+0x80>)
 80042f8:	f7ff ffe3 	bl	80042c2 <LL_ADC_IsEnabled>
 80042fc:	4604      	mov	r4, r0
 80042fe:	481b      	ldr	r0, [pc, #108]	; (800436c <LL_ADC_CommonInit+0x84>)
 8004300:	f7ff ffdf 	bl	80042c2 <LL_ADC_IsEnabled>
 8004304:	4603      	mov	r3, r0
 8004306:	431c      	orrs	r4, r3
 8004308:	4819      	ldr	r0, [pc, #100]	; (8004370 <LL_ADC_CommonInit+0x88>)
 800430a:	f7ff ffda 	bl	80042c2 <LL_ADC_IsEnabled>
 800430e:	4603      	mov	r3, r0
 8004310:	4323      	orrs	r3, r4
 8004312:	2b00      	cmp	r3, #0
 8004314:	d120      	bne.n	8004358 <LL_ADC_CommonInit+0x70>
 8004316:	683b      	ldr	r3, [r7, #0]
 8004318:	685b      	ldr	r3, [r3, #4]
 800431a:	2b00      	cmp	r3, #0
 800431c:	d012      	beq.n	8004344 <LL_ADC_CommonInit+0x5c>
 800431e:	687b      	ldr	r3, [r7, #4]
 8004320:	689a      	ldr	r2, [r3, #8]
 8004322:	4b14      	ldr	r3, [pc, #80]	; (8004374 <LL_ADC_CommonInit+0x8c>)
 8004324:	4013      	ands	r3, r2
 8004326:	683a      	ldr	r2, [r7, #0]
 8004328:	6811      	ldr	r1, [r2, #0]
 800432a:	683a      	ldr	r2, [r7, #0]
 800432c:	6852      	ldr	r2, [r2, #4]
 800432e:	4311      	orrs	r1, r2
 8004330:	683a      	ldr	r2, [r7, #0]
 8004332:	6892      	ldr	r2, [r2, #8]
 8004334:	4311      	orrs	r1, r2
 8004336:	683a      	ldr	r2, [r7, #0]
 8004338:	68d2      	ldr	r2, [r2, #12]
 800433a:	430a      	orrs	r2, r1
 800433c:	431a      	orrs	r2, r3
 800433e:	687b      	ldr	r3, [r7, #4]
 8004340:	609a      	str	r2, [r3, #8]
 8004342:	e00b      	b.n	800435c <LL_ADC_CommonInit+0x74>
 8004344:	687b      	ldr	r3, [r7, #4]
 8004346:	689a      	ldr	r2, [r3, #8]
 8004348:	4b0a      	ldr	r3, [pc, #40]	; (8004374 <LL_ADC_CommonInit+0x8c>)
 800434a:	4013      	ands	r3, r2
 800434c:	683a      	ldr	r2, [r7, #0]
 800434e:	6812      	ldr	r2, [r2, #0]
 8004350:	431a      	orrs	r2, r3
 8004352:	687b      	ldr	r3, [r7, #4]
 8004354:	609a      	str	r2, [r3, #8]
 8004356:	e001      	b.n	800435c <LL_ADC_CommonInit+0x74>
 8004358:	2301      	movs	r3, #1
 800435a:	73fb      	strb	r3, [r7, #15]
 800435c:	7bfb      	ldrb	r3, [r7, #15]
 800435e:	4618      	mov	r0, r3
 8004360:	3714      	adds	r7, #20
 8004362:	46bd      	mov	sp, r7
 8004364:	bd90      	pop	{r4, r7, pc}
 8004366:	bf00      	nop
 8004368:	50040000 	.word	0x50040000
 800436c:	50040100 	.word	0x50040100
 8004370:	50040200 	.word	0x50040200
 8004374:	ffc030e0 	.word	0xffc030e0

08004378 <LL_ADC_Init>:
 8004378:	b580      	push	{r7, lr}
 800437a:	b084      	sub	sp, #16
 800437c:	af00      	add	r7, sp, #0
 800437e:	6078      	str	r0, [r7, #4]
 8004380:	6039      	str	r1, [r7, #0]
 8004382:	2300      	movs	r3, #0
 8004384:	73fb      	strb	r3, [r7, #15]
 8004386:	6878      	ldr	r0, [r7, #4]
 8004388:	f7ff ff9b 	bl	80042c2 <LL_ADC_IsEnabled>
 800438c:	4603      	mov	r3, r0
 800438e:	2b00      	cmp	r3, #0
 8004390:	d111      	bne.n	80043b6 <LL_ADC_Init+0x3e>
 8004392:	687b      	ldr	r3, [r7, #4]
 8004394:	68db      	ldr	r3, [r3, #12]
 8004396:	f423 4380 	bic.w	r3, r3, #16384	; 0x4000
 800439a:	f023 0338 	bic.w	r3, r3, #56	; 0x38
 800439e:	683a      	ldr	r2, [r7, #0]
 80043a0:	6811      	ldr	r1, [r2, #0]
 80043a2:	683a      	ldr	r2, [r7, #0]
 80043a4:	6852      	ldr	r2, [r2, #4]
 80043a6:	4311      	orrs	r1, r2
 80043a8:	683a      	ldr	r2, [r7, #0]
 80043aa:	6892      	ldr	r2, [r2, #8]
 80043ac:	430a      	orrs	r2, r1
 80043ae:	431a      	orrs	r2, r3
 80043b0:	687b      	ldr	r3, [r7, #4]
 80043b2:	60da      	str	r2, [r3, #12]
 80043b4:	e001      	b.n	80043ba <LL_ADC_Init+0x42>
 80043b6:	2301      	movs	r3, #1
 80043b8:	73fb      	strb	r3, [r7, #15]
 80043ba:	7bfb      	ldrb	r3, [r7, #15]
 80043bc:	4618      	mov	r0, r3
 80043be:	3710      	adds	r7, #16
 80043c0:	46bd      	mov	sp, r7
 80043c2:	bd80      	pop	{r7, pc}

080043c4 <LL_ADC_REG_Init>:
 80043c4:	b580      	push	{r7, lr}
 80043c6:	b084      	sub	sp, #16
 80043c8:	af00      	add	r7, sp, #0
 80043ca:	6078      	str	r0, [r7, #4]
 80043cc:	6039      	str	r1, [r7, #0]
 80043ce:	2300      	movs	r3, #0
 80043d0:	73fb      	strb	r3, [r7, #15]
 80043d2:	6878      	ldr	r0, [r7, #4]
 80043d4:	f7ff ff75 	bl	80042c2 <LL_ADC_IsEnabled>
 80043d8:	4603      	mov	r3, r0
 80043da:	2b00      	cmp	r3, #0
 80043dc:	d132      	bne.n	8004444 <LL_ADC_REG_Init+0x80>
 80043de:	683b      	ldr	r3, [r7, #0]
 80043e0:	685b      	ldr	r3, [r3, #4]
 80043e2:	2b00      	cmp	r3, #0
 80043e4:	d015      	beq.n	8004412 <LL_ADC_REG_Init+0x4e>
 80043e6:	687b      	ldr	r3, [r7, #4]
 80043e8:	68da      	ldr	r2, [r3, #12]
 80043ea:	4b1a      	ldr	r3, [pc, #104]	; (8004454 <LL_ADC_REG_Init+0x90>)
 80043ec:	4013      	ands	r3, r2
 80043ee:	683a      	ldr	r2, [r7, #0]
 80043f0:	6811      	ldr	r1, [r2, #0]
 80043f2:	683a      	ldr	r2, [r7, #0]
 80043f4:	6892      	ldr	r2, [r2, #8]
 80043f6:	4311      	orrs	r1, r2
 80043f8:	683a      	ldr	r2, [r7, #0]
 80043fa:	68d2      	ldr	r2, [r2, #12]
 80043fc:	4311      	orrs	r1, r2
 80043fe:	683a      	ldr	r2, [r7, #0]
 8004400:	6912      	ldr	r2, [r2, #16]
 8004402:	4311      	orrs	r1, r2
 8004404:	683a      	ldr	r2, [r7, #0]
 8004406:	6952      	ldr	r2, [r2, #20]
 8004408:	430a      	orrs	r2, r1
 800440a:	431a      	orrs	r2, r3
 800440c:	687b      	ldr	r3, [r7, #4]
 800440e:	60da      	str	r2, [r3, #12]
 8004410:	e011      	b.n	8004436 <LL_ADC_REG_Init+0x72>
 8004412:	687b      	ldr	r3, [r7, #4]
 8004414:	68da      	ldr	r2, [r3, #12]
 8004416:	4b0f      	ldr	r3, [pc, #60]	; (8004454 <LL_ADC_REG_Init+0x90>)
 8004418:	4013      	ands	r3, r2
 800441a:	683a      	ldr	r2, [r7, #0]
 800441c:	6811      	ldr	r1, [r2, #0]
 800441e:	683a      	ldr	r2, [r7, #0]
 8004420:	68d2      	ldr	r2, [r2, #12]
 8004422:	4311      	orrs	r1, r2
 8004424:	683a      	ldr	r2, [r7, #0]
 8004426:	6912      	ldr	r2, [r2, #16]
 8004428:	4311      	orrs	r1, r2
 800442a:	683a      	ldr	r2, [r7, #0]
 800442c:	6952      	ldr	r2, [r2, #20]
 800442e:	430a      	orrs	r2, r1
 8004430:	431a      	orrs	r2, r3
 8004432:	687b      	ldr	r3, [r7, #4]
 8004434:	60da      	str	r2, [r3, #12]
 8004436:	683b      	ldr	r3, [r7, #0]
 8004438:	685b      	ldr	r3, [r3, #4]
 800443a:	4619      	mov	r1, r3
 800443c:	6878      	ldr	r0, [r7, #4]
 800443e:	f7ff ff2d 	bl	800429c <LL_ADC_REG_SetSequencerLength>
 8004442:	e001      	b.n	8004448 <LL_ADC_REG_Init+0x84>
 8004444:	2301      	movs	r3, #1
 8004446:	73fb      	strb	r3, [r7, #15]
 8004448:	7bfb      	ldrb	r3, [r7, #15]
 800444a:	4618      	mov	r0, r3
 800444c:	3710      	adds	r7, #16
 800444e:	46bd      	mov	sp, r7
 8004450:	bd80      	pop	{r7, pc}
 8004452:	bf00      	nop
 8004454:	fff0c03c 	.word	0xfff0c03c

08004458 <LL_EXTI_EnableIT_0_31>:
 8004458:	b480      	push	{r7}
 800445a:	b083      	sub	sp, #12
 800445c:	af00      	add	r7, sp, #0
 800445e:	6078      	str	r0, [r7, #4]
 8004460:	4b05      	ldr	r3, [pc, #20]	; (8004478 <LL_EXTI_EnableIT_0_31+0x20>)
 8004462:	681a      	ldr	r2, [r3, #0]
 8004464:	4904      	ldr	r1, [pc, #16]	; (8004478 <LL_EXTI_EnableIT_0_31+0x20>)
 8004466:	687b      	ldr	r3, [r7, #4]
 8004468:	4313      	orrs	r3, r2
 800446a:	600b      	str	r3, [r1, #0]
 800446c:	bf00      	nop
 800446e:	370c      	adds	r7, #12
 8004470:	46bd      	mov	sp, r7
 8004472:	f85d 7b04 	ldr.w	r7, [sp], #4
 8004476:	4770      	bx	lr
 8004478:	40010400 	.word	0x40010400

0800447c <LL_EXTI_EnableIT_32_63>:
 800447c:	b480      	push	{r7}
 800447e:	b083      	sub	sp, #12
 8004480:	af00      	add	r7, sp, #0
 8004482:	6078      	str	r0, [r7, #4]
 8004484:	4b05      	ldr	r3, [pc, #20]	; (800449c <LL_EXTI_EnableIT_32_63+0x20>)
 8004486:	6a1a      	ldr	r2, [r3, #32]
 8004488:	4904      	ldr	r1, [pc, #16]	; (800449c <LL_EXTI_EnableIT_32_63+0x20>)
 800448a:	687b      	ldr	r3, [r7, #4]
 800448c:	4313      	orrs	r3, r2
 800448e:	620b      	str	r3, [r1, #32]
 8004490:	bf00      	nop
 8004492:	370c      	adds	r7, #12
 8004494:	46bd      	mov	sp, r7
 8004496:	f85d 7b04 	ldr.w	r7, [sp], #4
 800449a:	4770      	bx	lr
 800449c:	40010400 	.word	0x40010400

080044a0 <LL_EXTI_DisableIT_0_31>:
 80044a0:	b480      	push	{r7}
 80044a2:	b083      	sub	sp, #12
 80044a4:	af00      	add	r7, sp, #0
 80044a6:	6078      	str	r0, [r7, #4]
 80044a8:	4b06      	ldr	r3, [pc, #24]	; (80044c4 <LL_EXTI_DisableIT_0_31+0x24>)
 80044aa:	681a      	ldr	r2, [r3, #0]
 80044ac:	687b      	ldr	r3, [r7, #4]
 80044ae:	43db      	mvns	r3, r3
 80044b0:	4904      	ldr	r1, [pc, #16]	; (80044c4 <LL_EXTI_DisableIT_0_31+0x24>)
 80044b2:	4013      	ands	r3, r2
 80044b4:	600b      	str	r3, [r1, #0]
 80044b6:	bf00      	nop
 80044b8:	370c      	adds	r7, #12
 80044ba:	46bd      	mov	sp, r7
 80044bc:	f85d 7b04 	ldr.w	r7, [sp], #4
 80044c0:	4770      	bx	lr
 80044c2:	bf00      	nop
 80044c4:	40010400 	.word	0x40010400

080044c8 <LL_EXTI_DisableIT_32_63>:
 80044c8:	b480      	push	{r7}
 80044ca:	b083      	sub	sp, #12
 80044cc:	af00      	add	r7, sp, #0
 80044ce:	6078      	str	r0, [r7, #4]
 80044d0:	4b06      	ldr	r3, [pc, #24]	; (80044ec <LL_EXTI_DisableIT_32_63+0x24>)
 80044d2:	6a1a      	ldr	r2, [r3, #32]
 80044d4:	687b      	ldr	r3, [r7, #4]
 80044d6:	43db      	mvns	r3, r3
 80044d8:	4904      	ldr	r1, [pc, #16]	; (80044ec <LL_EXTI_DisableIT_32_63+0x24>)
 80044da:	4013      	ands	r3, r2
 80044dc:	620b      	str	r3, [r1, #32]
 80044de:	bf00      	nop
 80044e0:	370c      	adds	r7, #12
 80044e2:	46bd      	mov	sp, r7
 80044e4:	f85d 7b04 	ldr.w	r7, [sp], #4
 80044e8:	4770      	bx	lr
 80044ea:	bf00      	nop
 80044ec:	40010400 	.word	0x40010400

080044f0 <LL_EXTI_EnableEvent_0_31>:
 80044f0:	b480      	push	{r7}
 80044f2:	b083      	sub	sp, #12
 80044f4:	af00      	add	r7, sp, #0
 80044f6:	6078      	str	r0, [r7, #4]
 80044f8:	4b05      	ldr	r3, [pc, #20]	; (8004510 <LL_EXTI_EnableEvent_0_31+0x20>)
 80044fa:	685a      	ldr	r2, [r3, #4]
 80044fc:	4904      	ldr	r1, [pc, #16]	; (8004510 <LL_EXTI_EnableEvent_0_31+0x20>)
 80044fe:	687b      	ldr	r3, [r7, #4]
 8004500:	4313      	orrs	r3, r2
 8004502:	604b      	str	r3, [r1, #4]
 8004504:	bf00      	nop
 8004506:	370c      	adds	r7, #12
 8004508:	46bd      	mov	sp, r7
 800450a:	f85d 7b04 	ldr.w	r7, [sp], #4
 800450e:	4770      	bx	lr
 8004510:	40010400 	.word	0x40010400

08004514 <LL_EXTI_EnableEvent_32_63>:
 8004514:	b480      	push	{r7}
 8004516:	b083      	sub	sp, #12
 8004518:	af00      	add	r7, sp, #0
 800451a:	6078      	str	r0, [r7, #4]
 800451c:	4b05      	ldr	r3, [pc, #20]	; (8004534 <LL_EXTI_EnableEvent_32_63+0x20>)
 800451e:	6a5a      	ldr	r2, [r3, #36]	; 0x24
 8004520:	4904      	ldr	r1, [pc, #16]	; (8004534 <LL_EXTI_EnableEvent_32_63+0x20>)
 8004522:	687b      	ldr	r3, [r7, #4]
 8004524:	4313      	orrs	r3, r2
 8004526:	624b      	str	r3, [r1, #36]	; 0x24
 8004528:	bf00      	nop
 800452a:	370c      	adds	r7, #12
 800452c:	46bd      	mov	sp, r7
 800452e:	f85d 7b04 	ldr.w	r7, [sp], #4
 8004532:	4770      	bx	lr
 8004534:	40010400 	.word	0x40010400

08004538 <LL_EXTI_DisableEvent_0_31>:
 8004538:	b480      	push	{r7}
 800453a:	b083      	sub	sp, #12
 800453c:	af00      	add	r7, sp, #0
 800453e:	6078      	str	r0, [r7, #4]
 8004540:	4b06      	ldr	r3, [pc, #24]	; (800455c <LL_EXTI_DisableEvent_0_31+0x24>)
 8004542:	685a      	ldr	r2, [r3, #4]
 8004544:	687b      	ldr	r3, [r7, #4]
 8004546:	43db      	mvns	r3, r3
 8004548:	4904      	ldr	r1, [pc, #16]	; (800455c <LL_EXTI_DisableEvent_0_31+0x24>)
 800454a:	4013      	ands	r3, r2
 800454c:	604b      	str	r3, [r1, #4]
 800454e:	bf00      	nop
 8004550:	370c      	adds	r7, #12
 8004552:	46bd      	mov	sp, r7
 8004554:	f85d 7b04 	ldr.w	r7, [sp], #4
 8004558:	4770      	bx	lr
 800455a:	bf00      	nop
 800455c:	40010400 	.word	0x40010400

08004560 <LL_EXTI_DisableEvent_32_63>:
 8004560:	b480      	push	{r7}
 8004562:	b083      	sub	sp, #12
 8004564:	af00      	add	r7, sp, #0
 8004566:	6078      	str	r0, [r7, #4]
 8004568:	4b06      	ldr	r3, [pc, #24]	; (8004584 <LL_EXTI_DisableEvent_32_63+0x24>)
 800456a:	6a5a      	ldr	r2, [r3, #36]	; 0x24
 800456c:	687b      	ldr	r3, [r7, #4]
 800456e:	43db      	mvns	r3, r3
 8004570:	4904      	ldr	r1, [pc, #16]	; (8004584 <LL_EXTI_DisableEvent_32_63+0x24>)
 8004572:	4013      	ands	r3, r2
 8004574:	624b      	str	r3, [r1, #36]	; 0x24
 8004576:	bf00      	nop
 8004578:	370c      	adds	r7, #12
 800457a:	46bd      	mov	sp, r7
 800457c:	f85d 7b04 	ldr.w	r7, [sp], #4
 8004580:	4770      	bx	lr
 8004582:	bf00      	nop
 8004584:	40010400 	.word	0x40010400

08004588 <LL_EXTI_EnableRisingTrig_0_31>:
 8004588:	b480      	push	{r7}
 800458a:	b083      	sub	sp, #12
 800458c:	af00      	add	r7, sp, #0
 800458e:	6078      	str	r0, [r7, #4]
 8004590:	4b05      	ldr	r3, [pc, #20]	; (80045a8 <LL_EXTI_EnableRisingTrig_0_31+0x20>)
 8004592:	689a      	ldr	r2, [r3, #8]
 8004594:	4904      	ldr	r1, [pc, #16]	; (80045a8 <LL_EXTI_EnableRisingTrig_0_31+0x20>)
 8004596:	687b      	ldr	r3, [r7, #4]
 8004598:	4313      	orrs	r3, r2
 800459a:	608b      	str	r3, [r1, #8]
 800459c:	bf00      	nop
 800459e:	370c      	adds	r7, #12
 80045a0:	46bd      	mov	sp, r7
 80045a2:	f85d 7b04 	ldr.w	r7, [sp], #4
 80045a6:	4770      	bx	lr
 80045a8:	40010400 	.word	0x40010400

080045ac <LL_EXTI_EnableRisingTrig_32_63>:
 80045ac:	b480      	push	{r7}
 80045ae:	b083      	sub	sp, #12
 80045b0:	af00      	add	r7, sp, #0
 80045b2:	6078      	str	r0, [r7, #4]
 80045b4:	4b05      	ldr	r3, [pc, #20]	; (80045cc <LL_EXTI_EnableRisingTrig_32_63+0x20>)
 80045b6:	6a9a      	ldr	r2, [r3, #40]	; 0x28
 80045b8:	4904      	ldr	r1, [pc, #16]	; (80045cc <LL_EXTI_EnableRisingTrig_32_63+0x20>)
 80045ba:	687b      	ldr	r3, [r7, #4]
 80045bc:	4313      	orrs	r3, r2
 80045be:	628b      	str	r3, [r1, #40]	; 0x28
 80045c0:	bf00      	nop
 80045c2:	370c      	adds	r7, #12
 80045c4:	46bd      	mov	sp, r7
 80045c6:	f85d 7b04 	ldr.w	r7, [sp], #4
 80045ca:	4770      	bx	lr
 80045cc:	40010400 	.word	0x40010400

080045d0 <LL_EXTI_DisableRisingTrig_0_31>:
 80045d0:	b480      	push	{r7}
 80045d2:	b083      	sub	sp, #12
 80045d4:	af00      	add	r7, sp, #0
 80045d6:	6078      	str	r0, [r7, #4]
 80045d8:	4b06      	ldr	r3, [pc, #24]	; (80045f4 <LL_EXTI_DisableRisingTrig_0_31+0x24>)
 80045da:	689a      	ldr	r2, [r3, #8]
 80045dc:	687b      	ldr	r3, [r7, #4]
 80045de:	43db      	mvns	r3, r3
 80045e0:	4904      	ldr	r1, [pc, #16]	; (80045f4 <LL_EXTI_DisableRisingTrig_0_31+0x24>)
 80045e2:	4013      	ands	r3, r2
 80045e4:	608b      	str	r3, [r1, #8]
 80045e6:	bf00      	nop
 80045e8:	370c      	adds	r7, #12
 80045ea:	46bd      	mov	sp, r7
 80045ec:	f85d 7b04 	ldr.w	r7, [sp], #4
 80045f0:	4770      	bx	lr
 80045f2:	bf00      	nop
 80045f4:	40010400 	.word	0x40010400

080045f8 <LL_EXTI_DisableRisingTrig_32_63>:
 80045f8:	b480      	push	{r7}
 80045fa:	b083      	sub	sp, #12
 80045fc:	af00      	add	r7, sp, #0
 80045fe:	6078      	str	r0, [r7, #4]
 8004600:	4b06      	ldr	r3, [pc, #24]	; (800461c <LL_EXTI_DisableRisingTrig_32_63+0x24>)
 8004602:	6a9a      	ldr	r2, [r3, #40]	; 0x28
 8004604:	687b      	ldr	r3, [r7, #4]
 8004606:	43db      	mvns	r3, r3
 8004608:	4904      	ldr	r1, [pc, #16]	; (800461c <LL_EXTI_DisableRisingTrig_32_63+0x24>)
 800460a:	4013      	ands	r3, r2
 800460c:	628b      	str	r3, [r1, #40]	; 0x28
 800460e:	bf00      	nop
 8004610:	370c      	adds	r7, #12
 8004612:	46bd      	mov	sp, r7
 8004614:	f85d 7b04 	ldr.w	r7, [sp], #4
 8004618:	4770      	bx	lr
 800461a:	bf00      	nop
 800461c:	40010400 	.word	0x40010400

08004620 <LL_EXTI_EnableFallingTrig_0_31>:
 8004620:	b480      	push	{r7}
 8004622:	b083      	sub	sp, #12
 8004624:	af00      	add	r7, sp, #0
 8004626:	6078      	str	r0, [r7, #4]
 8004628:	4b05      	ldr	r3, [pc, #20]	; (8004640 <LL_EXTI_EnableFallingTrig_0_31+0x20>)
 800462a:	68da      	ldr	r2, [r3, #12]
 800462c:	4904      	ldr	r1, [pc, #16]	; (8004640 <LL_EXTI_EnableFallingTrig_0_31+0x20>)
 800462e:	687b      	ldr	r3, [r7, #4]
 8004630:	4313      	orrs	r3, r2
 8004632:	60cb      	str	r3, [r1, #12]
 8004634:	bf00      	nop
 8004636:	370c      	adds	r7, #12
 8004638:	46bd      	mov	sp, r7
 800463a:	f85d 7b04 	ldr.w	r7, [sp], #4
 800463e:	4770      	bx	lr
 8004640:	40010400 	.word	0x40010400

08004644 <LL_EXTI_EnableFallingTrig_32_63>:
 8004644:	b480      	push	{r7}
 8004646:	b083      	sub	sp, #12
 8004648:	af00      	add	r7, sp, #0
 800464a:	6078      	str	r0, [r7, #4]
 800464c:	4b05      	ldr	r3, [pc, #20]	; (8004664 <LL_EXTI_EnableFallingTrig_32_63+0x20>)
 800464e:	6ada      	ldr	r2, [r3, #44]	; 0x2c
 8004650:	4904      	ldr	r1, [pc, #16]	; (8004664 <LL_EXTI_EnableFallingTrig_32_63+0x20>)
 8004652:	687b      	ldr	r3, [r7, #4]
 8004654:	4313      	orrs	r3, r2
 8004656:	62cb      	str	r3, [r1, #44]	; 0x2c
 8004658:	bf00      	nop
 800465a:	370c      	adds	r7, #12
 800465c:	46bd      	mov	sp, r7
 800465e:	f85d 7b04 	ldr.w	r7, [sp], #4
 8004662:	4770      	bx	lr
 8004664:	40010400 	.word	0x40010400

08004668 <LL_EXTI_DisableFallingTrig_0_31>:
 8004668:	b480      	push	{r7}
 800466a:	b083      	sub	sp, #12
 800466c:	af00      	add	r7, sp, #0
 800466e:	6078      	str	r0, [r7, #4]
 8004670:	4b06      	ldr	r3, [pc, #24]	; (800468c <LL_EXTI_DisableFallingTrig_0_31+0x24>)
 8004672:	68da      	ldr	r2, [r3, #12]
 8004674:	687b      	ldr	r3, [r7, #4]
 8004676:	43db      	mvns	r3, r3
 8004678:	4904      	ldr	r1, [pc, #16]	; (800468c <LL_EXTI_DisableFallingTrig_0_31+0x24>)
 800467a:	4013      	ands	r3, r2
 800467c:	60cb      	str	r3, [r1, #12]
 800467e:	bf00      	nop
 8004680:	370c      	adds	r7, #12
 8004682:	46bd      	mov	sp, r7
 8004684:	f85d 7b04 	ldr.w	r7, [sp], #4
 8004688:	4770      	bx	lr
 800468a:	bf00      	nop
 800468c:	40010400 	.word	0x40010400

08004690 <LL_EXTI_DisableFallingTrig_32_63>:
 8004690:	b480      	push	{r7}
 8004692:	b083      	sub	sp, #12
 8004694:	af00      	add	r7, sp, #0
 8004696:	6078      	str	r0, [r7, #4]
 8004698:	4b06      	ldr	r3, [pc, #24]	; (80046b4 <LL_EXTI_DisableFallingTrig_32_63+0x24>)
 800469a:	6ada      	ldr	r2, [r3, #44]	; 0x2c
 800469c:	687b      	ldr	r3, [r7, #4]
 800469e:	43db      	mvns	r3, r3
 80046a0:	4904      	ldr	r1, [pc, #16]	; (80046b4 <LL_EXTI_DisableFallingTrig_32_63+0x24>)
 80046a2:	4013      	ands	r3, r2
 80046a4:	62cb      	str	r3, [r1, #44]	; 0x2c
 80046a6:	bf00      	nop
 80046a8:	370c      	adds	r7, #12
 80046aa:	46bd      	mov	sp, r7
 80046ac:	f85d 7b04 	ldr.w	r7, [sp], #4
 80046b0:	4770      	bx	lr
 80046b2:	bf00      	nop
 80046b4:	40010400 	.word	0x40010400

080046b8 <LL_EXTI_Init>:
 80046b8:	b580      	push	{r7, lr}
 80046ba:	b084      	sub	sp, #16
 80046bc:	af00      	add	r7, sp, #0
 80046be:	6078      	str	r0, [r7, #4]
 80046c0:	2300      	movs	r3, #0
 80046c2:	60fb      	str	r3, [r7, #12]
 80046c4:	687b      	ldr	r3, [r7, #4]
 80046c6:	7a1b      	ldrb	r3, [r3, #8]
 80046c8:	2b00      	cmp	r3, #0
 80046ca:	f000 80d1 	beq.w	8004870 <LL_EXTI_Init+0x1b8>
 80046ce:	687b      	ldr	r3, [r7, #4]
 80046d0:	681b      	ldr	r3, [r3, #0]
 80046d2:	2b00      	cmp	r3, #0
 80046d4:	d063      	beq.n	800479e <LL_EXTI_Init+0xe6>
 80046d6:	687b      	ldr	r3, [r7, #4]
 80046d8:	7a5b      	ldrb	r3, [r3, #9]
 80046da:	2b02      	cmp	r3, #2
 80046dc:	d01c      	beq.n	8004718 <LL_EXTI_Init+0x60>
 80046de:	2b02      	cmp	r3, #2
 80046e0:	dc25      	bgt.n	800472e <LL_EXTI_Init+0x76>
 80046e2:	2b00      	cmp	r3, #0
 80046e4:	d002      	beq.n	80046ec <LL_EXTI_Init+0x34>
 80046e6:	2b01      	cmp	r3, #1
 80046e8:	d00b      	beq.n	8004702 <LL_EXTI_Init+0x4a>
 80046ea:	e020      	b.n	800472e <LL_EXTI_Init+0x76>
 80046ec:	687b      	ldr	r3, [r7, #4]
 80046ee:	681b      	ldr	r3, [r3, #0]
 80046f0:	4618      	mov	r0, r3
 80046f2:	f7ff ff21 	bl	8004538 <LL_EXTI_DisableEvent_0_31>
 80046f6:	687b      	ldr	r3, [r7, #4]
 80046f8:	681b      	ldr	r3, [r3, #0]
 80046fa:	4618      	mov	r0, r3
 80046fc:	f7ff feac 	bl	8004458 <LL_EXTI_EnableIT_0_31>
 8004700:	e018      	b.n	8004734 <LL_EXTI_Init+0x7c>
 8004702:	687b      	ldr	r3, [r7, #4]
 8004704:	681b      	ldr	r3, [r3, #0]
 8004706:	4618      	mov	r0, r3
 8004708:	f7ff feca 	bl	80044a0 <LL_EXTI_DisableIT_0_31>
 800470c:	687b      	ldr	r3, [r7, #4]
 800470e:	681b      	ldr	r3, [r3, #0]
 8004710:	4618      	mov	r0, r3
 8004712:	f7ff feed 	bl	80044f0 <LL_EXTI_EnableEvent_0_31>
 8004716:	e00d      	b.n	8004734 <LL_EXTI_Init+0x7c>
 8004718:	687b      	ldr	r3, [r7, #4]
 800471a:	681b      	ldr	r3, [r3, #0]
 800471c:	4618      	mov	r0, r3
 800471e:	f7ff fe9b 	bl	8004458 <LL_EXTI_EnableIT_0_31>
 8004722:	687b      	ldr	r3, [r7, #4]
 8004724:	681b      	ldr	r3, [r3, #0]
 8004726:	4618      	mov	r0, r3
 8004728:	f7ff fee2 	bl	80044f0 <LL_EXTI_EnableEvent_0_31>
 800472c:	e002      	b.n	8004734 <LL_EXTI_Init+0x7c>
 800472e:	2301      	movs	r3, #1
 8004730:	60fb      	str	r3, [r7, #12]
 8004732:	bf00      	nop
 8004734:	687b      	ldr	r3, [r7, #4]
 8004736:	7a9b      	ldrb	r3, [r3, #10]
 8004738:	2b00      	cmp	r3, #0
 800473a:	d030      	beq.n	800479e <LL_EXTI_Init+0xe6>
 800473c:	687b      	ldr	r3, [r7, #4]
 800473e:	7a9b      	ldrb	r3, [r3, #10]
 8004740:	2b03      	cmp	r3, #3
 8004742:	d01c      	beq.n	800477e <LL_EXTI_Init+0xc6>
 8004744:	2b03      	cmp	r3, #3
 8004746:	dc25      	bgt.n	8004794 <LL_EXTI_Init+0xdc>
 8004748:	2b01      	cmp	r3, #1
 800474a:	d002      	beq.n	8004752 <LL_EXTI_Init+0x9a>
 800474c:	2b02      	cmp	r3, #2
 800474e:	d00b      	beq.n	8004768 <LL_EXTI_Init+0xb0>
 8004750:	e020      	b.n	8004794 <LL_EXTI_Init+0xdc>
 8004752:	687b      	ldr	r3, [r7, #4]
 8004754:	681b      	ldr	r3, [r3, #0]
 8004756:	4618      	mov	r0, r3
 8004758:	f7ff ff86 	bl	8004668 <LL_EXTI_DisableFallingTrig_0_31>
 800475c:	687b      	ldr	r3, [r7, #4]
 800475e:	681b      	ldr	r3, [r3, #0]
 8004760:	4618      	mov	r0, r3
 8004762:	f7ff ff11 	bl	8004588 <LL_EXTI_EnableRisingTrig_0_31>
 8004766:	e01b      	b.n	80047a0 <LL_EXTI_Init+0xe8>
 8004768:	687b      	ldr	r3, [r7, #4]
 800476a:	681b      	ldr	r3, [r3, #0]
 800476c:	4618      	mov	r0, r3
 800476e:	f7ff ff2f 	bl	80045d0 <LL_EXTI_DisableRisingTrig_0_31>
 8004772:	687b      	ldr	r3, [r7, #4]
 8004774:	681b      	ldr	r3, [r3, #0]
 8004776:	4618      	mov	r0, r3
 8004778:	f7ff ff52 	bl	8004620 <LL_EXTI_EnableFallingTrig_0_31>
 800477c:	e010      	b.n	80047a0 <LL_EXTI_Init+0xe8>
 800477e:	687b      	ldr	r3, [r7, #4]
 8004780:	681b      	ldr	r3, [r3, #0]
 8004782:	4618      	mov	r0, r3
 8004784:	f7ff ff00 	bl	8004588 <LL_EXTI_EnableRisingTrig_0_31>
 8004788:	687b      	ldr	r3, [r7, #4]
 800478a:	681b      	ldr	r3, [r3, #0]
 800478c:	4618      	mov	r0, r3
 800478e:	f7ff ff47 	bl	8004620 <LL_EXTI_EnableFallingTrig_0_31>
 8004792:	e005      	b.n	80047a0 <LL_EXTI_Init+0xe8>
 8004794:	68fb      	ldr	r3, [r7, #12]
 8004796:	f043 0302 	orr.w	r3, r3, #2
 800479a:	60fb      	str	r3, [r7, #12]
 800479c:	e000      	b.n	80047a0 <LL_EXTI_Init+0xe8>
 800479e:	bf00      	nop
 80047a0:	687b      	ldr	r3, [r7, #4]
 80047a2:	685b      	ldr	r3, [r3, #4]
 80047a4:	2b00      	cmp	r3, #0
 80047a6:	d078      	beq.n	800489a <LL_EXTI_Init+0x1e2>
 80047a8:	687b      	ldr	r3, [r7, #4]
 80047aa:	7a5b      	ldrb	r3, [r3, #9]
 80047ac:	2b02      	cmp	r3, #2
 80047ae:	d01c      	beq.n	80047ea <LL_EXTI_Init+0x132>
 80047b0:	2b02      	cmp	r3, #2
 80047b2:	dc25      	bgt.n	8004800 <LL_EXTI_Init+0x148>
 80047b4:	2b00      	cmp	r3, #0
 80047b6:	d002      	beq.n	80047be <LL_EXTI_Init+0x106>
 80047b8:	2b01      	cmp	r3, #1
 80047ba:	d00b      	beq.n	80047d4 <LL_EXTI_Init+0x11c>
 80047bc:	e020      	b.n	8004800 <LL_EXTI_Init+0x148>
 80047be:	687b      	ldr	r3, [r7, #4]
 80047c0:	685b      	ldr	r3, [r3, #4]
 80047c2:	4618      	mov	r0, r3
 80047c4:	f7ff fecc 	bl	8004560 <LL_EXTI_DisableEvent_32_63>
 80047c8:	687b      	ldr	r3, [r7, #4]
 80047ca:	685b      	ldr	r3, [r3, #4]
 80047cc:	4618      	mov	r0, r3
 80047ce:	f7ff fe55 	bl	800447c <LL_EXTI_EnableIT_32_63>
 80047d2:	e01a      	b.n	800480a <LL_EXTI_Init+0x152>
 80047d4:	687b      	ldr	r3, [r7, #4]
 80047d6:	685b      	ldr	r3, [r3, #4]
 80047d8:	4618      	mov	r0, r3
 80047da:	f7ff fe75 	bl	80044c8 <LL_EXTI_DisableIT_32_63>
 80047de:	687b      	ldr	r3, [r7, #4]
 80047e0:	685b      	ldr	r3, [r3, #4]
 80047e2:	4618      	mov	r0, r3
 80047e4:	f7ff fe96 	bl	8004514 <LL_EXTI_EnableEvent_32_63>
 80047e8:	e00f      	b.n	800480a <LL_EXTI_Init+0x152>
 80047ea:	687b      	ldr	r3, [r7, #4]
 80047ec:	685b      	ldr	r3, [r3, #4]
 80047ee:	4618      	mov	r0, r3
 80047f0:	f7ff fe44 	bl	800447c <LL_EXTI_EnableIT_32_63>
 80047f4:	687b      	ldr	r3, [r7, #4]
 80047f6:	685b      	ldr	r3, [r3, #4]
 80047f8:	4618      	mov	r0, r3
 80047fa:	f7ff fe8b 	bl	8004514 <LL_EXTI_EnableEvent_32_63>
 80047fe:	e004      	b.n	800480a <LL_EXTI_Init+0x152>
 8004800:	68fb      	ldr	r3, [r7, #12]
 8004802:	f043 0304 	orr.w	r3, r3, #4
 8004806:	60fb      	str	r3, [r7, #12]
 8004808:	bf00      	nop
 800480a:	687b      	ldr	r3, [r7, #4]
 800480c:	7a9b      	ldrb	r3, [r3, #10]
 800480e:	2b00      	cmp	r3, #0
 8004810:	d043      	beq.n	800489a <LL_EXTI_Init+0x1e2>
 8004812:	687b      	ldr	r3, [r7, #4]
 8004814:	7a9b      	ldrb	r3, [r3, #10]
 8004816:	2b03      	cmp	r3, #3
 8004818:	d01c      	beq.n	8004854 <LL_EXTI_Init+0x19c>
 800481a:	2b03      	cmp	r3, #3
 800481c:	dc25      	bgt.n	800486a <LL_EXTI_Init+0x1b2>
 800481e:	2b01      	cmp	r3, #1
 8004820:	d002      	beq.n	8004828 <LL_EXTI_Init+0x170>
 8004822:	2b02      	cmp	r3, #2
 8004824:	d00b      	beq.n	800483e <LL_EXTI_Init+0x186>
 8004826:	e020      	b.n	800486a <LL_EXTI_Init+0x1b2>
 8004828:	687b      	ldr	r3, [r7, #4]
 800482a:	685b      	ldr	r3, [r3, #4]
 800482c:	4618      	mov	r0, r3
 800482e:	f7ff ff2f 	bl	8004690 <LL_EXTI_DisableFallingTrig_32_63>
 8004832:	687b      	ldr	r3, [r7, #4]
 8004834:	685b      	ldr	r3, [r3, #4]
 8004836:	4618      	mov	r0, r3
 8004838:	f7ff feb8 	bl	80045ac <LL_EXTI_EnableRisingTrig_32_63>
 800483c:	e02e      	b.n	800489c <LL_EXTI_Init+0x1e4>
 800483e:	687b      	ldr	r3, [r7, #4]
 8004840:	685b      	ldr	r3, [r3, #4]
 8004842:	4618      	mov	r0, r3
 8004844:	f7ff fed8 	bl	80045f8 <LL_EXTI_DisableRisingTrig_32_63>
 8004848:	687b      	ldr	r3, [r7, #4]
 800484a:	685b      	ldr	r3, [r3, #4]
 800484c:	4618      	mov	r0, r3
 800484e:	f7ff fef9 	bl	8004644 <LL_EXTI_EnableFallingTrig_32_63>
 8004852:	e023      	b.n	800489c <LL_EXTI_Init+0x1e4>
 8004854:	687b      	ldr	r3, [r7, #4]
 8004856:	685b      	ldr	r3, [r3, #4]
 8004858:	4618      	mov	r0, r3
 800485a:	f7ff fea7 	bl	80045ac <LL_EXTI_EnableRisingTrig_32_63>
 800485e:	687b      	ldr	r3, [r7, #4]
 8004860:	685b      	ldr	r3, [r3, #4]
 8004862:	4618      	mov	r0, r3
 8004864:	f7ff feee 	bl	8004644 <LL_EXTI_EnableFallingTrig_32_63>
 8004868:	e018      	b.n	800489c <LL_EXTI_Init+0x1e4>
 800486a:	2301      	movs	r3, #1
 800486c:	60fb      	str	r3, [r7, #12]
 800486e:	e015      	b.n	800489c <LL_EXTI_Init+0x1e4>
 8004870:	687b      	ldr	r3, [r7, #4]
 8004872:	681b      	ldr	r3, [r3, #0]
 8004874:	4618      	mov	r0, r3
 8004876:	f7ff fe13 	bl	80044a0 <LL_EXTI_DisableIT_0_31>
 800487a:	687b      	ldr	r3, [r7, #4]
 800487c:	681b      	ldr	r3, [r3, #0]
 800487e:	4618      	mov	r0, r3
 8004880:	f7ff fe5a 	bl	8004538 <LL_EXTI_DisableEvent_0_31>
 8004884:	687b      	ldr	r3, [r7, #4]
 8004886:	685b      	ldr	r3, [r3, #4]
 8004888:	4618      	mov	r0, r3
 800488a:	f7ff fe1d 	bl	80044c8 <LL_EXTI_DisableIT_32_63>
 800488e:	687b      	ldr	r3, [r7, #4]
 8004890:	685b      	ldr	r3, [r3, #4]
 8004892:	4618      	mov	r0, r3
 8004894:	f7ff fe64 	bl	8004560 <LL_EXTI_DisableEvent_32_63>
 8004898:	e000      	b.n	800489c <LL_EXTI_Init+0x1e4>
 800489a:	bf00      	nop
 800489c:	68fb      	ldr	r3, [r7, #12]
 800489e:	4618      	mov	r0, r3
 80048a0:	3710      	adds	r7, #16
 80048a2:	46bd      	mov	sp, r7
 80048a4:	bd80      	pop	{r7, pc}

080048a6 <LL_GPIO_SetPinMode>:
 80048a6:	b480      	push	{r7}
 80048a8:	b08b      	sub	sp, #44	; 0x2c
 80048aa:	af00      	add	r7, sp, #0
 80048ac:	60f8      	str	r0, [r7, #12]
 80048ae:	60b9      	str	r1, [r7, #8]
 80048b0:	607a      	str	r2, [r7, #4]
 80048b2:	68fb      	ldr	r3, [r7, #12]
 80048b4:	681a      	ldr	r2, [r3, #0]
 80048b6:	68bb      	ldr	r3, [r7, #8]
 80048b8:	617b      	str	r3, [r7, #20]
 80048ba:	697b      	ldr	r3, [r7, #20]
 80048bc:	fa93 f3a3 	rbit	r3, r3
 80048c0:	613b      	str	r3, [r7, #16]
 80048c2:	693b      	ldr	r3, [r7, #16]
 80048c4:	61bb      	str	r3, [r7, #24]
 80048c6:	69bb      	ldr	r3, [r7, #24]
 80048c8:	2b00      	cmp	r3, #0
 80048ca:	d101      	bne.n	80048d0 <LL_GPIO_SetPinMode+0x2a>
 80048cc:	2320      	movs	r3, #32
 80048ce:	e003      	b.n	80048d8 <LL_GPIO_SetPinMode+0x32>
 80048d0:	69bb      	ldr	r3, [r7, #24]
 80048d2:	fab3 f383 	clz	r3, r3
 80048d6:	b2db      	uxtb	r3, r3
 80048d8:	005b      	lsls	r3, r3, #1
 80048da:	2103      	movs	r1, #3
 80048dc:	fa01 f303 	lsl.w	r3, r1, r3
 80048e0:	43db      	mvns	r3, r3
 80048e2:	401a      	ands	r2, r3
 80048e4:	68bb      	ldr	r3, [r7, #8]
 80048e6:	623b      	str	r3, [r7, #32]
 80048e8:	6a3b      	ldr	r3, [r7, #32]
 80048ea:	fa93 f3a3 	rbit	r3, r3
 80048ee:	61fb      	str	r3, [r7, #28]
 80048f0:	69fb      	ldr	r3, [r7, #28]
 80048f2:	627b      	str	r3, [r7, #36]	; 0x24
 80048f4:	6a7b      	ldr	r3, [r7, #36]	; 0x24
 80048f6:	2b00      	cmp	r3, #0
 80048f8:	d101      	bne.n	80048fe <LL_GPIO_SetPinMode+0x58>
 80048fa:	2320      	movs	r3, #32
 80048fc:	e003      	b.n	8004906 <LL_GPIO_SetPinMode+0x60>
 80048fe:	6a7b      	ldr	r3, [r7, #36]	; 0x24
 8004900:	fab3 f383 	clz	r3, r3
 8004904:	b2db      	uxtb	r3, r3
 8004906:	005b      	lsls	r3, r3, #1
 8004908:	6879      	ldr	r1, [r7, #4]
 800490a:	fa01 f303 	lsl.w	r3, r1, r3
 800490e:	431a      	orrs	r2, r3
 8004910:	68fb      	ldr	r3, [r7, #12]
 8004912:	601a      	str	r2, [r3, #0]
 8004914:	bf00      	nop
 8004916:	372c      	adds	r7, #44	; 0x2c
 8004918:	46bd      	mov	sp, r7
 800491a:	f85d 7b04 	ldr.w	r7, [sp], #4
 800491e:	4770      	bx	lr

08004920 <LL_GPIO_SetPinOutputType>:
 8004920:	b480      	push	{r7}
 8004922:	b085      	sub	sp, #20
 8004924:	af00      	add	r7, sp, #0
 8004926:	60f8      	str	r0, [r7, #12]
 8004928:	60b9      	str	r1, [r7, #8]
 800492a:	607a      	str	r2, [r7, #4]
 800492c:	68fb      	ldr	r3, [r7, #12]
 800492e:	685a      	ldr	r2, [r3, #4]
 8004930:	68bb      	ldr	r3, [r7, #8]
 8004932:	43db      	mvns	r3, r3
 8004934:	401a      	ands	r2, r3
 8004936:	68bb      	ldr	r3, [r7, #8]
 8004938:	6879      	ldr	r1, [r7, #4]
 800493a:	fb01 f303 	mul.w	r3, r1, r3
 800493e:	431a      	orrs	r2, r3
 8004940:	68fb      	ldr	r3, [r7, #12]
 8004942:	605a      	str	r2, [r3, #4]
 8004944:	bf00      	nop
 8004946:	3714      	adds	r7, #20
 8004948:	46bd      	mov	sp, r7
 800494a:	f85d 7b04 	ldr.w	r7, [sp], #4
 800494e:	4770      	bx	lr

08004950 <LL_GPIO_SetPinSpeed>:
 8004950:	b480      	push	{r7}
 8004952:	b08b      	sub	sp, #44	; 0x2c
 8004954:	af00      	add	r7, sp, #0
 8004956:	60f8      	str	r0, [r7, #12]
 8004958:	60b9      	str	r1, [r7, #8]
 800495a:	607a      	str	r2, [r7, #4]
 800495c:	68fb      	ldr	r3, [r7, #12]
 800495e:	689a      	ldr	r2, [r3, #8]
 8004960:	68bb      	ldr	r3, [r7, #8]
 8004962:	617b      	str	r3, [r7, #20]
 8004964:	697b      	ldr	r3, [r7, #20]
 8004966:	fa93 f3a3 	rbit	r3, r3
 800496a:	613b      	str	r3, [r7, #16]
 800496c:	693b      	ldr	r3, [r7, #16]
 800496e:	61bb      	str	r3, [r7, #24]
 8004970:	69bb      	ldr	r3, [r7, #24]
 8004972:	2b00      	cmp	r3, #0
 8004974:	d101      	bne.n	800497a <LL_GPIO_SetPinSpeed+0x2a>
 8004976:	2320      	movs	r3, #32
 8004978:	e003      	b.n	8004982 <LL_GPIO_SetPinSpeed+0x32>
 800497a:	69bb      	ldr	r3, [r7, #24]
 800497c:	fab3 f383 	clz	r3, r3
 8004980:	b2db      	uxtb	r3, r3
 8004982:	005b      	lsls	r3, r3, #1
 8004984:	2103      	movs	r1, #3
 8004986:	fa01 f303 	lsl.w	r3, r1, r3
 800498a:	43db      	mvns	r3, r3
 800498c:	401a      	ands	r2, r3
 800498e:	68bb      	ldr	r3, [r7, #8]
 8004990:	623b      	str	r3, [r7, #32]
 8004992:	6a3b      	ldr	r3, [r7, #32]
 8004994:	fa93 f3a3 	rbit	r3, r3
 8004998:	61fb      	str	r3, [r7, #28]
 800499a:	69fb      	ldr	r3, [r7, #28]
 800499c:	627b      	str	r3, [r7, #36]	; 0x24
 800499e:	6a7b      	ldr	r3, [r7, #36]	; 0x24
 80049a0:	2b00      	cmp	r3, #0
 80049a2:	d101      	bne.n	80049a8 <LL_GPIO_SetPinSpeed+0x58>
 80049a4:	2320      	movs	r3, #32
 80049a6:	e003      	b.n	80049b0 <LL_GPIO_SetPinSpeed+0x60>
 80049a8:	6a7b      	ldr	r3, [r7, #36]	; 0x24
 80049aa:	fab3 f383 	clz	r3, r3
 80049ae:	b2db      	uxtb	r3, r3
 80049b0:	005b      	lsls	r3, r3, #1
 80049b2:	6879      	ldr	r1, [r7, #4]
 80049b4:	fa01 f303 	lsl.w	r3, r1, r3
 80049b8:	431a      	orrs	r2, r3
 80049ba:	68fb      	ldr	r3, [r7, #12]
 80049bc:	609a      	str	r2, [r3, #8]
 80049be:	bf00      	nop
 80049c0:	372c      	adds	r7, #44	; 0x2c
 80049c2:	46bd      	mov	sp, r7
 80049c4:	f85d 7b04 	ldr.w	r7, [sp], #4
 80049c8:	4770      	bx	lr

080049ca <LL_GPIO_SetPinPull>:
 80049ca:	b480      	push	{r7}
 80049cc:	b08b      	sub	sp, #44	; 0x2c
 80049ce:	af00      	add	r7, sp, #0
 80049d0:	60f8      	str	r0, [r7, #12]
 80049d2:	60b9      	str	r1, [r7, #8]
 80049d4:	607a      	str	r2, [r7, #4]
 80049d6:	68fb      	ldr	r3, [r7, #12]
 80049d8:	68da      	ldr	r2, [r3, #12]
 80049da:	68bb      	ldr	r3, [r7, #8]
 80049dc:	617b      	str	r3, [r7, #20]
 80049de:	697b      	ldr	r3, [r7, #20]
 80049e0:	fa93 f3a3 	rbit	r3, r3
 80049e4:	613b      	str	r3, [r7, #16]
 80049e6:	693b      	ldr	r3, [r7, #16]
 80049e8:	61bb      	str	r3, [r7, #24]
 80049ea:	69bb      	ldr	r3, [r7, #24]
 80049ec:	2b00      	cmp	r3, #0
 80049ee:	d101      	bne.n	80049f4 <LL_GPIO_SetPinPull+0x2a>
 80049f0:	2320      	movs	r3, #32
 80049f2:	e003      	b.n	80049fc <LL_GPIO_SetPinPull+0x32>
 80049f4:	69bb      	ldr	r3, [r7, #24]
 80049f6:	fab3 f383 	clz	r3, r3
 80049fa:	b2db      	uxtb	r3, r3
 80049fc:	005b      	lsls	r3, r3, #1
 80049fe:	2103      	movs	r1, #3
 8004a00:	fa01 f303 	lsl.w	r3, r1, r3
 8004a04:	43db      	mvns	r3, r3
 8004a06:	401a      	ands	r2, r3
 8004a08:	68bb      	ldr	r3, [r7, #8]
 8004a0a:	623b      	str	r3, [r7, #32]
 8004a0c:	6a3b      	ldr	r3, [r7, #32]
 8004a0e:	fa93 f3a3 	rbit	r3, r3
 8004a12:	61fb      	str	r3, [r7, #28]
 8004a14:	69fb      	ldr	r3, [r7, #28]
 8004a16:	627b      	str	r3, [r7, #36]	; 0x24
 8004a18:	6a7b      	ldr	r3, [r7, #36]	; 0x24
 8004a1a:	2b00      	cmp	r3, #0
 8004a1c:	d101      	bne.n	8004a22 <LL_GPIO_SetPinPull+0x58>
 8004a1e:	2320      	movs	r3, #32
 8004a20:	e003      	b.n	8004a2a <LL_GPIO_SetPinPull+0x60>
 8004a22:	6a7b      	ldr	r3, [r7, #36]	; 0x24
 8004a24:	fab3 f383 	clz	r3, r3
 8004a28:	b2db      	uxtb	r3, r3
 8004a2a:	005b      	lsls	r3, r3, #1
 8004a2c:	6879      	ldr	r1, [r7, #4]
 8004a2e:	fa01 f303 	lsl.w	r3, r1, r3
 8004a32:	431a      	orrs	r2, r3
 8004a34:	68fb      	ldr	r3, [r7, #12]
 8004a36:	60da      	str	r2, [r3, #12]
 8004a38:	bf00      	nop
 8004a3a:	372c      	adds	r7, #44	; 0x2c
 8004a3c:	46bd      	mov	sp, r7
 8004a3e:	f85d 7b04 	ldr.w	r7, [sp], #4
 8004a42:	4770      	bx	lr

08004a44 <LL_GPIO_SetAFPin_0_7>:
 8004a44:	b480      	push	{r7}
 8004a46:	b08b      	sub	sp, #44	; 0x2c
 8004a48:	af00      	add	r7, sp, #0
 8004a4a:	60f8      	str	r0, [r7, #12]
 8004a4c:	60b9      	str	r1, [r7, #8]
 8004a4e:	607a      	str	r2, [r7, #4]
 8004a50:	68fb      	ldr	r3, [r7, #12]
 8004a52:	6a1a      	ldr	r2, [r3, #32]
 8004a54:	68bb      	ldr	r3, [r7, #8]
 8004a56:	617b      	str	r3, [r7, #20]
 8004a58:	697b      	ldr	r3, [r7, #20]
 8004a5a:	fa93 f3a3 	rbit	r3, r3
 8004a5e:	613b      	str	r3, [r7, #16]
 8004a60:	693b      	ldr	r3, [r7, #16]
 8004a62:	61bb      	str	r3, [r7, #24]
 8004a64:	69bb      	ldr	r3, [r7, #24]
 8004a66:	2b00      	cmp	r3, #0
 8004a68:	d101      	bne.n	8004a6e <LL_GPIO_SetAFPin_0_7+0x2a>
 8004a6a:	2320      	movs	r3, #32
 8004a6c:	e003      	b.n	8004a76 <LL_GPIO_SetAFPin_0_7+0x32>
 8004a6e:	69bb      	ldr	r3, [r7, #24]
 8004a70:	fab3 f383 	clz	r3, r3
 8004a74:	b2db      	uxtb	r3, r3
 8004a76:	009b      	lsls	r3, r3, #2
 8004a78:	210f      	movs	r1, #15
 8004a7a:	fa01 f303 	lsl.w	r3, r1, r3
 8004a7e:	43db      	mvns	r3, r3
 8004a80:	401a      	ands	r2, r3
 8004a82:	68bb      	ldr	r3, [r7, #8]
 8004a84:	623b      	str	r3, [r7, #32]
 8004a86:	6a3b      	ldr	r3, [r7, #32]
 8004a88:	fa93 f3a3 	rbit	r3, r3
 8004a8c:	61fb      	str	r3, [r7, #28]
 8004a8e:	69fb      	ldr	r3, [r7, #28]
 8004a90:	627b      	str	r3, [r7, #36]	; 0x24
 8004a92:	6a7b      	ldr	r3, [r7, #36]	; 0x24
 8004a94:	2b00      	cmp	r3, #0
 8004a96:	d101      	bne.n	8004a9c <LL_GPIO_SetAFPin_0_7+0x58>
 8004a98:	2320      	movs	r3, #32
 8004a9a:	e003      	b.n	8004aa4 <LL_GPIO_SetAFPin_0_7+0x60>
 8004a9c:	6a7b      	ldr	r3, [r7, #36]	; 0x24
 8004a9e:	fab3 f383 	clz	r3, r3
 8004aa2:	b2db      	uxtb	r3, r3
 8004aa4:	009b      	lsls	r3, r3, #2
 8004aa6:	6879      	ldr	r1, [r7, #4]
 8004aa8:	fa01 f303 	lsl.w	r3, r1, r3
 8004aac:	431a      	orrs	r2, r3
 8004aae:	68fb      	ldr	r3, [r7, #12]
 8004ab0:	621a      	str	r2, [r3, #32]
 8004ab2:	bf00      	nop
 8004ab4:	372c      	adds	r7, #44	; 0x2c
 8004ab6:	46bd      	mov	sp, r7
 8004ab8:	f85d 7b04 	ldr.w	r7, [sp], #4
 8004abc:	4770      	bx	lr

08004abe <LL_GPIO_SetAFPin_8_15>:
 8004abe:	b480      	push	{r7}
 8004ac0:	b08b      	sub	sp, #44	; 0x2c
 8004ac2:	af00      	add	r7, sp, #0
 8004ac4:	60f8      	str	r0, [r7, #12]
 8004ac6:	60b9      	str	r1, [r7, #8]
 8004ac8:	607a      	str	r2, [r7, #4]
 8004aca:	68fb      	ldr	r3, [r7, #12]
 8004acc:	6a5a      	ldr	r2, [r3, #36]	; 0x24
 8004ace:	68bb      	ldr	r3, [r7, #8]
 8004ad0:	0a1b      	lsrs	r3, r3, #8
 8004ad2:	617b      	str	r3, [r7, #20]
 8004ad4:	697b      	ldr	r3, [r7, #20]
 8004ad6:	fa93 f3a3 	rbit	r3, r3
 8004ada:	613b      	str	r3, [r7, #16]
 8004adc:	693b      	ldr	r3, [r7, #16]
 8004ade:	61bb      	str	r3, [r7, #24]
 8004ae0:	69bb      	ldr	r3, [r7, #24]
 8004ae2:	2b00      	cmp	r3, #0
 8004ae4:	d101      	bne.n	8004aea <LL_GPIO_SetAFPin_8_15+0x2c>
 8004ae6:	2320      	movs	r3, #32
 8004ae8:	e003      	b.n	8004af2 <LL_GPIO_SetAFPin_8_15+0x34>
 8004aea:	69bb      	ldr	r3, [r7, #24]
 8004aec:	fab3 f383 	clz	r3, r3
 8004af0:	b2db      	uxtb	r3, r3
 8004af2:	009b      	lsls	r3, r3, #2
 8004af4:	210f      	movs	r1, #15
 8004af6:	fa01 f303 	lsl.w	r3, r1, r3
 8004afa:	43db      	mvns	r3, r3
 8004afc:	401a      	ands	r2, r3
 8004afe:	68bb      	ldr	r3, [r7, #8]
 8004b00:	0a1b      	lsrs	r3, r3, #8
 8004b02:	623b      	str	r3, [r7, #32]
 8004b04:	6a3b      	ldr	r3, [r7, #32]
 8004b06:	fa93 f3a3 	rbit	r3, r3
 8004b0a:	61fb      	str	r3, [r7, #28]
 8004b0c:	69fb      	ldr	r3, [r7, #28]
 8004b0e:	627b      	str	r3, [r7, #36]	; 0x24
 8004b10:	6a7b      	ldr	r3, [r7, #36]	; 0x24
 8004b12:	2b00      	cmp	r3, #0
 8004b14:	d101      	bne.n	8004b1a <LL_GPIO_SetAFPin_8_15+0x5c>
 8004b16:	2320      	movs	r3, #32
 8004b18:	e003      	b.n	8004b22 <LL_GPIO_SetAFPin_8_15+0x64>
 8004b1a:	6a7b      	ldr	r3, [r7, #36]	; 0x24
 8004b1c:	fab3 f383 	clz	r3, r3
 8004b20:	b2db      	uxtb	r3, r3
 8004b22:	009b      	lsls	r3, r3, #2
 8004b24:	6879      	ldr	r1, [r7, #4]
 8004b26:	fa01 f303 	lsl.w	r3, r1, r3
 8004b2a:	431a      	orrs	r2, r3
 8004b2c:	68fb      	ldr	r3, [r7, #12]
 8004b2e:	625a      	str	r2, [r3, #36]	; 0x24
 8004b30:	bf00      	nop
 8004b32:	372c      	adds	r7, #44	; 0x2c
 8004b34:	46bd      	mov	sp, r7
 8004b36:	f85d 7b04 	ldr.w	r7, [sp], #4
 8004b3a:	4770      	bx	lr

08004b3c <LL_GPIO_Init>:
 8004b3c:	b580      	push	{r7, lr}
 8004b3e:	b088      	sub	sp, #32
 8004b40:	af00      	add	r7, sp, #0
 8004b42:	6078      	str	r0, [r7, #4]
 8004b44:	6039      	str	r1, [r7, #0]
 8004b46:	683b      	ldr	r3, [r7, #0]
 8004b48:	681b      	ldr	r3, [r3, #0]
 8004b4a:	613b      	str	r3, [r7, #16]
 8004b4c:	693b      	ldr	r3, [r7, #16]
 8004b4e:	fa93 f3a3 	rbit	r3, r3
 8004b52:	60fb      	str	r3, [r7, #12]
 8004b54:	68fb      	ldr	r3, [r7, #12]
 8004b56:	617b      	str	r3, [r7, #20]
 8004b58:	697b      	ldr	r3, [r7, #20]
 8004b5a:	2b00      	cmp	r3, #0
 8004b5c:	d101      	bne.n	8004b62 <LL_GPIO_Init+0x26>
 8004b5e:	2320      	movs	r3, #32
 8004b60:	e003      	b.n	8004b6a <LL_GPIO_Init+0x2e>
 8004b62:	697b      	ldr	r3, [r7, #20]
 8004b64:	fab3 f383 	clz	r3, r3
 8004b68:	b2db      	uxtb	r3, r3
 8004b6a:	61fb      	str	r3, [r7, #28]
 8004b6c:	e048      	b.n	8004c00 <LL_GPIO_Init+0xc4>
 8004b6e:	683b      	ldr	r3, [r7, #0]
 8004b70:	681a      	ldr	r2, [r3, #0]
 8004b72:	2101      	movs	r1, #1
 8004b74:	69fb      	ldr	r3, [r7, #28]
 8004b76:	fa01 f303 	lsl.w	r3, r1, r3
 8004b7a:	4013      	ands	r3, r2
 8004b7c:	61bb      	str	r3, [r7, #24]
 8004b7e:	69bb      	ldr	r3, [r7, #24]
 8004b80:	2b00      	cmp	r3, #0
 8004b82:	d03a      	beq.n	8004bfa <LL_GPIO_Init+0xbe>
 8004b84:	683b      	ldr	r3, [r7, #0]
 8004b86:	685b      	ldr	r3, [r3, #4]
 8004b88:	2b01      	cmp	r3, #1
 8004b8a:	d003      	beq.n	8004b94 <LL_GPIO_Init+0x58>
 8004b8c:	683b      	ldr	r3, [r7, #0]
 8004b8e:	685b      	ldr	r3, [r3, #4]
 8004b90:	2b02      	cmp	r3, #2
 8004b92:	d10e      	bne.n	8004bb2 <LL_GPIO_Init+0x76>
 8004b94:	683b      	ldr	r3, [r7, #0]
 8004b96:	689b      	ldr	r3, [r3, #8]
 8004b98:	461a      	mov	r2, r3
 8004b9a:	69b9      	ldr	r1, [r7, #24]
 8004b9c:	6878      	ldr	r0, [r7, #4]
 8004b9e:	f7ff fed7 	bl	8004950 <LL_GPIO_SetPinSpeed>
 8004ba2:	683b      	ldr	r3, [r7, #0]
 8004ba4:	6819      	ldr	r1, [r3, #0]
 8004ba6:	683b      	ldr	r3, [r7, #0]
 8004ba8:	68db      	ldr	r3, [r3, #12]
 8004baa:	461a      	mov	r2, r3
 8004bac:	6878      	ldr	r0, [r7, #4]
 8004bae:	f7ff feb7 	bl	8004920 <LL_GPIO_SetPinOutputType>
 8004bb2:	683b      	ldr	r3, [r7, #0]
 8004bb4:	691b      	ldr	r3, [r3, #16]
 8004bb6:	461a      	mov	r2, r3
 8004bb8:	69b9      	ldr	r1, [r7, #24]
 8004bba:	6878      	ldr	r0, [r7, #4]
 8004bbc:	f7ff ff05 	bl	80049ca <LL_GPIO_SetPinPull>
 8004bc0:	683b      	ldr	r3, [r7, #0]
 8004bc2:	685b      	ldr	r3, [r3, #4]
 8004bc4:	2b02      	cmp	r3, #2
 8004bc6:	d111      	bne.n	8004bec <LL_GPIO_Init+0xb0>
 8004bc8:	69bb      	ldr	r3, [r7, #24]
 8004bca:	2bff      	cmp	r3, #255	; 0xff
 8004bcc:	d807      	bhi.n	8004bde <LL_GPIO_Init+0xa2>
 8004bce:	683b      	ldr	r3, [r7, #0]
 8004bd0:	695b      	ldr	r3, [r3, #20]
 8004bd2:	461a      	mov	r2, r3
 8004bd4:	69b9      	ldr	r1, [r7, #24]
 8004bd6:	6878      	ldr	r0, [r7, #4]
 8004bd8:	f7ff ff34 	bl	8004a44 <LL_GPIO_SetAFPin_0_7>
 8004bdc:	e006      	b.n	8004bec <LL_GPIO_Init+0xb0>
 8004bde:	683b      	ldr	r3, [r7, #0]
 8004be0:	695b      	ldr	r3, [r3, #20]
 8004be2:	461a      	mov	r2, r3
 8004be4:	69b9      	ldr	r1, [r7, #24]
 8004be6:	6878      	ldr	r0, [r7, #4]
 8004be8:	f7ff ff69 	bl	8004abe <LL_GPIO_SetAFPin_8_15>
 8004bec:	683b      	ldr	r3, [r7, #0]
 8004bee:	685b      	ldr	r3, [r3, #4]
 8004bf0:	461a      	mov	r2, r3
 8004bf2:	69b9      	ldr	r1, [r7, #24]
 8004bf4:	6878      	ldr	r0, [r7, #4]
 8004bf6:	f7ff fe56 	bl	80048a6 <LL_GPIO_SetPinMode>
 8004bfa:	69fb      	ldr	r3, [r7, #28]
 8004bfc:	3301      	adds	r3, #1
 8004bfe:	61fb      	str	r3, [r7, #28]
 8004c00:	683b      	ldr	r3, [r7, #0]
 8004c02:	681a      	ldr	r2, [r3, #0]
 8004c04:	69fb      	ldr	r3, [r7, #28]
 8004c06:	fa22 f303 	lsr.w	r3, r2, r3
 8004c0a:	2b00      	cmp	r3, #0
 8004c0c:	d1af      	bne.n	8004b6e <LL_GPIO_Init+0x32>
 8004c0e:	2300      	movs	r3, #0
 8004c10:	4618      	mov	r0, r3
 8004c12:	3720      	adds	r7, #32
 8004c14:	46bd      	mov	sp, r7
 8004c16:	bd80      	pop	{r7, pc}

08004c18 <LL_RCC_HSI_IsReady>:
 8004c18:	b480      	push	{r7}
 8004c1a:	af00      	add	r7, sp, #0
 8004c1c:	4b07      	ldr	r3, [pc, #28]	; (8004c3c <LL_RCC_HSI_IsReady+0x24>)
 8004c1e:	681b      	ldr	r3, [r3, #0]
 8004c20:	f403 6380 	and.w	r3, r3, #1024	; 0x400
 8004c24:	f5b3 6f80 	cmp.w	r3, #1024	; 0x400
 8004c28:	d101      	bne.n	8004c2e <LL_RCC_HSI_IsReady+0x16>
 8004c2a:	2301      	movs	r3, #1
 8004c2c:	e000      	b.n	8004c30 <LL_RCC_HSI_IsReady+0x18>
 8004c2e:	2300      	movs	r3, #0
 8004c30:	4618      	mov	r0, r3
 8004c32:	46bd      	mov	sp, r7
 8004c34:	f85d 7b04 	ldr.w	r7, [sp], #4
 8004c38:	4770      	bx	lr
 8004c3a:	bf00      	nop
 8004c3c:	40021000 	.word	0x40021000

08004c40 <LL_RCC_LSE_IsReady>:
 8004c40:	b480      	push	{r7}
 8004c42:	af00      	add	r7, sp, #0
 8004c44:	4b07      	ldr	r3, [pc, #28]	; (8004c64 <LL_RCC_LSE_IsReady+0x24>)
 8004c46:	f8d3 3090 	ldr.w	r3, [r3, #144]	; 0x90
 8004c4a:	f003 0302 	and.w	r3, r3, #2
 8004c4e:	2b02      	cmp	r3, #2
 8004c50:	d101      	bne.n	8004c56 <LL_RCC_LSE_IsReady+0x16>
 8004c52:	2301      	movs	r3, #1
 8004c54:	e000      	b.n	8004c58 <LL_RCC_LSE_IsReady+0x18>
 8004c56:	2300      	movs	r3, #0
 8004c58:	4618      	mov	r0, r3
 8004c5a:	46bd      	mov	sp, r7
 8004c5c:	f85d 7b04 	ldr.w	r7, [sp], #4
 8004c60:	4770      	bx	lr
 8004c62:	bf00      	nop
 8004c64:	40021000 	.word	0x40021000

08004c68 <LL_RCC_MSI_IsEnabledRangeSelect>:
 8004c68:	b480      	push	{r7}
 8004c6a:	af00      	add	r7, sp, #0
 8004c6c:	4b06      	ldr	r3, [pc, #24]	; (8004c88 <LL_RCC_MSI_IsEnabledRangeSelect+0x20>)
 8004c6e:	681b      	ldr	r3, [r3, #0]
 8004c70:	f003 0308 	and.w	r3, r3, #8
 8004c74:	2b08      	cmp	r3, #8
 8004c76:	d101      	bne.n	8004c7c <LL_RCC_MSI_IsEnabledRangeSelect+0x14>
 8004c78:	2301      	movs	r3, #1
 8004c7a:	e000      	b.n	8004c7e <LL_RCC_MSI_IsEnabledRangeSelect+0x16>
 8004c7c:	2300      	movs	r3, #0
 8004c7e:	4618      	mov	r0, r3
 8004c80:	46bd      	mov	sp, r7
 8004c82:	f85d 7b04 	ldr.w	r7, [sp], #4
 8004c86:	4770      	bx	lr
 8004c88:	40021000 	.word	0x40021000

08004c8c <LL_RCC_MSI_GetRange>:
 8004c8c:	b480      	push	{r7}
 8004c8e:	af00      	add	r7, sp, #0
 8004c90:	4b04      	ldr	r3, [pc, #16]	; (8004ca4 <LL_RCC_MSI_GetRange+0x18>)
 8004c92:	681b      	ldr	r3, [r3, #0]
 8004c94:	f003 03f0 	and.w	r3, r3, #240	; 0xf0
 8004c98:	4618      	mov	r0, r3
 8004c9a:	46bd      	mov	sp, r7
 8004c9c:	f85d 7b04 	ldr.w	r7, [sp], #4
 8004ca0:	4770      	bx	lr
 8004ca2:	bf00      	nop
 8004ca4:	40021000 	.word	0x40021000

08004ca8 <LL_RCC_MSI_GetRangeAfterStandby>:
 8004ca8:	b480      	push	{r7}
 8004caa:	af00      	add	r7, sp, #0
 8004cac:	4b04      	ldr	r3, [pc, #16]	; (8004cc0 <LL_RCC_MSI_GetRangeAfterStandby+0x18>)
 8004cae:	f8d3 3094 	ldr.w	r3, [r3, #148]	; 0x94
 8004cb2:	f403 6370 	and.w	r3, r3, #3840	; 0xf00
 8004cb6:	4618      	mov	r0, r3
 8004cb8:	46bd      	mov	sp, r7
 8004cba:	f85d 7b04 	ldr.w	r7, [sp], #4
 8004cbe:	4770      	bx	lr
 8004cc0:	40021000 	.word	0x40021000

08004cc4 <LL_RCC_GetSysClkSource>:
 8004cc4:	b480      	push	{r7}
 8004cc6:	af00      	add	r7, sp, #0
 8004cc8:	4b04      	ldr	r3, [pc, #16]	; (8004cdc <LL_RCC_GetSysClkSource+0x18>)
 8004cca:	689b      	ldr	r3, [r3, #8]
 8004ccc:	f003 030c 	and.w	r3, r3, #12
 8004cd0:	4618      	mov	r0, r3
 8004cd2:	46bd      	mov	sp, r7
 8004cd4:	f85d 7b04 	ldr.w	r7, [sp], #4
 8004cd8:	4770      	bx	lr
 8004cda:	bf00      	nop
 8004cdc:	40021000 	.word	0x40021000

08004ce0 <LL_RCC_GetAHBPrescaler>:
 8004ce0:	b480      	push	{r7}
 8004ce2:	af00      	add	r7, sp, #0
 8004ce4:	4b04      	ldr	r3, [pc, #16]	; (8004cf8 <LL_RCC_GetAHBPrescaler+0x18>)
 8004ce6:	689b      	ldr	r3, [r3, #8]
 8004ce8:	f003 03f0 	and.w	r3, r3, #240	; 0xf0
 8004cec:	4618      	mov	r0, r3
 8004cee:	46bd      	mov	sp, r7
 8004cf0:	f85d 7b04 	ldr.w	r7, [sp], #4
 8004cf4:	4770      	bx	lr
 8004cf6:	bf00      	nop
 8004cf8:	40021000 	.word	0x40021000

08004cfc <LL_RCC_GetAPB1Prescaler>:
 8004cfc:	b480      	push	{r7}
 8004cfe:	af00      	add	r7, sp, #0
 8004d00:	4b04      	ldr	r3, [pc, #16]	; (8004d14 <LL_RCC_GetAPB1Prescaler+0x18>)
 8004d02:	689b      	ldr	r3, [r3, #8]
 8004d04:	f403 63e0 	and.w	r3, r3, #1792	; 0x700
 8004d08:	4618      	mov	r0, r3
 8004d0a:	46bd      	mov	sp, r7
 8004d0c:	f85d 7b04 	ldr.w	r7, [sp], #4
 8004d10:	4770      	bx	lr
 8004d12:	bf00      	nop
 8004d14:	40021000 	.word	0x40021000

08004d18 <LL_RCC_GetAPB2Prescaler>:
 8004d18:	b480      	push	{r7}
 8004d1a:	af00      	add	r7, sp, #0
 8004d1c:	4b04      	ldr	r3, [pc, #16]	; (8004d30 <LL_RCC_GetAPB2Prescaler+0x18>)
 8004d1e:	689b      	ldr	r3, [r3, #8]
 8004d20:	f403 5360 	and.w	r3, r3, #14336	; 0x3800
 8004d24:	4618      	mov	r0, r3
 8004d26:	46bd      	mov	sp, r7
 8004d28:	f85d 7b04 	ldr.w	r7, [sp], #4
 8004d2c:	4770      	bx	lr
 8004d2e:	bf00      	nop
 8004d30:	40021000 	.word	0x40021000

08004d34 <LL_RCC_GetUSARTClockSource>:
 8004d34:	b480      	push	{r7}
 8004d36:	b083      	sub	sp, #12
 8004d38:	af00      	add	r7, sp, #0
 8004d3a:	6078      	str	r0, [r7, #4]
 8004d3c:	4b06      	ldr	r3, [pc, #24]	; (8004d58 <LL_RCC_GetUSARTClockSource+0x24>)
 8004d3e:	f8d3 2088 	ldr.w	r2, [r3, #136]	; 0x88
 8004d42:	687b      	ldr	r3, [r7, #4]
 8004d44:	401a      	ands	r2, r3
 8004d46:	687b      	ldr	r3, [r7, #4]
 8004d48:	041b      	lsls	r3, r3, #16
 8004d4a:	4313      	orrs	r3, r2
 8004d4c:	4618      	mov	r0, r3
 8004d4e:	370c      	adds	r7, #12
 8004d50:	46bd      	mov	sp, r7
 8004d52:	f85d 7b04 	ldr.w	r7, [sp], #4
 8004d56:	4770      	bx	lr
 8004d58:	40021000 	.word	0x40021000

08004d5c <LL_RCC_GetUARTClockSource>:
 8004d5c:	b480      	push	{r7}
 8004d5e:	b083      	sub	sp, #12
 8004d60:	af00      	add	r7, sp, #0
 8004d62:	6078      	str	r0, [r7, #4]
 8004d64:	4b06      	ldr	r3, [pc, #24]	; (8004d80 <LL_RCC_GetUARTClockSource+0x24>)
 8004d66:	f8d3 2088 	ldr.w	r2, [r3, #136]	; 0x88
 8004d6a:	687b      	ldr	r3, [r7, #4]
 8004d6c:	401a      	ands	r2, r3
 8004d6e:	687b      	ldr	r3, [r7, #4]
 8004d70:	041b      	lsls	r3, r3, #16
 8004d72:	4313      	orrs	r3, r2
 8004d74:	4618      	mov	r0, r3
 8004d76:	370c      	adds	r7, #12
 8004d78:	46bd      	mov	sp, r7
 8004d7a:	f85d 7b04 	ldr.w	r7, [sp], #4
 8004d7e:	4770      	bx	lr
 8004d80:	40021000 	.word	0x40021000

08004d84 <LL_RCC_PLL_GetMainSource>:
 8004d84:	b480      	push	{r7}
 8004d86:	af00      	add	r7, sp, #0
 8004d88:	4b04      	ldr	r3, [pc, #16]	; (8004d9c <LL_RCC_PLL_GetMainSource+0x18>)
 8004d8a:	68db      	ldr	r3, [r3, #12]
 8004d8c:	f003 0303 	and.w	r3, r3, #3
 8004d90:	4618      	mov	r0, r3
 8004d92:	46bd      	mov	sp, r7
 8004d94:	f85d 7b04 	ldr.w	r7, [sp], #4
 8004d98:	4770      	bx	lr
 8004d9a:	bf00      	nop
 8004d9c:	40021000 	.word	0x40021000

08004da0 <LL_RCC_PLL_GetN>:
 8004da0:	b480      	push	{r7}
 8004da2:	af00      	add	r7, sp, #0
 8004da4:	4b04      	ldr	r3, [pc, #16]	; (8004db8 <LL_RCC_PLL_GetN+0x18>)
 8004da6:	68db      	ldr	r3, [r3, #12]
 8004da8:	0a1b      	lsrs	r3, r3, #8
 8004daa:	f003 037f 	and.w	r3, r3, #127	; 0x7f
 8004dae:	4618      	mov	r0, r3
 8004db0:	46bd      	mov	sp, r7
 8004db2:	f85d 7b04 	ldr.w	r7, [sp], #4
 8004db6:	4770      	bx	lr
 8004db8:	40021000 	.word	0x40021000

08004dbc <LL_RCC_PLL_GetR>:
 8004dbc:	b480      	push	{r7}
 8004dbe:	af00      	add	r7, sp, #0
 8004dc0:	4b04      	ldr	r3, [pc, #16]	; (8004dd4 <LL_RCC_PLL_GetR+0x18>)
 8004dc2:	68db      	ldr	r3, [r3, #12]
 8004dc4:	f003 63c0 	and.w	r3, r3, #100663296	; 0x6000000
 8004dc8:	4618      	mov	r0, r3
 8004dca:	46bd      	mov	sp, r7
 8004dcc:	f85d 7b04 	ldr.w	r7, [sp], #4
 8004dd0:	4770      	bx	lr
 8004dd2:	bf00      	nop
 8004dd4:	40021000 	.word	0x40021000

08004dd8 <LL_RCC_PLL_GetDivider>:
 8004dd8:	b480      	push	{r7}
 8004dda:	af00      	add	r7, sp, #0
 8004ddc:	4b04      	ldr	r3, [pc, #16]	; (8004df0 <LL_RCC_PLL_GetDivider+0x18>)
 8004dde:	68db      	ldr	r3, [r3, #12]
 8004de0:	f003 0370 	and.w	r3, r3, #112	; 0x70
 8004de4:	4618      	mov	r0, r3
 8004de6:	46bd      	mov	sp, r7
 8004de8:	f85d 7b04 	ldr.w	r7, [sp], #4
 8004dec:	4770      	bx	lr
 8004dee:	bf00      	nop
 8004df0:	40021000 	.word	0x40021000

08004df4 <LL_RCC_GetUSARTClockFreq>:
 8004df4:	b580      	push	{r7, lr}
 8004df6:	b084      	sub	sp, #16
 8004df8:	af00      	add	r7, sp, #0
 8004dfa:	6078      	str	r0, [r7, #4]
 8004dfc:	2300      	movs	r3, #0
 8004dfe:	60fb      	str	r3, [r7, #12]
 8004e00:	687b      	ldr	r3, [r7, #4]
 8004e02:	2b03      	cmp	r3, #3
 8004e04:	d137      	bne.n	8004e76 <LL_RCC_GetUSARTClockFreq+0x82>
 8004e06:	6878      	ldr	r0, [r7, #4]
 8004e08:	f7ff ff94 	bl	8004d34 <LL_RCC_GetUSARTClockSource>
 8004e0c:	4603      	mov	r3, r0
 8004e0e:	f5a3 3340 	sub.w	r3, r3, #196608	; 0x30000
 8004e12:	2b03      	cmp	r3, #3
 8004e14:	f200 80b3 	bhi.w	8004f7e <LL_RCC_GetUSARTClockFreq+0x18a>
 8004e18:	a201      	add	r2, pc, #4	; (adr r2, 8004e20 <LL_RCC_GetUSARTClockFreq+0x2c>)
 8004e1a:	f852 f023 	ldr.w	pc, [r2, r3, lsl #2]
 8004e1e:	bf00      	nop
 8004e20:	08004e5f 	.word	0x08004e5f
 8004e24:	08004e31 	.word	0x08004e31
 8004e28:	08004e39 	.word	0x08004e39
 8004e2c:	08004e4b 	.word	0x08004e4b
 8004e30:	f000 f95c 	bl	80050ec <RCC_GetSystemClockFreq>
 8004e34:	60f8      	str	r0, [r7, #12]
 8004e36:	e0b5      	b.n	8004fa4 <LL_RCC_GetUSARTClockFreq+0x1b0>
 8004e38:	f7ff feee 	bl	8004c18 <LL_RCC_HSI_IsReady>
 8004e3c:	4603      	mov	r3, r0
 8004e3e:	2b00      	cmp	r3, #0
 8004e40:	f000 809f 	beq.w	8004f82 <LL_RCC_GetUSARTClockFreq+0x18e>
 8004e44:	4b5a      	ldr	r3, [pc, #360]	; (8004fb0 <LL_RCC_GetUSARTClockFreq+0x1bc>)
 8004e46:	60fb      	str	r3, [r7, #12]
 8004e48:	e09b      	b.n	8004f82 <LL_RCC_GetUSARTClockFreq+0x18e>
 8004e4a:	f7ff fef9 	bl	8004c40 <LL_RCC_LSE_IsReady>
 8004e4e:	4603      	mov	r3, r0
 8004e50:	2b00      	cmp	r3, #0
 8004e52:	f000 8098 	beq.w	8004f86 <LL_RCC_GetUSARTClockFreq+0x192>
 8004e56:	f44f 4300 	mov.w	r3, #32768	; 0x8000
 8004e5a:	60fb      	str	r3, [r7, #12]
 8004e5c:	e093      	b.n	8004f86 <LL_RCC_GetUSARTClockFreq+0x192>
 8004e5e:	f000 f945 	bl	80050ec <RCC_GetSystemClockFreq>
 8004e62:	4603      	mov	r3, r0
 8004e64:	4618      	mov	r0, r3
 8004e66:	f000 f9d1 	bl	800520c <RCC_GetHCLKClockFreq>
 8004e6a:	4603      	mov	r3, r0
 8004e6c:	4618      	mov	r0, r3
 8004e6e:	f000 f9f7 	bl	8005260 <RCC_GetPCLK2ClockFreq>
 8004e72:	60f8      	str	r0, [r7, #12]
 8004e74:	e096      	b.n	8004fa4 <LL_RCC_GetUSARTClockFreq+0x1b0>
 8004e76:	687b      	ldr	r3, [r7, #4]
 8004e78:	2b0c      	cmp	r3, #12
 8004e7a:	d146      	bne.n	8004f0a <LL_RCC_GetUSARTClockFreq+0x116>
 8004e7c:	6878      	ldr	r0, [r7, #4]
 8004e7e:	f7ff ff59 	bl	8004d34 <LL_RCC_GetUSARTClockSource>
 8004e82:	4603      	mov	r3, r0
 8004e84:	f5a3 2340 	sub.w	r3, r3, #786432	; 0xc0000
 8004e88:	2b0c      	cmp	r3, #12
 8004e8a:	d87e      	bhi.n	8004f8a <LL_RCC_GetUSARTClockFreq+0x196>
 8004e8c:	a201      	add	r2, pc, #4	; (adr r2, 8004e94 <LL_RCC_GetUSARTClockFreq+0xa0>)
 8004e8e:	f852 f023 	ldr.w	pc, [r2, r3, lsl #2]
 8004e92:	bf00      	nop
 8004e94:	08004ef3 	.word	0x08004ef3
 8004e98:	08004f8b 	.word	0x08004f8b
 8004e9c:	08004f8b 	.word	0x08004f8b
 8004ea0:	08004f8b 	.word	0x08004f8b
 8004ea4:	08004ec9 	.word	0x08004ec9
 8004ea8:	08004f8b 	.word	0x08004f8b
 8004eac:	08004f8b 	.word	0x08004f8b
 8004eb0:	08004f8b 	.word	0x08004f8b
 8004eb4:	08004ed1 	.word	0x08004ed1
 8004eb8:	08004f8b 	.word	0x08004f8b
 8004ebc:	08004f8b 	.word	0x08004f8b
 8004ec0:	08004f8b 	.word	0x08004f8b
 8004ec4:	08004ee1 	.word	0x08004ee1
 8004ec8:	f000 f910 	bl	80050ec <RCC_GetSystemClockFreq>
 8004ecc:	60f8      	str	r0, [r7, #12]
 8004ece:	e069      	b.n	8004fa4 <LL_RCC_GetUSARTClockFreq+0x1b0>
 8004ed0:	f7ff fea2 	bl	8004c18 <LL_RCC_HSI_IsReady>
 8004ed4:	4603      	mov	r3, r0
 8004ed6:	2b00      	cmp	r3, #0
 8004ed8:	d059      	beq.n	8004f8e <LL_RCC_GetUSARTClockFreq+0x19a>
 8004eda:	4b35      	ldr	r3, [pc, #212]	; (8004fb0 <LL_RCC_GetUSARTClockFreq+0x1bc>)
 8004edc:	60fb      	str	r3, [r7, #12]
 8004ede:	e056      	b.n	8004f8e <LL_RCC_GetUSARTClockFreq+0x19a>
 8004ee0:	f7ff feae 	bl	8004c40 <LL_RCC_LSE_IsReady>
 8004ee4:	4603      	mov	r3, r0
 8004ee6:	2b00      	cmp	r3, #0
 8004ee8:	d053      	beq.n	8004f92 <LL_RCC_GetUSARTClockFreq+0x19e>
 8004eea:	f44f 4300 	mov.w	r3, #32768	; 0x8000
 8004eee:	60fb      	str	r3, [r7, #12]
 8004ef0:	e04f      	b.n	8004f92 <LL_RCC_GetUSARTClockFreq+0x19e>
 8004ef2:	f000 f8fb 	bl	80050ec <RCC_GetSystemClockFreq>
 8004ef6:	4603      	mov	r3, r0
 8004ef8:	4618      	mov	r0, r3
 8004efa:	f000 f987 	bl	800520c <RCC_GetHCLKClockFreq>
 8004efe:	4603      	mov	r3, r0
 8004f00:	4618      	mov	r0, r3
 8004f02:	f000 f999 	bl	8005238 <RCC_GetPCLK1ClockFreq>
 8004f06:	60f8      	str	r0, [r7, #12]
 8004f08:	e04c      	b.n	8004fa4 <LL_RCC_GetUSARTClockFreq+0x1b0>
 8004f0a:	687b      	ldr	r3, [r7, #4]
 8004f0c:	2b30      	cmp	r3, #48	; 0x30
 8004f0e:	d142      	bne.n	8004f96 <LL_RCC_GetUSARTClockFreq+0x1a2>
 8004f10:	6878      	ldr	r0, [r7, #4]
 8004f12:	f7ff ff0f 	bl	8004d34 <LL_RCC_GetUSARTClockSource>
 8004f16:	4603      	mov	r3, r0
 8004f18:	f1b3 1f30 	cmp.w	r3, #3145776	; 0x300030
 8004f1c:	d01a      	beq.n	8004f54 <LL_RCC_GetUSARTClockFreq+0x160>
 8004f1e:	f1b3 1f30 	cmp.w	r3, #3145776	; 0x300030
 8004f22:	d83a      	bhi.n	8004f9a <LL_RCC_GetUSARTClockFreq+0x1a6>
 8004f24:	4a23      	ldr	r2, [pc, #140]	; (8004fb4 <LL_RCC_GetUSARTClockFreq+0x1c0>)
 8004f26:	4293      	cmp	r3, r2
 8004f28:	d00c      	beq.n	8004f44 <LL_RCC_GetUSARTClockFreq+0x150>
 8004f2a:	4a22      	ldr	r2, [pc, #136]	; (8004fb4 <LL_RCC_GetUSARTClockFreq+0x1c0>)
 8004f2c:	4293      	cmp	r3, r2
 8004f2e:	d834      	bhi.n	8004f9a <LL_RCC_GetUSARTClockFreq+0x1a6>
 8004f30:	f5b3 1f40 	cmp.w	r3, #3145728	; 0x300000
 8004f34:	d017      	beq.n	8004f66 <LL_RCC_GetUSARTClockFreq+0x172>
 8004f36:	4a20      	ldr	r2, [pc, #128]	; (8004fb8 <LL_RCC_GetUSARTClockFreq+0x1c4>)
 8004f38:	4293      	cmp	r3, r2
 8004f3a:	d12e      	bne.n	8004f9a <LL_RCC_GetUSARTClockFreq+0x1a6>
 8004f3c:	f000 f8d6 	bl	80050ec <RCC_GetSystemClockFreq>
 8004f40:	60f8      	str	r0, [r7, #12]
 8004f42:	e02f      	b.n	8004fa4 <LL_RCC_GetUSARTClockFreq+0x1b0>
 8004f44:	f7ff fe68 	bl	8004c18 <LL_RCC_HSI_IsReady>
 8004f48:	4603      	mov	r3, r0
 8004f4a:	2b00      	cmp	r3, #0
 8004f4c:	d027      	beq.n	8004f9e <LL_RCC_GetUSARTClockFreq+0x1aa>
 8004f4e:	4b18      	ldr	r3, [pc, #96]	; (8004fb0 <LL_RCC_GetUSARTClockFreq+0x1bc>)
 8004f50:	60fb      	str	r3, [r7, #12]
 8004f52:	e024      	b.n	8004f9e <LL_RCC_GetUSARTClockFreq+0x1aa>
 8004f54:	f7ff fe74 	bl	8004c40 <LL_RCC_LSE_IsReady>
 8004f58:	4603      	mov	r3, r0
 8004f5a:	2b00      	cmp	r3, #0
 8004f5c:	d021      	beq.n	8004fa2 <LL_RCC_GetUSARTClockFreq+0x1ae>
 8004f5e:	f44f 4300 	mov.w	r3, #32768	; 0x8000
 8004f62:	60fb      	str	r3, [r7, #12]
 8004f64:	e01d      	b.n	8004fa2 <LL_RCC_GetUSARTClockFreq+0x1ae>
 8004f66:	f000 f8c1 	bl	80050ec <RCC_GetSystemClockFreq>
 8004f6a:	4603      	mov	r3, r0
 8004f6c:	4618      	mov	r0, r3
 8004f6e:	f000 f94d 	bl	800520c <RCC_GetHCLKClockFreq>
 8004f72:	4603      	mov	r3, r0
 8004f74:	4618      	mov	r0, r3
 8004f76:	f000 f95f 	bl	8005238 <RCC_GetPCLK1ClockFreq>
 8004f7a:	60f8      	str	r0, [r7, #12]
 8004f7c:	e012      	b.n	8004fa4 <LL_RCC_GetUSARTClockFreq+0x1b0>
 8004f7e:	bf00      	nop
 8004f80:	e010      	b.n	8004fa4 <LL_RCC_GetUSARTClockFreq+0x1b0>
 8004f82:	bf00      	nop
 8004f84:	e00e      	b.n	8004fa4 <LL_RCC_GetUSARTClockFreq+0x1b0>
 8004f86:	bf00      	nop
 8004f88:	e00c      	b.n	8004fa4 <LL_RCC_GetUSARTClockFreq+0x1b0>
 8004f8a:	bf00      	nop
 8004f8c:	e00a      	b.n	8004fa4 <LL_RCC_GetUSARTClockFreq+0x1b0>
 8004f8e:	bf00      	nop
 8004f90:	e008      	b.n	8004fa4 <LL_RCC_GetUSARTClockFreq+0x1b0>
 8004f92:	bf00      	nop
 8004f94:	e006      	b.n	8004fa4 <LL_RCC_GetUSARTClockFreq+0x1b0>
 8004f96:	bf00      	nop
 8004f98:	e004      	b.n	8004fa4 <LL_RCC_GetUSARTClockFreq+0x1b0>
 8004f9a:	bf00      	nop
 8004f9c:	e002      	b.n	8004fa4 <LL_RCC_GetUSARTClockFreq+0x1b0>
 8004f9e:	bf00      	nop
 8004fa0:	e000      	b.n	8004fa4 <LL_RCC_GetUSARTClockFreq+0x1b0>
 8004fa2:	bf00      	nop
 8004fa4:	68fb      	ldr	r3, [r7, #12]
 8004fa6:	4618      	mov	r0, r3
 8004fa8:	3710      	adds	r7, #16
 8004faa:	46bd      	mov	sp, r7
 8004fac:	bd80      	pop	{r7, pc}
 8004fae:	bf00      	nop
 8004fb0:	00f42400 	.word	0x00f42400
 8004fb4:	00300020 	.word	0x00300020
 8004fb8:	00300010 	.word	0x00300010

08004fbc <LL_RCC_GetUARTClockFreq>:
 8004fbc:	b580      	push	{r7, lr}
 8004fbe:	b084      	sub	sp, #16
 8004fc0:	af00      	add	r7, sp, #0
 8004fc2:	6078      	str	r0, [r7, #4]
 8004fc4:	2300      	movs	r3, #0
 8004fc6:	60fb      	str	r3, [r7, #12]
 8004fc8:	687b      	ldr	r3, [r7, #4]
 8004fca:	2bc0      	cmp	r3, #192	; 0xc0
 8004fcc:	d136      	bne.n	800503c <LL_RCC_GetUARTClockFreq+0x80>
 8004fce:	6878      	ldr	r0, [r7, #4]
 8004fd0:	f7ff fec4 	bl	8004d5c <LL_RCC_GetUARTClockSource>
 8004fd4:	4603      	mov	r3, r0
 8004fd6:	f1b3 1fc0 	cmp.w	r3, #12583104	; 0xc000c0
 8004fda:	d01a      	beq.n	8005012 <LL_RCC_GetUARTClockFreq+0x56>
 8004fdc:	f1b3 1fc0 	cmp.w	r3, #12583104	; 0xc000c0
 8004fe0:	d82e      	bhi.n	8005040 <LL_RCC_GetUARTClockFreq+0x84>
 8004fe2:	4a3d      	ldr	r2, [pc, #244]	; (80050d8 <LL_RCC_GetUARTClockFreq+0x11c>)
 8004fe4:	4293      	cmp	r3, r2
 8004fe6:	d00c      	beq.n	8005002 <LL_RCC_GetUARTClockFreq+0x46>
 8004fe8:	4a3b      	ldr	r2, [pc, #236]	; (80050d8 <LL_RCC_GetUARTClockFreq+0x11c>)
 8004fea:	4293      	cmp	r3, r2
 8004fec:	d828      	bhi.n	8005040 <LL_RCC_GetUARTClockFreq+0x84>
 8004fee:	f5b3 0f40 	cmp.w	r3, #12582912	; 0xc00000
 8004ff2:	d017      	beq.n	8005024 <LL_RCC_GetUARTClockFreq+0x68>
 8004ff4:	4a39      	ldr	r2, [pc, #228]	; (80050dc <LL_RCC_GetUARTClockFreq+0x120>)
 8004ff6:	4293      	cmp	r3, r2
 8004ff8:	d122      	bne.n	8005040 <LL_RCC_GetUARTClockFreq+0x84>
 8004ffa:	f000 f877 	bl	80050ec <RCC_GetSystemClockFreq>
 8004ffe:	60f8      	str	r0, [r7, #12]
 8005000:	e023      	b.n	800504a <LL_RCC_GetUARTClockFreq+0x8e>
 8005002:	f7ff fe09 	bl	8004c18 <LL_RCC_HSI_IsReady>
 8005006:	4603      	mov	r3, r0
 8005008:	2b00      	cmp	r3, #0
 800500a:	d01b      	beq.n	8005044 <LL_RCC_GetUARTClockFreq+0x88>
 800500c:	4b34      	ldr	r3, [pc, #208]	; (80050e0 <LL_RCC_GetUARTClockFreq+0x124>)
 800500e:	60fb      	str	r3, [r7, #12]
 8005010:	e018      	b.n	8005044 <LL_RCC_GetUARTClockFreq+0x88>
 8005012:	f7ff fe15 	bl	8004c40 <LL_RCC_LSE_IsReady>
 8005016:	4603      	mov	r3, r0
 8005018:	2b00      	cmp	r3, #0
 800501a:	d015      	beq.n	8005048 <LL_RCC_GetUARTClockFreq+0x8c>
 800501c:	f44f 4300 	mov.w	r3, #32768	; 0x8000
 8005020:	60fb      	str	r3, [r7, #12]
 8005022:	e011      	b.n	8005048 <LL_RCC_GetUARTClockFreq+0x8c>
 8005024:	f000 f862 	bl	80050ec <RCC_GetSystemClockFreq>
 8005028:	4603      	mov	r3, r0
 800502a:	4618      	mov	r0, r3
 800502c:	f000 f8ee 	bl	800520c <RCC_GetHCLKClockFreq>
 8005030:	4603      	mov	r3, r0
 8005032:	4618      	mov	r0, r3
 8005034:	f000 f900 	bl	8005238 <RCC_GetPCLK1ClockFreq>
 8005038:	60f8      	str	r0, [r7, #12]
 800503a:	e006      	b.n	800504a <LL_RCC_GetUARTClockFreq+0x8e>
 800503c:	bf00      	nop
 800503e:	e004      	b.n	800504a <LL_RCC_GetUARTClockFreq+0x8e>
 8005040:	bf00      	nop
 8005042:	e002      	b.n	800504a <LL_RCC_GetUARTClockFreq+0x8e>
 8005044:	bf00      	nop
 8005046:	e000      	b.n	800504a <LL_RCC_GetUARTClockFreq+0x8e>
 8005048:	bf00      	nop
 800504a:	687b      	ldr	r3, [r7, #4]
 800504c:	f5b3 7f40 	cmp.w	r3, #768	; 0x300
 8005050:	d136      	bne.n	80050c0 <LL_RCC_GetUARTClockFreq+0x104>
 8005052:	6878      	ldr	r0, [r7, #4]
 8005054:	f7ff fe82 	bl	8004d5c <LL_RCC_GetUARTClockSource>
 8005058:	4603      	mov	r3, r0
 800505a:	f1b3 2f03 	cmp.w	r3, #50332416	; 0x3000300
 800505e:	d01a      	beq.n	8005096 <LL_RCC_GetUARTClockFreq+0xda>
 8005060:	f1b3 2f03 	cmp.w	r3, #50332416	; 0x3000300
 8005064:	d82e      	bhi.n	80050c4 <LL_RCC_GetUARTClockFreq+0x108>
 8005066:	4a1f      	ldr	r2, [pc, #124]	; (80050e4 <LL_RCC_GetUARTClockFreq+0x128>)
 8005068:	4293      	cmp	r3, r2
 800506a:	d00c      	beq.n	8005086 <LL_RCC_GetUARTClockFreq+0xca>
 800506c:	4a1d      	ldr	r2, [pc, #116]	; (80050e4 <LL_RCC_GetUARTClockFreq+0x128>)
 800506e:	4293      	cmp	r3, r2
 8005070:	d828      	bhi.n	80050c4 <LL_RCC_GetUARTClockFreq+0x108>
 8005072:	f1b3 7f40 	cmp.w	r3, #50331648	; 0x3000000
 8005076:	d017      	beq.n	80050a8 <LL_RCC_GetUARTClockFreq+0xec>
 8005078:	4a1b      	ldr	r2, [pc, #108]	; (80050e8 <LL_RCC_GetUARTClockFreq+0x12c>)
 800507a:	4293      	cmp	r3, r2
 800507c:	d122      	bne.n	80050c4 <LL_RCC_GetUARTClockFreq+0x108>
 800507e:	f000 f835 	bl	80050ec <RCC_GetSystemClockFreq>
 8005082:	60f8      	str	r0, [r7, #12]
 8005084:	e023      	b.n	80050ce <LL_RCC_GetUARTClockFreq+0x112>
 8005086:	f7ff fdc7 	bl	8004c18 <LL_RCC_HSI_IsReady>
 800508a:	4603      	mov	r3, r0
 800508c:	2b00      	cmp	r3, #0
 800508e:	d01b      	beq.n	80050c8 <LL_RCC_GetUARTClockFreq+0x10c>
 8005090:	4b13      	ldr	r3, [pc, #76]	; (80050e0 <LL_RCC_GetUARTClockFreq+0x124>)
 8005092:	60fb      	str	r3, [r7, #12]
 8005094:	e018      	b.n	80050c8 <LL_RCC_GetUARTClockFreq+0x10c>
 8005096:	f7ff fdd3 	bl	8004c40 <LL_RCC_LSE_IsReady>
 800509a:	4603      	mov	r3, r0
 800509c:	2b00      	cmp	r3, #0
 800509e:	d015      	beq.n	80050cc <LL_RCC_GetUARTClockFreq+0x110>
 80050a0:	f44f 4300 	mov.w	r3, #32768	; 0x8000
 80050a4:	60fb      	str	r3, [r7, #12]
 80050a6:	e011      	b.n	80050cc <LL_RCC_GetUARTClockFreq+0x110>
 80050a8:	f000 f820 	bl	80050ec <RCC_GetSystemClockFreq>
 80050ac:	4603      	mov	r3, r0
 80050ae:	4618      	mov	r0, r3
 80050b0:	f000 f8ac 	bl	800520c <RCC_GetHCLKClockFreq>
 80050b4:	4603      	mov	r3, r0
 80050b6:	4618      	mov	r0, r3
 80050b8:	f000 f8be 	bl	8005238 <RCC_GetPCLK1ClockFreq>
 80050bc:	60f8      	str	r0, [r7, #12]
 80050be:	e006      	b.n	80050ce <LL_RCC_GetUARTClockFreq+0x112>
 80050c0:	bf00      	nop
 80050c2:	e004      	b.n	80050ce <LL_RCC_GetUARTClockFreq+0x112>
 80050c4:	bf00      	nop
 80050c6:	e002      	b.n	80050ce <LL_RCC_GetUARTClockFreq+0x112>
 80050c8:	bf00      	nop
 80050ca:	e000      	b.n	80050ce <LL_RCC_GetUARTClockFreq+0x112>
 80050cc:	bf00      	nop
 80050ce:	68fb      	ldr	r3, [r7, #12]
 80050d0:	4618      	mov	r0, r3
 80050d2:	3710      	adds	r7, #16
 80050d4:	46bd      	mov	sp, r7
 80050d6:	bd80      	pop	{r7, pc}
 80050d8:	00c00080 	.word	0x00c00080
 80050dc:	00c00040 	.word	0x00c00040
 80050e0:	00f42400 	.word	0x00f42400
 80050e4:	03000200 	.word	0x03000200
 80050e8:	03000100 	.word	0x03000100

080050ec <RCC_GetSystemClockFreq>:
 80050ec:	b580      	push	{r7, lr}
 80050ee:	b082      	sub	sp, #8
 80050f0:	af00      	add	r7, sp, #0
 80050f2:	f7ff fde7 	bl	8004cc4 <LL_RCC_GetSysClkSource>
 80050f6:	4603      	mov	r3, r0
 80050f8:	2b0c      	cmp	r3, #12
 80050fa:	d851      	bhi.n	80051a0 <RCC_GetSystemClockFreq+0xb4>
 80050fc:	a201      	add	r2, pc, #4	; (adr r2, 8005104 <RCC_GetSystemClockFreq+0x18>)
 80050fe:	f852 f023 	ldr.w	pc, [r2, r3, lsl #2]
 8005102:	bf00      	nop
 8005104:	08005139 	.word	0x08005139
 8005108:	080051a1 	.word	0x080051a1
 800510c:	080051a1 	.word	0x080051a1
 8005110:	080051a1 	.word	0x080051a1
 8005114:	0800518d 	.word	0x0800518d
 8005118:	080051a1 	.word	0x080051a1
 800511c:	080051a1 	.word	0x080051a1
 8005120:	080051a1 	.word	0x080051a1
 8005124:	08005193 	.word	0x08005193
 8005128:	080051a1 	.word	0x080051a1
 800512c:	080051a1 	.word	0x080051a1
 8005130:	080051a1 	.word	0x080051a1
 8005134:	08005199 	.word	0x08005199
 8005138:	f7ff fd96 	bl	8004c68 <LL_RCC_MSI_IsEnabledRangeSelect>
 800513c:	4603      	mov	r3, r0
 800513e:	2b00      	cmp	r3, #0
 8005140:	d111      	bne.n	8005166 <RCC_GetSystemClockFreq+0x7a>
 8005142:	f7ff fd91 	bl	8004c68 <LL_RCC_MSI_IsEnabledRangeSelect>
 8005146:	4603      	mov	r3, r0
 8005148:	2b00      	cmp	r3, #0
 800514a:	d004      	beq.n	8005156 <RCC_GetSystemClockFreq+0x6a>
 800514c:	f7ff fd9e 	bl	8004c8c <LL_RCC_MSI_GetRange>
 8005150:	4603      	mov	r3, r0
 8005152:	0a1b      	lsrs	r3, r3, #8
 8005154:	e003      	b.n	800515e <RCC_GetSystemClockFreq+0x72>
 8005156:	f7ff fda7 	bl	8004ca8 <LL_RCC_MSI_GetRangeAfterStandby>
 800515a:	4603      	mov	r3, r0
 800515c:	0a1b      	lsrs	r3, r3, #8
 800515e:	4a28      	ldr	r2, [pc, #160]	; (8005200 <RCC_GetSystemClockFreq+0x114>)
 8005160:	f852 3023 	ldr.w	r3, [r2, r3, lsl #2]
 8005164:	e010      	b.n	8005188 <RCC_GetSystemClockFreq+0x9c>
 8005166:	f7ff fd7f 	bl	8004c68 <LL_RCC_MSI_IsEnabledRangeSelect>
 800516a:	4603      	mov	r3, r0
 800516c:	2b00      	cmp	r3, #0
 800516e:	d004      	beq.n	800517a <RCC_GetSystemClockFreq+0x8e>
 8005170:	f7ff fd8c 	bl	8004c8c <LL_RCC_MSI_GetRange>
 8005174:	4603      	mov	r3, r0
 8005176:	091b      	lsrs	r3, r3, #4
 8005178:	e003      	b.n	8005182 <RCC_GetSystemClockFreq+0x96>
 800517a:	f7ff fd95 	bl	8004ca8 <LL_RCC_MSI_GetRangeAfterStandby>
 800517e:	4603      	mov	r3, r0
 8005180:	091b      	lsrs	r3, r3, #4
 8005182:	4a1f      	ldr	r2, [pc, #124]	; (8005200 <RCC_GetSystemClockFreq+0x114>)
 8005184:	f852 3023 	ldr.w	r3, [r2, r3, lsl #2]
 8005188:	607b      	str	r3, [r7, #4]
 800518a:	e033      	b.n	80051f4 <RCC_GetSystemClockFreq+0x108>
 800518c:	4b1d      	ldr	r3, [pc, #116]	; (8005204 <RCC_GetSystemClockFreq+0x118>)
 800518e:	607b      	str	r3, [r7, #4]
 8005190:	e030      	b.n	80051f4 <RCC_GetSystemClockFreq+0x108>
 8005192:	4b1d      	ldr	r3, [pc, #116]	; (8005208 <RCC_GetSystemClockFreq+0x11c>)
 8005194:	607b      	str	r3, [r7, #4]
 8005196:	e02d      	b.n	80051f4 <RCC_GetSystemClockFreq+0x108>
 8005198:	f000 f876 	bl	8005288 <RCC_PLL_GetFreqDomain_SYS>
 800519c:	6078      	str	r0, [r7, #4]
 800519e:	e029      	b.n	80051f4 <RCC_GetSystemClockFreq+0x108>
 80051a0:	f7ff fd62 	bl	8004c68 <LL_RCC_MSI_IsEnabledRangeSelect>
 80051a4:	4603      	mov	r3, r0
 80051a6:	2b00      	cmp	r3, #0
 80051a8:	d111      	bne.n	80051ce <RCC_GetSystemClockFreq+0xe2>
 80051aa:	f7ff fd5d 	bl	8004c68 <LL_RCC_MSI_IsEnabledRangeSelect>
 80051ae:	4603      	mov	r3, r0
 80051b0:	2b00      	cmp	r3, #0
 80051b2:	d004      	beq.n	80051be <RCC_GetSystemClockFreq+0xd2>
 80051b4:	f7ff fd6a 	bl	8004c8c <LL_RCC_MSI_GetRange>
 80051b8:	4603      	mov	r3, r0
 80051ba:	0a1b      	lsrs	r3, r3, #8
 80051bc:	e003      	b.n	80051c6 <RCC_GetSystemClockFreq+0xda>
 80051be:	f7ff fd73 	bl	8004ca8 <LL_RCC_MSI_GetRangeAfterStandby>
 80051c2:	4603      	mov	r3, r0
 80051c4:	0a1b      	lsrs	r3, r3, #8
 80051c6:	4a0e      	ldr	r2, [pc, #56]	; (8005200 <RCC_GetSystemClockFreq+0x114>)
 80051c8:	f852 3023 	ldr.w	r3, [r2, r3, lsl #2]
 80051cc:	e010      	b.n	80051f0 <RCC_GetSystemClockFreq+0x104>
 80051ce:	f7ff fd4b 	bl	8004c68 <LL_RCC_MSI_IsEnabledRangeSelect>
 80051d2:	4603      	mov	r3, r0
 80051d4:	2b00      	cmp	r3, #0
 80051d6:	d004      	beq.n	80051e2 <RCC_GetSystemClockFreq+0xf6>
 80051d8:	f7ff fd58 	bl	8004c8c <LL_RCC_MSI_GetRange>
 80051dc:	4603      	mov	r3, r0
 80051de:	091b      	lsrs	r3, r3, #4
 80051e0:	e003      	b.n	80051ea <RCC_GetSystemClockFreq+0xfe>
 80051e2:	f7ff fd61 	bl	8004ca8 <LL_RCC_MSI_GetRangeAfterStandby>
 80051e6:	4603      	mov	r3, r0
 80051e8:	091b      	lsrs	r3, r3, #4
 80051ea:	4a05      	ldr	r2, [pc, #20]	; (8005200 <RCC_GetSystemClockFreq+0x114>)
 80051ec:	f852 3023 	ldr.w	r3, [r2, r3, lsl #2]
 80051f0:	607b      	str	r3, [r7, #4]
 80051f2:	bf00      	nop
 80051f4:	687b      	ldr	r3, [r7, #4]
 80051f6:	4618      	mov	r0, r3
 80051f8:	3708      	adds	r7, #8
 80051fa:	46bd      	mov	sp, r7
 80051fc:	bd80      	pop	{r7, pc}
 80051fe:	bf00      	nop
 8005200:	080069d8 	.word	0x080069d8
 8005204:	00f42400 	.word	0x00f42400
 8005208:	007a1200 	.word	0x007a1200

0800520c <RCC_GetHCLKClockFreq>:
 800520c:	b580      	push	{r7, lr}
 800520e:	b082      	sub	sp, #8
 8005210:	af00      	add	r7, sp, #0
 8005212:	6078      	str	r0, [r7, #4]
 8005214:	f7ff fd64 	bl	8004ce0 <LL_RCC_GetAHBPrescaler>
 8005218:	4603      	mov	r3, r0
 800521a:	091b      	lsrs	r3, r3, #4
 800521c:	f003 030f 	and.w	r3, r3, #15
 8005220:	4a04      	ldr	r2, [pc, #16]	; (8005234 <RCC_GetHCLKClockFreq+0x28>)
 8005222:	5cd3      	ldrb	r3, [r2, r3]
 8005224:	461a      	mov	r2, r3
 8005226:	687b      	ldr	r3, [r7, #4]
 8005228:	40d3      	lsrs	r3, r2
 800522a:	4618      	mov	r0, r3
 800522c:	3708      	adds	r7, #8
 800522e:	46bd      	mov	sp, r7
 8005230:	bd80      	pop	{r7, pc}
 8005232:	bf00      	nop
 8005234:	080069c0 	.word	0x080069c0

08005238 <RCC_GetPCLK1ClockFreq>:
 8005238:	b580      	push	{r7, lr}
 800523a:	b082      	sub	sp, #8
 800523c:	af00      	add	r7, sp, #0
 800523e:	6078      	str	r0, [r7, #4]
 8005240:	f7ff fd5c 	bl	8004cfc <LL_RCC_GetAPB1Prescaler>
 8005244:	4603      	mov	r3, r0
 8005246:	0a1b      	lsrs	r3, r3, #8
 8005248:	4a04      	ldr	r2, [pc, #16]	; (800525c <RCC_GetPCLK1ClockFreq+0x24>)
 800524a:	5cd3      	ldrb	r3, [r2, r3]
 800524c:	461a      	mov	r2, r3
 800524e:	687b      	ldr	r3, [r7, #4]
 8005250:	40d3      	lsrs	r3, r2
 8005252:	4618      	mov	r0, r3
 8005254:	3708      	adds	r7, #8
 8005256:	46bd      	mov	sp, r7
 8005258:	bd80      	pop	{r7, pc}
 800525a:	bf00      	nop
 800525c:	080069d0 	.word	0x080069d0

08005260 <RCC_GetPCLK2ClockFreq>:
 8005260:	b580      	push	{r7, lr}
 8005262:	b082      	sub	sp, #8
 8005264:	af00      	add	r7, sp, #0
 8005266:	6078      	str	r0, [r7, #4]
 8005268:	f7ff fd56 	bl	8004d18 <LL_RCC_GetAPB2Prescaler>
 800526c:	4603      	mov	r3, r0
 800526e:	0adb      	lsrs	r3, r3, #11
 8005270:	4a04      	ldr	r2, [pc, #16]	; (8005284 <RCC_GetPCLK2ClockFreq+0x24>)
 8005272:	5cd3      	ldrb	r3, [r2, r3]
 8005274:	461a      	mov	r2, r3
 8005276:	687b      	ldr	r3, [r7, #4]
 8005278:	40d3      	lsrs	r3, r2
 800527a:	4618      	mov	r0, r3
 800527c:	3708      	adds	r7, #8
 800527e:	46bd      	mov	sp, r7
 8005280:	bd80      	pop	{r7, pc}
 8005282:	bf00      	nop
 8005284:	080069d0 	.word	0x080069d0

08005288 <RCC_PLL_GetFreqDomain_SYS>:
 8005288:	b590      	push	{r4, r7, lr}
 800528a:	b083      	sub	sp, #12
 800528c:	af00      	add	r7, sp, #0
 800528e:	f7ff fd79 	bl	8004d84 <LL_RCC_PLL_GetMainSource>
 8005292:	6038      	str	r0, [r7, #0]
 8005294:	683b      	ldr	r3, [r7, #0]
 8005296:	2b03      	cmp	r3, #3
 8005298:	d036      	beq.n	8005308 <RCC_PLL_GetFreqDomain_SYS+0x80>
 800529a:	683b      	ldr	r3, [r7, #0]
 800529c:	2b03      	cmp	r3, #3
 800529e:	d836      	bhi.n	800530e <RCC_PLL_GetFreqDomain_SYS+0x86>
 80052a0:	683b      	ldr	r3, [r7, #0]
 80052a2:	2b01      	cmp	r3, #1
 80052a4:	d003      	beq.n	80052ae <RCC_PLL_GetFreqDomain_SYS+0x26>
 80052a6:	683b      	ldr	r3, [r7, #0]
 80052a8:	2b02      	cmp	r3, #2
 80052aa:	d02a      	beq.n	8005302 <RCC_PLL_GetFreqDomain_SYS+0x7a>
 80052ac:	e02f      	b.n	800530e <RCC_PLL_GetFreqDomain_SYS+0x86>
 80052ae:	f7ff fcdb 	bl	8004c68 <LL_RCC_MSI_IsEnabledRangeSelect>
 80052b2:	4603      	mov	r3, r0
 80052b4:	2b00      	cmp	r3, #0
 80052b6:	d111      	bne.n	80052dc <RCC_PLL_GetFreqDomain_SYS+0x54>
 80052b8:	f7ff fcd6 	bl	8004c68 <LL_RCC_MSI_IsEnabledRangeSelect>
 80052bc:	4603      	mov	r3, r0
 80052be:	2b00      	cmp	r3, #0
 80052c0:	d004      	beq.n	80052cc <RCC_PLL_GetFreqDomain_SYS+0x44>
 80052c2:	f7ff fce3 	bl	8004c8c <LL_RCC_MSI_GetRange>
 80052c6:	4603      	mov	r3, r0
 80052c8:	0a1b      	lsrs	r3, r3, #8
 80052ca:	e003      	b.n	80052d4 <RCC_PLL_GetFreqDomain_SYS+0x4c>
 80052cc:	f7ff fcec 	bl	8004ca8 <LL_RCC_MSI_GetRangeAfterStandby>
 80052d0:	4603      	mov	r3, r0
 80052d2:	0a1b      	lsrs	r3, r3, #8
 80052d4:	4a2f      	ldr	r2, [pc, #188]	; (8005394 <RCC_PLL_GetFreqDomain_SYS+0x10c>)
 80052d6:	f852 3023 	ldr.w	r3, [r2, r3, lsl #2]
 80052da:	e010      	b.n	80052fe <RCC_PLL_GetFreqDomain_SYS+0x76>
 80052dc:	f7ff fcc4 	bl	8004c68 <LL_RCC_MSI_IsEnabledRangeSelect>
 80052e0:	4603      	mov	r3, r0
 80052e2:	2b00      	cmp	r3, #0
 80052e4:	d004      	beq.n	80052f0 <RCC_PLL_GetFreqDomain_SYS+0x68>
 80052e6:	f7ff fcd1 	bl	8004c8c <LL_RCC_MSI_GetRange>
 80052ea:	4603      	mov	r3, r0
 80052ec:	091b      	lsrs	r3, r3, #4
 80052ee:	e003      	b.n	80052f8 <RCC_PLL_GetFreqDomain_SYS+0x70>
 80052f0:	f7ff fcda 	bl	8004ca8 <LL_RCC_MSI_GetRangeAfterStandby>
 80052f4:	4603      	mov	r3, r0
 80052f6:	091b      	lsrs	r3, r3, #4
 80052f8:	4a26      	ldr	r2, [pc, #152]	; (8005394 <RCC_PLL_GetFreqDomain_SYS+0x10c>)
 80052fa:	f852 3023 	ldr.w	r3, [r2, r3, lsl #2]
 80052fe:	607b      	str	r3, [r7, #4]
 8005300:	e02f      	b.n	8005362 <RCC_PLL_GetFreqDomain_SYS+0xda>
 8005302:	4b25      	ldr	r3, [pc, #148]	; (8005398 <RCC_PLL_GetFreqDomain_SYS+0x110>)
 8005304:	607b      	str	r3, [r7, #4]
 8005306:	e02c      	b.n	8005362 <RCC_PLL_GetFreqDomain_SYS+0xda>
 8005308:	4b24      	ldr	r3, [pc, #144]	; (800539c <RCC_PLL_GetFreqDomain_SYS+0x114>)
 800530a:	607b      	str	r3, [r7, #4]
 800530c:	e029      	b.n	8005362 <RCC_PLL_GetFreqDomain_SYS+0xda>
 800530e:	f7ff fcab 	bl	8004c68 <LL_RCC_MSI_IsEnabledRangeSelect>
 8005312:	4603      	mov	r3, r0
 8005314:	2b00      	cmp	r3, #0
 8005316:	d111      	bne.n	800533c <RCC_PLL_GetFreqDomain_SYS+0xb4>
 8005318:	f7ff fca6 	bl	8004c68 <LL_RCC_MSI_IsEnabledRangeSelect>
 800531c:	4603      	mov	r3, r0
 800531e:	2b00      	cmp	r3, #0
 8005320:	d004      	beq.n	800532c <RCC_PLL_GetFreqDomain_SYS+0xa4>
 8005322:	f7ff fcb3 	bl	8004c8c <LL_RCC_MSI_GetRange>
 8005326:	4603      	mov	r3, r0
 8005328:	0a1b      	lsrs	r3, r3, #8
 800532a:	e003      	b.n	8005334 <RCC_PLL_GetFreqDomain_SYS+0xac>
 800532c:	f7ff fcbc 	bl	8004ca8 <LL_RCC_MSI_GetRangeAfterStandby>
 8005330:	4603      	mov	r3, r0
 8005332:	0a1b      	lsrs	r3, r3, #8
 8005334:	4a17      	ldr	r2, [pc, #92]	; (8005394 <RCC_PLL_GetFreqDomain_SYS+0x10c>)
 8005336:	f852 3023 	ldr.w	r3, [r2, r3, lsl #2]
 800533a:	e010      	b.n	800535e <RCC_PLL_GetFreqDomain_SYS+0xd6>
 800533c:	f7ff fc94 	bl	8004c68 <LL_RCC_MSI_IsEnabledRangeSelect>
 8005340:	4603      	mov	r3, r0
 8005342:	2b00      	cmp	r3, #0
 8005344:	d004      	beq.n	8005350 <RCC_PLL_GetFreqDomain_SYS+0xc8>
 8005346:	f7ff fca1 	bl	8004c8c <LL_RCC_MSI_GetRange>
 800534a:	4603      	mov	r3, r0
 800534c:	091b      	lsrs	r3, r3, #4
 800534e:	e003      	b.n	8005358 <RCC_PLL_GetFreqDomain_SYS+0xd0>
 8005350:	f7ff fcaa 	bl	8004ca8 <LL_RCC_MSI_GetRangeAfterStandby>
 8005354:	4603      	mov	r3, r0
 8005356:	091b      	lsrs	r3, r3, #4
 8005358:	4a0e      	ldr	r2, [pc, #56]	; (8005394 <RCC_PLL_GetFreqDomain_SYS+0x10c>)
 800535a:	f852 3023 	ldr.w	r3, [r2, r3, lsl #2]
 800535e:	607b      	str	r3, [r7, #4]
 8005360:	bf00      	nop
 8005362:	f7ff fd39 	bl	8004dd8 <LL_RCC_PLL_GetDivider>
 8005366:	4603      	mov	r3, r0
 8005368:	091b      	lsrs	r3, r3, #4
 800536a:	3301      	adds	r3, #1
 800536c:	687a      	ldr	r2, [r7, #4]
 800536e:	fbb2 f4f3 	udiv	r4, r2, r3
 8005372:	f7ff fd15 	bl	8004da0 <LL_RCC_PLL_GetN>
 8005376:	4603      	mov	r3, r0
 8005378:	fb03 f404 	mul.w	r4, r3, r4
 800537c:	f7ff fd1e 	bl	8004dbc <LL_RCC_PLL_GetR>
 8005380:	4603      	mov	r3, r0
 8005382:	0e5b      	lsrs	r3, r3, #25
 8005384:	3301      	adds	r3, #1
 8005386:	005b      	lsls	r3, r3, #1
 8005388:	fbb4 f3f3 	udiv	r3, r4, r3
 800538c:	4618      	mov	r0, r3
 800538e:	370c      	adds	r7, #12
 8005390:	46bd      	mov	sp, r7
 8005392:	bd90      	pop	{r4, r7, pc}
 8005394:	080069d8 	.word	0x080069d8
 8005398:	00f42400 	.word	0x00f42400
 800539c:	007a1200 	.word	0x007a1200

080053a0 <LL_SPI_IsEnabled>:
 80053a0:	b480      	push	{r7}
 80053a2:	b083      	sub	sp, #12
 80053a4:	af00      	add	r7, sp, #0
 80053a6:	6078      	str	r0, [r7, #4]
 80053a8:	687b      	ldr	r3, [r7, #4]
 80053aa:	681b      	ldr	r3, [r3, #0]
 80053ac:	f003 0340 	and.w	r3, r3, #64	; 0x40
 80053b0:	2b40      	cmp	r3, #64	; 0x40
 80053b2:	d101      	bne.n	80053b8 <LL_SPI_IsEnabled+0x18>
 80053b4:	2301      	movs	r3, #1
 80053b6:	e000      	b.n	80053ba <LL_SPI_IsEnabled+0x1a>
 80053b8:	2300      	movs	r3, #0
 80053ba:	4618      	mov	r0, r3
 80053bc:	370c      	adds	r7, #12
 80053be:	46bd      	mov	sp, r7
 80053c0:	f85d 7b04 	ldr.w	r7, [sp], #4
 80053c4:	4770      	bx	lr

080053c6 <LL_SPI_SetRxFIFOThreshold>:
 80053c6:	b480      	push	{r7}
 80053c8:	b083      	sub	sp, #12
 80053ca:	af00      	add	r7, sp, #0
 80053cc:	6078      	str	r0, [r7, #4]
 80053ce:	6039      	str	r1, [r7, #0]
 80053d0:	687b      	ldr	r3, [r7, #4]
 80053d2:	685b      	ldr	r3, [r3, #4]
 80053d4:	f423 5280 	bic.w	r2, r3, #4096	; 0x1000
 80053d8:	683b      	ldr	r3, [r7, #0]
 80053da:	431a      	orrs	r2, r3
 80053dc:	687b      	ldr	r3, [r7, #4]
 80053de:	605a      	str	r2, [r3, #4]
 80053e0:	bf00      	nop
 80053e2:	370c      	adds	r7, #12
 80053e4:	46bd      	mov	sp, r7
 80053e6:	f85d 7b04 	ldr.w	r7, [sp], #4
 80053ea:	4770      	bx	lr

080053ec <LL_SPI_SetCRCPolynomial>:
 80053ec:	b480      	push	{r7}
 80053ee:	b083      	sub	sp, #12
 80053f0:	af00      	add	r7, sp, #0
 80053f2:	6078      	str	r0, [r7, #4]
 80053f4:	6039      	str	r1, [r7, #0]
 80053f6:	683b      	ldr	r3, [r7, #0]
 80053f8:	b29b      	uxth	r3, r3
 80053fa:	461a      	mov	r2, r3
 80053fc:	687b      	ldr	r3, [r7, #4]
 80053fe:	611a      	str	r2, [r3, #16]
 8005400:	bf00      	nop
 8005402:	370c      	adds	r7, #12
 8005404:	46bd      	mov	sp, r7
 8005406:	f85d 7b04 	ldr.w	r7, [sp], #4
 800540a:	4770      	bx	lr

0800540c <LL_SPI_Init>:
 800540c:	b580      	push	{r7, lr}
 800540e:	b084      	sub	sp, #16
 8005410:	af00      	add	r7, sp, #0
 8005412:	6078      	str	r0, [r7, #4]
 8005414:	6039      	str	r1, [r7, #0]
 8005416:	2301      	movs	r3, #1
 8005418:	73fb      	strb	r3, [r7, #15]
 800541a:	6878      	ldr	r0, [r7, #4]
 800541c:	f7ff ffc0 	bl	80053a0 <LL_SPI_IsEnabled>
 8005420:	4603      	mov	r3, r0
 8005422:	2b00      	cmp	r3, #0
 8005424:	d145      	bne.n	80054b2 <LL_SPI_Init+0xa6>
 8005426:	687b      	ldr	r3, [r7, #4]
 8005428:	681b      	ldr	r3, [r3, #0]
 800542a:	f423 437f 	bic.w	r3, r3, #65280	; 0xff00
 800542e:	f023 03bf 	bic.w	r3, r3, #191	; 0xbf
 8005432:	683a      	ldr	r2, [r7, #0]
 8005434:	6811      	ldr	r1, [r2, #0]
 8005436:	683a      	ldr	r2, [r7, #0]
 8005438:	6852      	ldr	r2, [r2, #4]
 800543a:	4311      	orrs	r1, r2
 800543c:	683a      	ldr	r2, [r7, #0]
 800543e:	68d2      	ldr	r2, [r2, #12]
 8005440:	4311      	orrs	r1, r2
 8005442:	683a      	ldr	r2, [r7, #0]
 8005444:	6912      	ldr	r2, [r2, #16]
 8005446:	4311      	orrs	r1, r2
 8005448:	683a      	ldr	r2, [r7, #0]
 800544a:	6952      	ldr	r2, [r2, #20]
 800544c:	4311      	orrs	r1, r2
 800544e:	683a      	ldr	r2, [r7, #0]
 8005450:	6992      	ldr	r2, [r2, #24]
 8005452:	4311      	orrs	r1, r2
 8005454:	683a      	ldr	r2, [r7, #0]
 8005456:	69d2      	ldr	r2, [r2, #28]
 8005458:	4311      	orrs	r1, r2
 800545a:	683a      	ldr	r2, [r7, #0]
 800545c:	6a12      	ldr	r2, [r2, #32]
 800545e:	430a      	orrs	r2, r1
 8005460:	431a      	orrs	r2, r3
 8005462:	687b      	ldr	r3, [r7, #4]
 8005464:	601a      	str	r2, [r3, #0]
 8005466:	687b      	ldr	r3, [r7, #4]
 8005468:	685b      	ldr	r3, [r3, #4]
 800546a:	f423 6370 	bic.w	r3, r3, #3840	; 0xf00
 800546e:	f023 0304 	bic.w	r3, r3, #4
 8005472:	683a      	ldr	r2, [r7, #0]
 8005474:	6891      	ldr	r1, [r2, #8]
 8005476:	683a      	ldr	r2, [r7, #0]
 8005478:	6952      	ldr	r2, [r2, #20]
 800547a:	0c12      	lsrs	r2, r2, #16
 800547c:	430a      	orrs	r2, r1
 800547e:	431a      	orrs	r2, r3
 8005480:	687b      	ldr	r3, [r7, #4]
 8005482:	605a      	str	r2, [r3, #4]
 8005484:	683b      	ldr	r3, [r7, #0]
 8005486:	689b      	ldr	r3, [r3, #8]
 8005488:	f5b3 6f00 	cmp.w	r3, #2048	; 0x800
 800548c:	d204      	bcs.n	8005498 <LL_SPI_Init+0x8c>
 800548e:	f44f 5180 	mov.w	r1, #4096	; 0x1000
 8005492:	6878      	ldr	r0, [r7, #4]
 8005494:	f7ff ff97 	bl	80053c6 <LL_SPI_SetRxFIFOThreshold>
 8005498:	683b      	ldr	r3, [r7, #0]
 800549a:	6a1b      	ldr	r3, [r3, #32]
 800549c:	f5b3 5f00 	cmp.w	r3, #8192	; 0x2000
 80054a0:	d105      	bne.n	80054ae <LL_SPI_Init+0xa2>
 80054a2:	683b      	ldr	r3, [r7, #0]
 80054a4:	6a5b      	ldr	r3, [r3, #36]	; 0x24
 80054a6:	4619      	mov	r1, r3
 80054a8:	6878      	ldr	r0, [r7, #4]
 80054aa:	f7ff ff9f 	bl	80053ec <LL_SPI_SetCRCPolynomial>
 80054ae:	2300      	movs	r3, #0
 80054b0:	73fb      	strb	r3, [r7, #15]
 80054b2:	7bfb      	ldrb	r3, [r7, #15]
 80054b4:	4618      	mov	r0, r3
 80054b6:	3710      	adds	r7, #16
 80054b8:	46bd      	mov	sp, r7
 80054ba:	bd80      	pop	{r7, pc}

080054bc <LL_USART_IsEnabled>:
 80054bc:	b480      	push	{r7}
 80054be:	b083      	sub	sp, #12
 80054c0:	af00      	add	r7, sp, #0
 80054c2:	6078      	str	r0, [r7, #4]
 80054c4:	687b      	ldr	r3, [r7, #4]
 80054c6:	681b      	ldr	r3, [r3, #0]
 80054c8:	f003 0301 	and.w	r3, r3, #1
 80054cc:	2b01      	cmp	r3, #1
 80054ce:	d101      	bne.n	80054d4 <LL_USART_IsEnabled+0x18>
 80054d0:	2301      	movs	r3, #1
 80054d2:	e000      	b.n	80054d6 <LL_USART_IsEnabled+0x1a>
 80054d4:	2300      	movs	r3, #0
 80054d6:	4618      	mov	r0, r3
 80054d8:	370c      	adds	r7, #12
 80054da:	46bd      	mov	sp, r7
 80054dc:	f85d 7b04 	ldr.w	r7, [sp], #4
 80054e0:	4770      	bx	lr

080054e2 <LL_USART_SetStopBitsLength>:
 80054e2:	b480      	push	{r7}
 80054e4:	b083      	sub	sp, #12
 80054e6:	af00      	add	r7, sp, #0
 80054e8:	6078      	str	r0, [r7, #4]
 80054ea:	6039      	str	r1, [r7, #0]
 80054ec:	687b      	ldr	r3, [r7, #4]
 80054ee:	685b      	ldr	r3, [r3, #4]
 80054f0:	f423 5240 	bic.w	r2, r3, #12288	; 0x3000
 80054f4:	683b      	ldr	r3, [r7, #0]
 80054f6:	431a      	orrs	r2, r3
 80054f8:	687b      	ldr	r3, [r7, #4]
 80054fa:	605a      	str	r2, [r3, #4]
 80054fc:	bf00      	nop
 80054fe:	370c      	adds	r7, #12
 8005500:	46bd      	mov	sp, r7
 8005502:	f85d 7b04 	ldr.w	r7, [sp], #4
 8005506:	4770      	bx	lr

08005508 <LL_USART_SetHWFlowCtrl>:
 8005508:	b480      	push	{r7}
 800550a:	b083      	sub	sp, #12
 800550c:	af00      	add	r7, sp, #0
 800550e:	6078      	str	r0, [r7, #4]
 8005510:	6039      	str	r1, [r7, #0]
 8005512:	687b      	ldr	r3, [r7, #4]
 8005514:	689b      	ldr	r3, [r3, #8]
 8005516:	f423 7240 	bic.w	r2, r3, #768	; 0x300
 800551a:	683b      	ldr	r3, [r7, #0]
 800551c:	431a      	orrs	r2, r3
 800551e:	687b      	ldr	r3, [r7, #4]
 8005520:	609a      	str	r2, [r3, #8]
 8005522:	bf00      	nop
 8005524:	370c      	adds	r7, #12
 8005526:	46bd      	mov	sp, r7
 8005528:	f85d 7b04 	ldr.w	r7, [sp], #4
 800552c:	4770      	bx	lr

0800552e <LL_USART_SetBaudRate>:
 800552e:	b480      	push	{r7}
 8005530:	b087      	sub	sp, #28
 8005532:	af00      	add	r7, sp, #0
 8005534:	60f8      	str	r0, [r7, #12]
 8005536:	60b9      	str	r1, [r7, #8]
 8005538:	607a      	str	r2, [r7, #4]
 800553a:	603b      	str	r3, [r7, #0]
 800553c:	687b      	ldr	r3, [r7, #4]
 800553e:	f5b3 4f00 	cmp.w	r3, #32768	; 0x8000
 8005542:	d11a      	bne.n	800557a <LL_USART_SetBaudRate+0x4c>
 8005544:	68bb      	ldr	r3, [r7, #8]
 8005546:	005a      	lsls	r2, r3, #1
 8005548:	683b      	ldr	r3, [r7, #0]
 800554a:	085b      	lsrs	r3, r3, #1
 800554c:	441a      	add	r2, r3
 800554e:	683b      	ldr	r3, [r7, #0]
 8005550:	fbb2 f3f3 	udiv	r3, r2, r3
 8005554:	b29b      	uxth	r3, r3
 8005556:	617b      	str	r3, [r7, #20]
 8005558:	697a      	ldr	r2, [r7, #20]
 800555a:	f64f 73f0 	movw	r3, #65520	; 0xfff0
 800555e:	4013      	ands	r3, r2
 8005560:	613b      	str	r3, [r7, #16]
 8005562:	697b      	ldr	r3, [r7, #20]
 8005564:	085b      	lsrs	r3, r3, #1
 8005566:	b29b      	uxth	r3, r3
 8005568:	f003 0307 	and.w	r3, r3, #7
 800556c:	693a      	ldr	r2, [r7, #16]
 800556e:	4313      	orrs	r3, r2
 8005570:	613b      	str	r3, [r7, #16]
 8005572:	68fb      	ldr	r3, [r7, #12]
 8005574:	693a      	ldr	r2, [r7, #16]
 8005576:	60da      	str	r2, [r3, #12]
 8005578:	e00a      	b.n	8005590 <LL_USART_SetBaudRate+0x62>
 800557a:	683b      	ldr	r3, [r7, #0]
 800557c:	085a      	lsrs	r2, r3, #1
 800557e:	68bb      	ldr	r3, [r7, #8]
 8005580:	441a      	add	r2, r3
 8005582:	683b      	ldr	r3, [r7, #0]
 8005584:	fbb2 f3f3 	udiv	r3, r2, r3
 8005588:	b29b      	uxth	r3, r3
 800558a:	461a      	mov	r2, r3
 800558c:	68fb      	ldr	r3, [r7, #12]
 800558e:	60da      	str	r2, [r3, #12]
 8005590:	bf00      	nop
 8005592:	371c      	adds	r7, #28
 8005594:	46bd      	mov	sp, r7
 8005596:	f85d 7b04 	ldr.w	r7, [sp], #4
 800559a:	4770      	bx	lr

0800559c <LL_USART_Init>:
 800559c:	b580      	push	{r7, lr}
 800559e:	b084      	sub	sp, #16
 80055a0:	af00      	add	r7, sp, #0
 80055a2:	6078      	str	r0, [r7, #4]
 80055a4:	6039      	str	r1, [r7, #0]
 80055a6:	2301      	movs	r3, #1
 80055a8:	73fb      	strb	r3, [r7, #15]
 80055aa:	2300      	movs	r3, #0
 80055ac:	60bb      	str	r3, [r7, #8]
 80055ae:	6878      	ldr	r0, [r7, #4]
 80055b0:	f7ff ff84 	bl	80054bc <LL_USART_IsEnabled>
 80055b4:	4603      	mov	r3, r0
 80055b6:	2b00      	cmp	r3, #0
 80055b8:	d15b      	bne.n	8005672 <LL_USART_Init+0xd6>
 80055ba:	687b      	ldr	r3, [r7, #4]
 80055bc:	681a      	ldr	r2, [r3, #0]
 80055be:	4b2f      	ldr	r3, [pc, #188]	; (800567c <LL_USART_Init+0xe0>)
 80055c0:	4013      	ands	r3, r2
 80055c2:	683a      	ldr	r2, [r7, #0]
 80055c4:	6851      	ldr	r1, [r2, #4]
 80055c6:	683a      	ldr	r2, [r7, #0]
 80055c8:	68d2      	ldr	r2, [r2, #12]
 80055ca:	4311      	orrs	r1, r2
 80055cc:	683a      	ldr	r2, [r7, #0]
 80055ce:	6912      	ldr	r2, [r2, #16]
 80055d0:	4311      	orrs	r1, r2
 80055d2:	683a      	ldr	r2, [r7, #0]
 80055d4:	6992      	ldr	r2, [r2, #24]
 80055d6:	430a      	orrs	r2, r1
 80055d8:	431a      	orrs	r2, r3
 80055da:	687b      	ldr	r3, [r7, #4]
 80055dc:	601a      	str	r2, [r3, #0]
 80055de:	683b      	ldr	r3, [r7, #0]
 80055e0:	689b      	ldr	r3, [r3, #8]
 80055e2:	4619      	mov	r1, r3
 80055e4:	6878      	ldr	r0, [r7, #4]
 80055e6:	f7ff ff7c 	bl	80054e2 <LL_USART_SetStopBitsLength>
 80055ea:	683b      	ldr	r3, [r7, #0]
 80055ec:	695b      	ldr	r3, [r3, #20]
 80055ee:	4619      	mov	r1, r3
 80055f0:	6878      	ldr	r0, [r7, #4]
 80055f2:	f7ff ff89 	bl	8005508 <LL_USART_SetHWFlowCtrl>
 80055f6:	687b      	ldr	r3, [r7, #4]
 80055f8:	4a21      	ldr	r2, [pc, #132]	; (8005680 <LL_USART_Init+0xe4>)
 80055fa:	4293      	cmp	r3, r2
 80055fc:	d104      	bne.n	8005608 <LL_USART_Init+0x6c>
 80055fe:	2003      	movs	r0, #3
 8005600:	f7ff fbf8 	bl	8004df4 <LL_RCC_GetUSARTClockFreq>
 8005604:	60b8      	str	r0, [r7, #8]
 8005606:	e023      	b.n	8005650 <LL_USART_Init+0xb4>
 8005608:	687b      	ldr	r3, [r7, #4]
 800560a:	4a1e      	ldr	r2, [pc, #120]	; (8005684 <LL_USART_Init+0xe8>)
 800560c:	4293      	cmp	r3, r2
 800560e:	d104      	bne.n	800561a <LL_USART_Init+0x7e>
 8005610:	200c      	movs	r0, #12
 8005612:	f7ff fbef 	bl	8004df4 <LL_RCC_GetUSARTClockFreq>
 8005616:	60b8      	str	r0, [r7, #8]
 8005618:	e01a      	b.n	8005650 <LL_USART_Init+0xb4>
 800561a:	687b      	ldr	r3, [r7, #4]
 800561c:	4a1a      	ldr	r2, [pc, #104]	; (8005688 <LL_USART_Init+0xec>)
 800561e:	4293      	cmp	r3, r2
 8005620:	d104      	bne.n	800562c <LL_USART_Init+0x90>
 8005622:	2030      	movs	r0, #48	; 0x30
 8005624:	f7ff fbe6 	bl	8004df4 <LL_RCC_GetUSARTClockFreq>
 8005628:	60b8      	str	r0, [r7, #8]
 800562a:	e011      	b.n	8005650 <LL_USART_Init+0xb4>
 800562c:	687b      	ldr	r3, [r7, #4]
 800562e:	4a17      	ldr	r2, [pc, #92]	; (800568c <LL_USART_Init+0xf0>)
 8005630:	4293      	cmp	r3, r2
 8005632:	d104      	bne.n	800563e <LL_USART_Init+0xa2>
 8005634:	20c0      	movs	r0, #192	; 0xc0
 8005636:	f7ff fcc1 	bl	8004fbc <LL_RCC_GetUARTClockFreq>
 800563a:	60b8      	str	r0, [r7, #8]
 800563c:	e008      	b.n	8005650 <LL_USART_Init+0xb4>
 800563e:	687b      	ldr	r3, [r7, #4]
 8005640:	4a13      	ldr	r2, [pc, #76]	; (8005690 <LL_USART_Init+0xf4>)
 8005642:	4293      	cmp	r3, r2
 8005644:	d104      	bne.n	8005650 <LL_USART_Init+0xb4>
 8005646:	f44f 7040 	mov.w	r0, #768	; 0x300
 800564a:	f7ff fcb7 	bl	8004fbc <LL_RCC_GetUARTClockFreq>
 800564e:	60b8      	str	r0, [r7, #8]
 8005650:	68bb      	ldr	r3, [r7, #8]
 8005652:	2b00      	cmp	r3, #0
 8005654:	d00d      	beq.n	8005672 <LL_USART_Init+0xd6>
 8005656:	683b      	ldr	r3, [r7, #0]
 8005658:	681b      	ldr	r3, [r3, #0]
 800565a:	2b00      	cmp	r3, #0
 800565c:	d009      	beq.n	8005672 <LL_USART_Init+0xd6>
 800565e:	2300      	movs	r3, #0
 8005660:	73fb      	strb	r3, [r7, #15]
 8005662:	683b      	ldr	r3, [r7, #0]
 8005664:	699a      	ldr	r2, [r3, #24]
 8005666:	683b      	ldr	r3, [r7, #0]
 8005668:	681b      	ldr	r3, [r3, #0]
 800566a:	68b9      	ldr	r1, [r7, #8]
 800566c:	6878      	ldr	r0, [r7, #4]
 800566e:	f7ff ff5e 	bl	800552e <LL_USART_SetBaudRate>
 8005672:	7bfb      	ldrb	r3, [r7, #15]
 8005674:	4618      	mov	r0, r3
 8005676:	3710      	adds	r7, #16
 8005678:	46bd      	mov	sp, r7
 800567a:	bd80      	pop	{r7, pc}
 800567c:	efff69f3 	.word	0xefff69f3
 8005680:	40013800 	.word	0x40013800
 8005684:	40004400 	.word	0x40004400
 8005688:	40004800 	.word	0x40004800
 800568c:	40004c00 	.word	0x40004c00
 8005690:	40005000 	.word	0x40005000

08005694 <LL_InitTick>:
 8005694:	b480      	push	{r7}
 8005696:	b083      	sub	sp, #12
 8005698:	af00      	add	r7, sp, #0
 800569a:	6078      	str	r0, [r7, #4]
 800569c:	6039      	str	r1, [r7, #0]
 800569e:	687a      	ldr	r2, [r7, #4]
 80056a0:	683b      	ldr	r3, [r7, #0]
 80056a2:	fbb2 f3f3 	udiv	r3, r2, r3
 80056a6:	4a07      	ldr	r2, [pc, #28]	; (80056c4 <LL_InitTick+0x30>)
 80056a8:	3b01      	subs	r3, #1
 80056aa:	6053      	str	r3, [r2, #4]
 80056ac:	4b05      	ldr	r3, [pc, #20]	; (80056c4 <LL_InitTick+0x30>)
 80056ae:	2200      	movs	r2, #0
 80056b0:	609a      	str	r2, [r3, #8]
 80056b2:	4b04      	ldr	r3, [pc, #16]	; (80056c4 <LL_InitTick+0x30>)
 80056b4:	2205      	movs	r2, #5
 80056b6:	601a      	str	r2, [r3, #0]
 80056b8:	bf00      	nop
 80056ba:	370c      	adds	r7, #12
 80056bc:	46bd      	mov	sp, r7
 80056be:	f85d 7b04 	ldr.w	r7, [sp], #4
 80056c2:	4770      	bx	lr
 80056c4:	e000e010 	.word	0xe000e010

080056c8 <LL_Init1msTick>:
 80056c8:	b580      	push	{r7, lr}
 80056ca:	b082      	sub	sp, #8
 80056cc:	af00      	add	r7, sp, #0
 80056ce:	6078      	str	r0, [r7, #4]
 80056d0:	f44f 717a 	mov.w	r1, #1000	; 0x3e8
 80056d4:	6878      	ldr	r0, [r7, #4]
 80056d6:	f7ff ffdd 	bl	8005694 <LL_InitTick>
 80056da:	bf00      	nop
 80056dc:	3708      	adds	r7, #8
 80056de:	46bd      	mov	sp, r7
 80056e0:	bd80      	pop	{r7, pc}
	...

080056e4 <LL_mDelay>:
 80056e4:	b480      	push	{r7}
 80056e6:	b085      	sub	sp, #20
 80056e8:	af00      	add	r7, sp, #0
 80056ea:	6078      	str	r0, [r7, #4]
 80056ec:	4b10      	ldr	r3, [pc, #64]	; (8005730 <LL_mDelay+0x4c>)
 80056ee:	681b      	ldr	r3, [r3, #0]
 80056f0:	60bb      	str	r3, [r7, #8]
 80056f2:	687b      	ldr	r3, [r7, #4]
 80056f4:	60fb      	str	r3, [r7, #12]
 80056f6:	68bb      	ldr	r3, [r7, #8]
 80056f8:	68fb      	ldr	r3, [r7, #12]
 80056fa:	f1b3 3fff 	cmp.w	r3, #4294967295
 80056fe:	d00c      	beq.n	800571a <LL_mDelay+0x36>
 8005700:	68fb      	ldr	r3, [r7, #12]
 8005702:	3301      	adds	r3, #1
 8005704:	60fb      	str	r3, [r7, #12]
 8005706:	e008      	b.n	800571a <LL_mDelay+0x36>
 8005708:	4b09      	ldr	r3, [pc, #36]	; (8005730 <LL_mDelay+0x4c>)
 800570a:	681b      	ldr	r3, [r3, #0]
 800570c:	f403 3380 	and.w	r3, r3, #65536	; 0x10000
 8005710:	2b00      	cmp	r3, #0
 8005712:	d002      	beq.n	800571a <LL_mDelay+0x36>
 8005714:	68fb      	ldr	r3, [r7, #12]
 8005716:	3b01      	subs	r3, #1
 8005718:	60fb      	str	r3, [r7, #12]
 800571a:	68fb      	ldr	r3, [r7, #12]
 800571c:	2b00      	cmp	r3, #0
 800571e:	d1f3      	bne.n	8005708 <LL_mDelay+0x24>
 8005720:	bf00      	nop
 8005722:	bf00      	nop
 8005724:	3714      	adds	r7, #20
 8005726:	46bd      	mov	sp, r7
 8005728:	f85d 7b04 	ldr.w	r7, [sp], #4
 800572c:	4770      	bx	lr
 800572e:	bf00      	nop
 8005730:	e000e010 	.word	0xe000e010

08005734 <LL_SetSystemCoreClock>:
 8005734:	b480      	push	{r7}
 8005736:	b083      	sub	sp, #12
 8005738:	af00      	add	r7, sp, #0
 800573a:	6078      	str	r0, [r7, #4]
 800573c:	4a04      	ldr	r2, [pc, #16]	; (8005750 <LL_SetSystemCoreClock+0x1c>)
 800573e:	687b      	ldr	r3, [r7, #4]
 8005740:	6013      	str	r3, [r2, #0]
 8005742:	bf00      	nop
 8005744:	370c      	adds	r7, #12
 8005746:	46bd      	mov	sp, r7
 8005748:	f85d 7b04 	ldr.w	r7, [sp], #4
 800574c:	4770      	bx	lr
 800574e:	bf00      	nop
 8005750:	20000010 	.word	0x20000010

08005754 <__libc_init_array>:
 8005754:	b570      	push	{r4, r5, r6, lr}
 8005756:	4d0d      	ldr	r5, [pc, #52]	; (800578c <__libc_init_array+0x38>)
 8005758:	4c0d      	ldr	r4, [pc, #52]	; (8005790 <__libc_init_array+0x3c>)
 800575a:	1b64      	subs	r4, r4, r5
 800575c:	10a4      	asrs	r4, r4, #2
 800575e:	2600      	movs	r6, #0
 8005760:	42a6      	cmp	r6, r4
 8005762:	d109      	bne.n	8005778 <__libc_init_array+0x24>
 8005764:	4d0b      	ldr	r5, [pc, #44]	; (8005794 <__libc_init_array+0x40>)
 8005766:	4c0c      	ldr	r4, [pc, #48]	; (8005798 <__libc_init_array+0x44>)
 8005768:	f001 f91e 	bl	80069a8 <_init>
 800576c:	1b64      	subs	r4, r4, r5
 800576e:	10a4      	asrs	r4, r4, #2
 8005770:	2600      	movs	r6, #0
 8005772:	42a6      	cmp	r6, r4
 8005774:	d105      	bne.n	8005782 <__libc_init_array+0x2e>
 8005776:	bd70      	pop	{r4, r5, r6, pc}
 8005778:	f855 3b04 	ldr.w	r3, [r5], #4
 800577c:	4798      	blx	r3
 800577e:	3601      	adds	r6, #1
 8005780:	e7ee      	b.n	8005760 <__libc_init_array+0xc>
 8005782:	f855 3b04 	ldr.w	r3, [r5], #4
 8005786:	4798      	blx	r3
 8005788:	3601      	adds	r6, #1
 800578a:	e7f2      	b.n	8005772 <__libc_init_array+0x1e>
 800578c:	08006a78 	.word	0x08006a78
 8005790:	08006a78 	.word	0x08006a78
 8005794:	08006a78 	.word	0x08006a78
 8005798:	08006a7c 	.word	0x08006a7c

0800579c <memcpy>:
 800579c:	440a      	add	r2, r1
 800579e:	4291      	cmp	r1, r2
 80057a0:	f100 33ff 	add.w	r3, r0, #4294967295
 80057a4:	d100      	bne.n	80057a8 <memcpy+0xc>
 80057a6:	4770      	bx	lr
 80057a8:	b510      	push	{r4, lr}
 80057aa:	f811 4b01 	ldrb.w	r4, [r1], #1
 80057ae:	f803 4f01 	strb.w	r4, [r3, #1]!
 80057b2:	4291      	cmp	r1, r2
 80057b4:	d1f9      	bne.n	80057aa <memcpy+0xe>
 80057b6:	bd10      	pop	{r4, pc}

080057b8 <memset>:
 80057b8:	4402      	add	r2, r0
 80057ba:	4603      	mov	r3, r0
 80057bc:	4293      	cmp	r3, r2
 80057be:	d100      	bne.n	80057c2 <memset+0xa>
 80057c0:	4770      	bx	lr
 80057c2:	f803 1b01 	strb.w	r1, [r3], #1
 80057c6:	e7f9      	b.n	80057bc <memset+0x4>

080057c8 <atan>:
 80057c8:	e92d 4ff8 	stmdb	sp!, {r3, r4, r5, r6, r7, r8, r9, sl, fp, lr}
 80057cc:	ec55 4b10 	vmov	r4, r5, d0
 80057d0:	4bc3      	ldr	r3, [pc, #780]	; (8005ae0 <atan+0x318>)
 80057d2:	f025 4600 	bic.w	r6, r5, #2147483648	; 0x80000000
 80057d6:	429e      	cmp	r6, r3
 80057d8:	46ab      	mov	fp, r5
 80057da:	dd18      	ble.n	800580e <atan+0x46>
 80057dc:	4bc1      	ldr	r3, [pc, #772]	; (8005ae4 <atan+0x31c>)
 80057de:	429e      	cmp	r6, r3
 80057e0:	dc01      	bgt.n	80057e6 <atan+0x1e>
 80057e2:	d109      	bne.n	80057f8 <atan+0x30>
 80057e4:	b144      	cbz	r4, 80057f8 <atan+0x30>
 80057e6:	4622      	mov	r2, r4
 80057e8:	462b      	mov	r3, r5
 80057ea:	4620      	mov	r0, r4
 80057ec:	4629      	mov	r1, r5
 80057ee:	f7fa fcf1 	bl	80001d4 <__adddf3>
 80057f2:	4604      	mov	r4, r0
 80057f4:	460d      	mov	r5, r1
 80057f6:	e006      	b.n	8005806 <atan+0x3e>
 80057f8:	f1bb 0f00 	cmp.w	fp, #0
 80057fc:	f300 8131 	bgt.w	8005a62 <atan+0x29a>
 8005800:	a59b      	add	r5, pc, #620	; (adr r5, 8005a70 <atan+0x2a8>)
 8005802:	e9d5 4500 	ldrd	r4, r5, [r5]
 8005806:	ec45 4b10 	vmov	d0, r4, r5
 800580a:	e8bd 8ff8 	ldmia.w	sp!, {r3, r4, r5, r6, r7, r8, r9, sl, fp, pc}
 800580e:	4bb6      	ldr	r3, [pc, #728]	; (8005ae8 <atan+0x320>)
 8005810:	429e      	cmp	r6, r3
 8005812:	dc14      	bgt.n	800583e <atan+0x76>
 8005814:	f1a3 73de 	sub.w	r3, r3, #29097984	; 0x1bc0000
 8005818:	429e      	cmp	r6, r3
 800581a:	dc0d      	bgt.n	8005838 <atan+0x70>
 800581c:	a396      	add	r3, pc, #600	; (adr r3, 8005a78 <atan+0x2b0>)
 800581e:	e9d3 2300 	ldrd	r2, r3, [r3]
 8005822:	ee10 0a10 	vmov	r0, s0
 8005826:	4629      	mov	r1, r5
 8005828:	f7fa fcd4 	bl	80001d4 <__adddf3>
 800582c:	4baf      	ldr	r3, [pc, #700]	; (8005aec <atan+0x324>)
 800582e:	2200      	movs	r2, #0
 8005830:	f7fb f916 	bl	8000a60 <__aeabi_dcmpgt>
 8005834:	2800      	cmp	r0, #0
 8005836:	d1e6      	bne.n	8005806 <atan+0x3e>
 8005838:	f04f 3aff 	mov.w	sl, #4294967295
 800583c:	e02b      	b.n	8005896 <atan+0xce>
 800583e:	f000 f963 	bl	8005b08 <fabs>
 8005842:	4bab      	ldr	r3, [pc, #684]	; (8005af0 <atan+0x328>)
 8005844:	429e      	cmp	r6, r3
 8005846:	ec55 4b10 	vmov	r4, r5, d0
 800584a:	f300 80bf 	bgt.w	80059cc <atan+0x204>
 800584e:	f5a3 2350 	sub.w	r3, r3, #851968	; 0xd0000
 8005852:	429e      	cmp	r6, r3
 8005854:	f300 80a0 	bgt.w	8005998 <atan+0x1d0>
 8005858:	ee10 2a10 	vmov	r2, s0
 800585c:	ee10 0a10 	vmov	r0, s0
 8005860:	462b      	mov	r3, r5
 8005862:	4629      	mov	r1, r5
 8005864:	f7fa fcb6 	bl	80001d4 <__adddf3>
 8005868:	4ba0      	ldr	r3, [pc, #640]	; (8005aec <atan+0x324>)
 800586a:	2200      	movs	r2, #0
 800586c:	f7fa fcb0 	bl	80001d0 <__aeabi_dsub>
 8005870:	2200      	movs	r2, #0
 8005872:	4606      	mov	r6, r0
 8005874:	460f      	mov	r7, r1
 8005876:	f04f 4380 	mov.w	r3, #1073741824	; 0x40000000
 800587a:	4620      	mov	r0, r4
 800587c:	4629      	mov	r1, r5
 800587e:	f7fa fca9 	bl	80001d4 <__adddf3>
 8005882:	4602      	mov	r2, r0
 8005884:	460b      	mov	r3, r1
 8005886:	4630      	mov	r0, r6
 8005888:	4639      	mov	r1, r7
 800588a:	f7fa ff83 	bl	8000794 <__aeabi_ddiv>
 800588e:	f04f 0a00 	mov.w	sl, #0
 8005892:	4604      	mov	r4, r0
 8005894:	460d      	mov	r5, r1
 8005896:	4622      	mov	r2, r4
 8005898:	462b      	mov	r3, r5
 800589a:	4620      	mov	r0, r4
 800589c:	4629      	mov	r1, r5
 800589e:	f7fa fe4f 	bl	8000540 <__aeabi_dmul>
 80058a2:	4602      	mov	r2, r0
 80058a4:	460b      	mov	r3, r1
 80058a6:	4680      	mov	r8, r0
 80058a8:	4689      	mov	r9, r1
 80058aa:	f7fa fe49 	bl	8000540 <__aeabi_dmul>
 80058ae:	a374      	add	r3, pc, #464	; (adr r3, 8005a80 <atan+0x2b8>)
 80058b0:	e9d3 2300 	ldrd	r2, r3, [r3]
 80058b4:	4606      	mov	r6, r0
 80058b6:	460f      	mov	r7, r1
 80058b8:	f7fa fe42 	bl	8000540 <__aeabi_dmul>
 80058bc:	a372      	add	r3, pc, #456	; (adr r3, 8005a88 <atan+0x2c0>)
 80058be:	e9d3 2300 	ldrd	r2, r3, [r3]
 80058c2:	f7fa fc87 	bl	80001d4 <__adddf3>
 80058c6:	4632      	mov	r2, r6
 80058c8:	463b      	mov	r3, r7
 80058ca:	f7fa fe39 	bl	8000540 <__aeabi_dmul>
 80058ce:	a370      	add	r3, pc, #448	; (adr r3, 8005a90 <atan+0x2c8>)
 80058d0:	e9d3 2300 	ldrd	r2, r3, [r3]
 80058d4:	f7fa fc7e 	bl	80001d4 <__adddf3>
 80058d8:	4632      	mov	r2, r6
 80058da:	463b      	mov	r3, r7
 80058dc:	f7fa fe30 	bl	8000540 <__aeabi_dmul>
 80058e0:	a36d      	add	r3, pc, #436	; (adr r3, 8005a98 <atan+0x2d0>)
 80058e2:	e9d3 2300 	ldrd	r2, r3, [r3]
 80058e6:	f7fa fc75 	bl	80001d4 <__adddf3>
 80058ea:	4632      	mov	r2, r6
 80058ec:	463b      	mov	r3, r7
 80058ee:	f7fa fe27 	bl	8000540 <__aeabi_dmul>
 80058f2:	a36b      	add	r3, pc, #428	; (adr r3, 8005aa0 <atan+0x2d8>)
 80058f4:	e9d3 2300 	ldrd	r2, r3, [r3]
 80058f8:	f7fa fc6c 	bl	80001d4 <__adddf3>
 80058fc:	4632      	mov	r2, r6
 80058fe:	463b      	mov	r3, r7
 8005900:	f7fa fe1e 	bl	8000540 <__aeabi_dmul>
 8005904:	a368      	add	r3, pc, #416	; (adr r3, 8005aa8 <atan+0x2e0>)
 8005906:	e9d3 2300 	ldrd	r2, r3, [r3]
 800590a:	f7fa fc63 	bl	80001d4 <__adddf3>
 800590e:	4642      	mov	r2, r8
 8005910:	464b      	mov	r3, r9
 8005912:	f7fa fe15 	bl	8000540 <__aeabi_dmul>
 8005916:	a366      	add	r3, pc, #408	; (adr r3, 8005ab0 <atan+0x2e8>)
 8005918:	e9d3 2300 	ldrd	r2, r3, [r3]
 800591c:	4680      	mov	r8, r0
 800591e:	4689      	mov	r9, r1
 8005920:	4630      	mov	r0, r6
 8005922:	4639      	mov	r1, r7
 8005924:	f7fa fe0c 	bl	8000540 <__aeabi_dmul>
 8005928:	a363      	add	r3, pc, #396	; (adr r3, 8005ab8 <atan+0x2f0>)
 800592a:	e9d3 2300 	ldrd	r2, r3, [r3]
 800592e:	f7fa fc4f 	bl	80001d0 <__aeabi_dsub>
 8005932:	4632      	mov	r2, r6
 8005934:	463b      	mov	r3, r7
 8005936:	f7fa fe03 	bl	8000540 <__aeabi_dmul>
 800593a:	a361      	add	r3, pc, #388	; (adr r3, 8005ac0 <atan+0x2f8>)
 800593c:	e9d3 2300 	ldrd	r2, r3, [r3]
 8005940:	f7fa fc46 	bl	80001d0 <__aeabi_dsub>
 8005944:	4632      	mov	r2, r6
 8005946:	463b      	mov	r3, r7
 8005948:	f7fa fdfa 	bl	8000540 <__aeabi_dmul>
 800594c:	a35e      	add	r3, pc, #376	; (adr r3, 8005ac8 <atan+0x300>)
 800594e:	e9d3 2300 	ldrd	r2, r3, [r3]
 8005952:	f7fa fc3d 	bl	80001d0 <__aeabi_dsub>
 8005956:	4632      	mov	r2, r6
 8005958:	463b      	mov	r3, r7
 800595a:	f7fa fdf1 	bl	8000540 <__aeabi_dmul>
 800595e:	a35c      	add	r3, pc, #368	; (adr r3, 8005ad0 <atan+0x308>)
 8005960:	e9d3 2300 	ldrd	r2, r3, [r3]
 8005964:	f7fa fc34 	bl	80001d0 <__aeabi_dsub>
 8005968:	4632      	mov	r2, r6
 800596a:	463b      	mov	r3, r7
 800596c:	f7fa fde8 	bl	8000540 <__aeabi_dmul>
 8005970:	4602      	mov	r2, r0
 8005972:	460b      	mov	r3, r1
 8005974:	4640      	mov	r0, r8
 8005976:	4649      	mov	r1, r9
 8005978:	f7fa fc2c 	bl	80001d4 <__adddf3>
 800597c:	4622      	mov	r2, r4
 800597e:	462b      	mov	r3, r5
 8005980:	f7fa fdde 	bl	8000540 <__aeabi_dmul>
 8005984:	f1ba 3fff 	cmp.w	sl, #4294967295
 8005988:	4602      	mov	r2, r0
 800598a:	460b      	mov	r3, r1
 800598c:	d14b      	bne.n	8005a26 <atan+0x25e>
 800598e:	4620      	mov	r0, r4
 8005990:	4629      	mov	r1, r5
 8005992:	f7fa fc1d 	bl	80001d0 <__aeabi_dsub>
 8005996:	e72c      	b.n	80057f2 <atan+0x2a>
 8005998:	ee10 0a10 	vmov	r0, s0
 800599c:	4b53      	ldr	r3, [pc, #332]	; (8005aec <atan+0x324>)
 800599e:	2200      	movs	r2, #0
 80059a0:	4629      	mov	r1, r5
 80059a2:	f7fa fc15 	bl	80001d0 <__aeabi_dsub>
 80059a6:	4b51      	ldr	r3, [pc, #324]	; (8005aec <atan+0x324>)
 80059a8:	4606      	mov	r6, r0
 80059aa:	460f      	mov	r7, r1
 80059ac:	2200      	movs	r2, #0
 80059ae:	4620      	mov	r0, r4
 80059b0:	4629      	mov	r1, r5
 80059b2:	f7fa fc0f 	bl	80001d4 <__adddf3>
 80059b6:	4602      	mov	r2, r0
 80059b8:	460b      	mov	r3, r1
 80059ba:	4630      	mov	r0, r6
 80059bc:	4639      	mov	r1, r7
 80059be:	f7fa fee9 	bl	8000794 <__aeabi_ddiv>
 80059c2:	f04f 0a01 	mov.w	sl, #1
 80059c6:	4604      	mov	r4, r0
 80059c8:	460d      	mov	r5, r1
 80059ca:	e764      	b.n	8005896 <atan+0xce>
 80059cc:	4b49      	ldr	r3, [pc, #292]	; (8005af4 <atan+0x32c>)
 80059ce:	429e      	cmp	r6, r3
 80059d0:	da1d      	bge.n	8005a0e <atan+0x246>
 80059d2:	ee10 0a10 	vmov	r0, s0
 80059d6:	4b48      	ldr	r3, [pc, #288]	; (8005af8 <atan+0x330>)
 80059d8:	2200      	movs	r2, #0
 80059da:	4629      	mov	r1, r5
 80059dc:	f7fa fbf8 	bl	80001d0 <__aeabi_dsub>
 80059e0:	4b45      	ldr	r3, [pc, #276]	; (8005af8 <atan+0x330>)
 80059e2:	4606      	mov	r6, r0
 80059e4:	460f      	mov	r7, r1
 80059e6:	2200      	movs	r2, #0
 80059e8:	4620      	mov	r0, r4
 80059ea:	4629      	mov	r1, r5
 80059ec:	f7fa fda8 	bl	8000540 <__aeabi_dmul>
 80059f0:	4b3e      	ldr	r3, [pc, #248]	; (8005aec <atan+0x324>)
 80059f2:	2200      	movs	r2, #0
 80059f4:	f7fa fbee 	bl	80001d4 <__adddf3>
 80059f8:	4602      	mov	r2, r0
 80059fa:	460b      	mov	r3, r1
 80059fc:	4630      	mov	r0, r6
 80059fe:	4639      	mov	r1, r7
 8005a00:	f7fa fec8 	bl	8000794 <__aeabi_ddiv>
 8005a04:	f04f 0a02 	mov.w	sl, #2
 8005a08:	4604      	mov	r4, r0
 8005a0a:	460d      	mov	r5, r1
 8005a0c:	e743      	b.n	8005896 <atan+0xce>
 8005a0e:	462b      	mov	r3, r5
 8005a10:	ee10 2a10 	vmov	r2, s0
 8005a14:	4939      	ldr	r1, [pc, #228]	; (8005afc <atan+0x334>)
 8005a16:	2000      	movs	r0, #0
 8005a18:	f7fa febc 	bl	8000794 <__aeabi_ddiv>
 8005a1c:	f04f 0a03 	mov.w	sl, #3
 8005a20:	4604      	mov	r4, r0
 8005a22:	460d      	mov	r5, r1
 8005a24:	e737      	b.n	8005896 <atan+0xce>
 8005a26:	4b36      	ldr	r3, [pc, #216]	; (8005b00 <atan+0x338>)
 8005a28:	4e36      	ldr	r6, [pc, #216]	; (8005b04 <atan+0x33c>)
 8005a2a:	eb06 06ca 	add.w	r6, r6, sl, lsl #3
 8005a2e:	eb03 0aca 	add.w	sl, r3, sl, lsl #3
 8005a32:	e9da 2300 	ldrd	r2, r3, [sl]
 8005a36:	f7fa fbcb 	bl	80001d0 <__aeabi_dsub>
 8005a3a:	4622      	mov	r2, r4
 8005a3c:	462b      	mov	r3, r5
 8005a3e:	f7fa fbc7 	bl	80001d0 <__aeabi_dsub>
 8005a42:	4602      	mov	r2, r0
 8005a44:	460b      	mov	r3, r1
 8005a46:	e9d6 0100 	ldrd	r0, r1, [r6]
 8005a4a:	f7fa fbc1 	bl	80001d0 <__aeabi_dsub>
 8005a4e:	f1bb 0f00 	cmp.w	fp, #0
 8005a52:	4604      	mov	r4, r0
 8005a54:	460d      	mov	r5, r1
 8005a56:	f6bf aed6 	bge.w	8005806 <atan+0x3e>
 8005a5a:	f101 4300 	add.w	r3, r1, #2147483648	; 0x80000000
 8005a5e:	461d      	mov	r5, r3
 8005a60:	e6d1      	b.n	8005806 <atan+0x3e>
 8005a62:	a51d      	add	r5, pc, #116	; (adr r5, 8005ad8 <atan+0x310>)
 8005a64:	e9d5 4500 	ldrd	r4, r5, [r5]
 8005a68:	e6cd      	b.n	8005806 <atan+0x3e>
 8005a6a:	bf00      	nop
 8005a6c:	f3af 8000 	nop.w
 8005a70:	54442d18 	.word	0x54442d18
 8005a74:	bff921fb 	.word	0xbff921fb
 8005a78:	8800759c 	.word	0x8800759c
 8005a7c:	7e37e43c 	.word	0x7e37e43c
 8005a80:	e322da11 	.word	0xe322da11
 8005a84:	3f90ad3a 	.word	0x3f90ad3a
 8005a88:	24760deb 	.word	0x24760deb
 8005a8c:	3fa97b4b 	.word	0x3fa97b4b
 8005a90:	a0d03d51 	.word	0xa0d03d51
 8005a94:	3fb10d66 	.word	0x3fb10d66
 8005a98:	c54c206e 	.word	0xc54c206e
 8005a9c:	3fb745cd 	.word	0x3fb745cd
 8005aa0:	920083ff 	.word	0x920083ff
 8005aa4:	3fc24924 	.word	0x3fc24924
 8005aa8:	5555550d 	.word	0x5555550d
 8005aac:	3fd55555 	.word	0x3fd55555
 8005ab0:	2c6a6c2f 	.word	0x2c6a6c2f
 8005ab4:	bfa2b444 	.word	0xbfa2b444
 8005ab8:	52defd9a 	.word	0x52defd9a
 8005abc:	3fadde2d 	.word	0x3fadde2d
 8005ac0:	af749a6d 	.word	0xaf749a6d
 8005ac4:	3fb3b0f2 	.word	0x3fb3b0f2
 8005ac8:	fe231671 	.word	0xfe231671
 8005acc:	3fbc71c6 	.word	0x3fbc71c6
 8005ad0:	9998ebc4 	.word	0x9998ebc4
 8005ad4:	3fc99999 	.word	0x3fc99999
 8005ad8:	54442d18 	.word	0x54442d18
 8005adc:	3ff921fb 	.word	0x3ff921fb
 8005ae0:	440fffff 	.word	0x440fffff
 8005ae4:	7ff00000 	.word	0x7ff00000
 8005ae8:	3fdbffff 	.word	0x3fdbffff
 8005aec:	3ff00000 	.word	0x3ff00000
 8005af0:	3ff2ffff 	.word	0x3ff2ffff
 8005af4:	40038000 	.word	0x40038000
 8005af8:	3ff80000 	.word	0x3ff80000
 8005afc:	bff00000 	.word	0xbff00000
 8005b00:	08006a28 	.word	0x08006a28
 8005b04:	08006a08 	.word	0x08006a08

08005b08 <fabs>:
 8005b08:	ec51 0b10 	vmov	r0, r1, d0
 8005b0c:	ee10 2a10 	vmov	r2, s0
 8005b10:	f021 4300 	bic.w	r3, r1, #2147483648	; 0x80000000
 8005b14:	ec43 2b10 	vmov	d0, r2, r3
 8005b18:	4770      	bx	lr
	...

08005b1c <pow>:
 8005b1c:	b5f8      	push	{r3, r4, r5, r6, r7, lr}
 8005b1e:	ed2d 8b02 	vpush	{d8}
 8005b22:	eeb0 8a40 	vmov.f32	s16, s0
 8005b26:	eef0 8a60 	vmov.f32	s17, s1
 8005b2a:	ec55 4b11 	vmov	r4, r5, d1
 8005b2e:	f000 f893 	bl	8005c58 <__ieee754_pow>
 8005b32:	4622      	mov	r2, r4
 8005b34:	462b      	mov	r3, r5
 8005b36:	4620      	mov	r0, r4
 8005b38:	4629      	mov	r1, r5
 8005b3a:	ec57 6b10 	vmov	r6, r7, d0
 8005b3e:	f7fa ff99 	bl	8000a74 <__aeabi_dcmpun>
 8005b42:	2800      	cmp	r0, #0
 8005b44:	d13b      	bne.n	8005bbe <pow+0xa2>
 8005b46:	ec51 0b18 	vmov	r0, r1, d8
 8005b4a:	2200      	movs	r2, #0
 8005b4c:	2300      	movs	r3, #0
 8005b4e:	f7fa ff5f 	bl	8000a10 <__aeabi_dcmpeq>
 8005b52:	b1b8      	cbz	r0, 8005b84 <pow+0x68>
 8005b54:	2200      	movs	r2, #0
 8005b56:	2300      	movs	r3, #0
 8005b58:	4620      	mov	r0, r4
 8005b5a:	4629      	mov	r1, r5
 8005b5c:	f7fa ff58 	bl	8000a10 <__aeabi_dcmpeq>
 8005b60:	2800      	cmp	r0, #0
 8005b62:	d146      	bne.n	8005bf2 <pow+0xd6>
 8005b64:	ec45 4b10 	vmov	d0, r4, r5
 8005b68:	f000 fe86 	bl	8006878 <finite>
 8005b6c:	b338      	cbz	r0, 8005bbe <pow+0xa2>
 8005b6e:	2200      	movs	r2, #0
 8005b70:	2300      	movs	r3, #0
 8005b72:	4620      	mov	r0, r4
 8005b74:	4629      	mov	r1, r5
 8005b76:	f7fa ff55 	bl	8000a24 <__aeabi_dcmplt>
 8005b7a:	b300      	cbz	r0, 8005bbe <pow+0xa2>
 8005b7c:	f000 ff0e 	bl	800699c <__errno>
 8005b80:	2322      	movs	r3, #34	; 0x22
 8005b82:	e01b      	b.n	8005bbc <pow+0xa0>
 8005b84:	ec47 6b10 	vmov	d0, r6, r7
 8005b88:	f000 fe76 	bl	8006878 <finite>
 8005b8c:	b9e0      	cbnz	r0, 8005bc8 <pow+0xac>
 8005b8e:	eeb0 0a48 	vmov.f32	s0, s16
 8005b92:	eef0 0a68 	vmov.f32	s1, s17
 8005b96:	f000 fe6f 	bl	8006878 <finite>
 8005b9a:	b1a8      	cbz	r0, 8005bc8 <pow+0xac>
 8005b9c:	ec45 4b10 	vmov	d0, r4, r5
 8005ba0:	f000 fe6a 	bl	8006878 <finite>
 8005ba4:	b180      	cbz	r0, 8005bc8 <pow+0xac>
 8005ba6:	4632      	mov	r2, r6
 8005ba8:	463b      	mov	r3, r7
 8005baa:	4630      	mov	r0, r6
 8005bac:	4639      	mov	r1, r7
 8005bae:	f7fa ff61 	bl	8000a74 <__aeabi_dcmpun>
 8005bb2:	2800      	cmp	r0, #0
 8005bb4:	d0e2      	beq.n	8005b7c <pow+0x60>
 8005bb6:	f000 fef1 	bl	800699c <__errno>
 8005bba:	2321      	movs	r3, #33	; 0x21
 8005bbc:	6003      	str	r3, [r0, #0]
 8005bbe:	ecbd 8b02 	vpop	{d8}
 8005bc2:	ec47 6b10 	vmov	d0, r6, r7
 8005bc6:	bdf8      	pop	{r3, r4, r5, r6, r7, pc}
 8005bc8:	2200      	movs	r2, #0
 8005bca:	2300      	movs	r3, #0
 8005bcc:	4630      	mov	r0, r6
 8005bce:	4639      	mov	r1, r7
 8005bd0:	f7fa ff1e 	bl	8000a10 <__aeabi_dcmpeq>
 8005bd4:	2800      	cmp	r0, #0
 8005bd6:	d0f2      	beq.n	8005bbe <pow+0xa2>
 8005bd8:	eeb0 0a48 	vmov.f32	s0, s16
 8005bdc:	eef0 0a68 	vmov.f32	s1, s17
 8005be0:	f000 fe4a 	bl	8006878 <finite>
 8005be4:	2800      	cmp	r0, #0
 8005be6:	d0ea      	beq.n	8005bbe <pow+0xa2>
 8005be8:	ec45 4b10 	vmov	d0, r4, r5
 8005bec:	f000 fe44 	bl	8006878 <finite>
 8005bf0:	e7c3      	b.n	8005b7a <pow+0x5e>
 8005bf2:	4f01      	ldr	r7, [pc, #4]	; (8005bf8 <pow+0xdc>)
 8005bf4:	2600      	movs	r6, #0
 8005bf6:	e7e2      	b.n	8005bbe <pow+0xa2>
 8005bf8:	3ff00000 	.word	0x3ff00000

08005bfc <sqrt>:
 8005bfc:	b538      	push	{r3, r4, r5, lr}
 8005bfe:	ed2d 8b02 	vpush	{d8}
 8005c02:	ec55 4b10 	vmov	r4, r5, d0
 8005c06:	f000 fd55 	bl	80066b4 <__ieee754_sqrt>
 8005c0a:	4622      	mov	r2, r4
 8005c0c:	462b      	mov	r3, r5
 8005c0e:	4620      	mov	r0, r4
 8005c10:	4629      	mov	r1, r5
 8005c12:	eeb0 8a40 	vmov.f32	s16, s0
 8005c16:	eef0 8a60 	vmov.f32	s17, s1
 8005c1a:	f7fa ff2b 	bl	8000a74 <__aeabi_dcmpun>
 8005c1e:	b990      	cbnz	r0, 8005c46 <sqrt+0x4a>
 8005c20:	2200      	movs	r2, #0
 8005c22:	2300      	movs	r3, #0
 8005c24:	4620      	mov	r0, r4
 8005c26:	4629      	mov	r1, r5
 8005c28:	f7fa fefc 	bl	8000a24 <__aeabi_dcmplt>
 8005c2c:	b158      	cbz	r0, 8005c46 <sqrt+0x4a>
 8005c2e:	f000 feb5 	bl	800699c <__errno>
 8005c32:	2321      	movs	r3, #33	; 0x21
 8005c34:	6003      	str	r3, [r0, #0]
 8005c36:	2200      	movs	r2, #0
 8005c38:	2300      	movs	r3, #0
 8005c3a:	4610      	mov	r0, r2
 8005c3c:	4619      	mov	r1, r3
 8005c3e:	f7fa fda9 	bl	8000794 <__aeabi_ddiv>
 8005c42:	ec41 0b18 	vmov	d8, r0, r1
 8005c46:	eeb0 0a48 	vmov.f32	s0, s16
 8005c4a:	eef0 0a68 	vmov.f32	s1, s17
 8005c4e:	ecbd 8b02 	vpop	{d8}
 8005c52:	bd38      	pop	{r3, r4, r5, pc}
 8005c54:	0000      	movs	r0, r0
	...

08005c58 <__ieee754_pow>:
 8005c58:	e92d 4ff0 	stmdb	sp!, {r4, r5, r6, r7, r8, r9, sl, fp, lr}
 8005c5c:	ed2d 8b06 	vpush	{d8-d10}
 8005c60:	b089      	sub	sp, #36	; 0x24
 8005c62:	ed8d 1b00 	vstr	d1, [sp]
 8005c66:	e9dd 2900 	ldrd	r2, r9, [sp]
 8005c6a:	f029 4800 	bic.w	r8, r9, #2147483648	; 0x80000000
 8005c6e:	ea58 0102 	orrs.w	r1, r8, r2
 8005c72:	ec57 6b10 	vmov	r6, r7, d0
 8005c76:	d115      	bne.n	8005ca4 <__ieee754_pow+0x4c>
 8005c78:	19b3      	adds	r3, r6, r6
 8005c7a:	f487 2200 	eor.w	r2, r7, #524288	; 0x80000
 8005c7e:	4152      	adcs	r2, r2
 8005c80:	4299      	cmp	r1, r3
 8005c82:	4b89      	ldr	r3, [pc, #548]	; (8005ea8 <__ieee754_pow+0x250>)
 8005c84:	4193      	sbcs	r3, r2
 8005c86:	f080 84d2 	bcs.w	800662e <__ieee754_pow+0x9d6>
 8005c8a:	e9dd 2300 	ldrd	r2, r3, [sp]
 8005c8e:	4630      	mov	r0, r6
 8005c90:	4639      	mov	r1, r7
 8005c92:	f7fa fa9f 	bl	80001d4 <__adddf3>
 8005c96:	ec41 0b10 	vmov	d0, r0, r1
 8005c9a:	b009      	add	sp, #36	; 0x24
 8005c9c:	ecbd 8b06 	vpop	{d8-d10}
 8005ca0:	e8bd 8ff0 	ldmia.w	sp!, {r4, r5, r6, r7, r8, r9, sl, fp, pc}
 8005ca4:	4b81      	ldr	r3, [pc, #516]	; (8005eac <__ieee754_pow+0x254>)
 8005ca6:	f027 4400 	bic.w	r4, r7, #2147483648	; 0x80000000
 8005caa:	429c      	cmp	r4, r3
 8005cac:	ee10 aa10 	vmov	sl, s0
 8005cb0:	463d      	mov	r5, r7
 8005cb2:	dc06      	bgt.n	8005cc2 <__ieee754_pow+0x6a>
 8005cb4:	d101      	bne.n	8005cba <__ieee754_pow+0x62>
 8005cb6:	2e00      	cmp	r6, #0
 8005cb8:	d1e7      	bne.n	8005c8a <__ieee754_pow+0x32>
 8005cba:	4598      	cmp	r8, r3
 8005cbc:	dc01      	bgt.n	8005cc2 <__ieee754_pow+0x6a>
 8005cbe:	d10f      	bne.n	8005ce0 <__ieee754_pow+0x88>
 8005cc0:	b172      	cbz	r2, 8005ce0 <__ieee754_pow+0x88>
 8005cc2:	f105 4540 	add.w	r5, r5, #3221225472	; 0xc0000000
 8005cc6:	f505 1580 	add.w	r5, r5, #1048576	; 0x100000
 8005cca:	ea55 050a 	orrs.w	r5, r5, sl
 8005cce:	d1dc      	bne.n	8005c8a <__ieee754_pow+0x32>
 8005cd0:	e9dd 3200 	ldrd	r3, r2, [sp]
 8005cd4:	18db      	adds	r3, r3, r3
 8005cd6:	f482 2200 	eor.w	r2, r2, #524288	; 0x80000
 8005cda:	4152      	adcs	r2, r2
 8005cdc:	429d      	cmp	r5, r3
 8005cde:	e7d0      	b.n	8005c82 <__ieee754_pow+0x2a>
 8005ce0:	2d00      	cmp	r5, #0
 8005ce2:	da3b      	bge.n	8005d5c <__ieee754_pow+0x104>
 8005ce4:	4b72      	ldr	r3, [pc, #456]	; (8005eb0 <__ieee754_pow+0x258>)
 8005ce6:	4598      	cmp	r8, r3
 8005ce8:	dc51      	bgt.n	8005d8e <__ieee754_pow+0x136>
 8005cea:	f1a3 7354 	sub.w	r3, r3, #55574528	; 0x3500000
 8005cee:	4598      	cmp	r8, r3
 8005cf0:	f340 84ac 	ble.w	800664c <__ieee754_pow+0x9f4>
 8005cf4:	ea4f 5328 	mov.w	r3, r8, asr #20
 8005cf8:	f2a3 33ff 	subw	r3, r3, #1023	; 0x3ff
 8005cfc:	2b14      	cmp	r3, #20
 8005cfe:	dd0f      	ble.n	8005d20 <__ieee754_pow+0xc8>
 8005d00:	f1c3 0334 	rsb	r3, r3, #52	; 0x34
 8005d04:	fa22 f103 	lsr.w	r1, r2, r3
 8005d08:	fa01 f303 	lsl.w	r3, r1, r3
 8005d0c:	4293      	cmp	r3, r2
 8005d0e:	f040 849d 	bne.w	800664c <__ieee754_pow+0x9f4>
 8005d12:	f001 0101 	and.w	r1, r1, #1
 8005d16:	f1c1 0302 	rsb	r3, r1, #2
 8005d1a:	9304      	str	r3, [sp, #16]
 8005d1c:	b182      	cbz	r2, 8005d40 <__ieee754_pow+0xe8>
 8005d1e:	e05f      	b.n	8005de0 <__ieee754_pow+0x188>
 8005d20:	2a00      	cmp	r2, #0
 8005d22:	d15b      	bne.n	8005ddc <__ieee754_pow+0x184>
 8005d24:	f1c3 0314 	rsb	r3, r3, #20
 8005d28:	fa48 f103 	asr.w	r1, r8, r3
 8005d2c:	fa01 f303 	lsl.w	r3, r1, r3
 8005d30:	4543      	cmp	r3, r8
 8005d32:	f040 8488 	bne.w	8006646 <__ieee754_pow+0x9ee>
 8005d36:	f001 0101 	and.w	r1, r1, #1
 8005d3a:	f1c1 0302 	rsb	r3, r1, #2
 8005d3e:	9304      	str	r3, [sp, #16]
 8005d40:	4b5c      	ldr	r3, [pc, #368]	; (8005eb4 <__ieee754_pow+0x25c>)
 8005d42:	4598      	cmp	r8, r3
 8005d44:	d132      	bne.n	8005dac <__ieee754_pow+0x154>
 8005d46:	f1b9 0f00 	cmp.w	r9, #0
 8005d4a:	f280 8478 	bge.w	800663e <__ieee754_pow+0x9e6>
 8005d4e:	4959      	ldr	r1, [pc, #356]	; (8005eb4 <__ieee754_pow+0x25c>)
 8005d50:	4632      	mov	r2, r6
 8005d52:	463b      	mov	r3, r7
 8005d54:	2000      	movs	r0, #0
 8005d56:	f7fa fd1d 	bl	8000794 <__aeabi_ddiv>
 8005d5a:	e79c      	b.n	8005c96 <__ieee754_pow+0x3e>
 8005d5c:	2300      	movs	r3, #0
 8005d5e:	9304      	str	r3, [sp, #16]
 8005d60:	2a00      	cmp	r2, #0
 8005d62:	d13d      	bne.n	8005de0 <__ieee754_pow+0x188>
 8005d64:	4b51      	ldr	r3, [pc, #324]	; (8005eac <__ieee754_pow+0x254>)
 8005d66:	4598      	cmp	r8, r3
 8005d68:	d1ea      	bne.n	8005d40 <__ieee754_pow+0xe8>
 8005d6a:	f104 4340 	add.w	r3, r4, #3221225472	; 0xc0000000
 8005d6e:	f503 1380 	add.w	r3, r3, #1048576	; 0x100000
 8005d72:	ea53 030a 	orrs.w	r3, r3, sl
 8005d76:	f000 845a 	beq.w	800662e <__ieee754_pow+0x9d6>
 8005d7a:	4b4f      	ldr	r3, [pc, #316]	; (8005eb8 <__ieee754_pow+0x260>)
 8005d7c:	429c      	cmp	r4, r3
 8005d7e:	dd08      	ble.n	8005d92 <__ieee754_pow+0x13a>
 8005d80:	f1b9 0f00 	cmp.w	r9, #0
 8005d84:	f2c0 8457 	blt.w	8006636 <__ieee754_pow+0x9de>
 8005d88:	e9dd 0100 	ldrd	r0, r1, [sp]
 8005d8c:	e783      	b.n	8005c96 <__ieee754_pow+0x3e>
 8005d8e:	2302      	movs	r3, #2
 8005d90:	e7e5      	b.n	8005d5e <__ieee754_pow+0x106>
 8005d92:	f1b9 0f00 	cmp.w	r9, #0
 8005d96:	f04f 0000 	mov.w	r0, #0
 8005d9a:	f04f 0100 	mov.w	r1, #0
 8005d9e:	f6bf af7a 	bge.w	8005c96 <__ieee754_pow+0x3e>
 8005da2:	e9dd 0300 	ldrd	r0, r3, [sp]
 8005da6:	f103 4100 	add.w	r1, r3, #2147483648	; 0x80000000
 8005daa:	e774      	b.n	8005c96 <__ieee754_pow+0x3e>
 8005dac:	f1b9 4f80 	cmp.w	r9, #1073741824	; 0x40000000
 8005db0:	d106      	bne.n	8005dc0 <__ieee754_pow+0x168>
 8005db2:	4632      	mov	r2, r6
 8005db4:	463b      	mov	r3, r7
 8005db6:	4630      	mov	r0, r6
 8005db8:	4639      	mov	r1, r7
 8005dba:	f7fa fbc1 	bl	8000540 <__aeabi_dmul>
 8005dbe:	e76a      	b.n	8005c96 <__ieee754_pow+0x3e>
 8005dc0:	4b3e      	ldr	r3, [pc, #248]	; (8005ebc <__ieee754_pow+0x264>)
 8005dc2:	4599      	cmp	r9, r3
 8005dc4:	d10c      	bne.n	8005de0 <__ieee754_pow+0x188>
 8005dc6:	2d00      	cmp	r5, #0
 8005dc8:	db0a      	blt.n	8005de0 <__ieee754_pow+0x188>
 8005dca:	ec47 6b10 	vmov	d0, r6, r7
 8005dce:	b009      	add	sp, #36	; 0x24
 8005dd0:	ecbd 8b06 	vpop	{d8-d10}
 8005dd4:	e8bd 4ff0 	ldmia.w	sp!, {r4, r5, r6, r7, r8, r9, sl, fp, lr}
 8005dd8:	f000 bc6c 	b.w	80066b4 <__ieee754_sqrt>
 8005ddc:	2300      	movs	r3, #0
 8005dde:	9304      	str	r3, [sp, #16]
 8005de0:	ec47 6b10 	vmov	d0, r6, r7
 8005de4:	f7ff fe90 	bl	8005b08 <fabs>
 8005de8:	ec51 0b10 	vmov	r0, r1, d0
 8005dec:	f1ba 0f00 	cmp.w	sl, #0
 8005df0:	d129      	bne.n	8005e46 <__ieee754_pow+0x1ee>
 8005df2:	b124      	cbz	r4, 8005dfe <__ieee754_pow+0x1a6>
 8005df4:	4b2f      	ldr	r3, [pc, #188]	; (8005eb4 <__ieee754_pow+0x25c>)
 8005df6:	f025 4240 	bic.w	r2, r5, #3221225472	; 0xc0000000
 8005dfa:	429a      	cmp	r2, r3
 8005dfc:	d123      	bne.n	8005e46 <__ieee754_pow+0x1ee>
 8005dfe:	f1b9 0f00 	cmp.w	r9, #0
 8005e02:	da05      	bge.n	8005e10 <__ieee754_pow+0x1b8>
 8005e04:	4602      	mov	r2, r0
 8005e06:	460b      	mov	r3, r1
 8005e08:	2000      	movs	r0, #0
 8005e0a:	492a      	ldr	r1, [pc, #168]	; (8005eb4 <__ieee754_pow+0x25c>)
 8005e0c:	f7fa fcc2 	bl	8000794 <__aeabi_ddiv>
 8005e10:	2d00      	cmp	r5, #0
 8005e12:	f6bf af40 	bge.w	8005c96 <__ieee754_pow+0x3e>
 8005e16:	9b04      	ldr	r3, [sp, #16]
 8005e18:	f104 4440 	add.w	r4, r4, #3221225472	; 0xc0000000
 8005e1c:	f504 1480 	add.w	r4, r4, #1048576	; 0x100000
 8005e20:	4323      	orrs	r3, r4
 8005e22:	d108      	bne.n	8005e36 <__ieee754_pow+0x1de>
 8005e24:	4602      	mov	r2, r0
 8005e26:	460b      	mov	r3, r1
 8005e28:	4610      	mov	r0, r2
 8005e2a:	4619      	mov	r1, r3
 8005e2c:	f7fa f9d0 	bl	80001d0 <__aeabi_dsub>
 8005e30:	4602      	mov	r2, r0
 8005e32:	460b      	mov	r3, r1
 8005e34:	e78f      	b.n	8005d56 <__ieee754_pow+0xfe>
 8005e36:	9b04      	ldr	r3, [sp, #16]
 8005e38:	2b01      	cmp	r3, #1
 8005e3a:	f47f af2c 	bne.w	8005c96 <__ieee754_pow+0x3e>
 8005e3e:	f101 4300 	add.w	r3, r1, #2147483648	; 0x80000000
 8005e42:	4619      	mov	r1, r3
 8005e44:	e727      	b.n	8005c96 <__ieee754_pow+0x3e>
 8005e46:	0feb      	lsrs	r3, r5, #31
 8005e48:	3b01      	subs	r3, #1
 8005e4a:	9306      	str	r3, [sp, #24]
 8005e4c:	9a06      	ldr	r2, [sp, #24]
 8005e4e:	9b04      	ldr	r3, [sp, #16]
 8005e50:	4313      	orrs	r3, r2
 8005e52:	d102      	bne.n	8005e5a <__ieee754_pow+0x202>
 8005e54:	4632      	mov	r2, r6
 8005e56:	463b      	mov	r3, r7
 8005e58:	e7e6      	b.n	8005e28 <__ieee754_pow+0x1d0>
 8005e5a:	4b19      	ldr	r3, [pc, #100]	; (8005ec0 <__ieee754_pow+0x268>)
 8005e5c:	4598      	cmp	r8, r3
 8005e5e:	f340 80fb 	ble.w	8006058 <__ieee754_pow+0x400>
 8005e62:	f103 7304 	add.w	r3, r3, #34603008	; 0x2100000
 8005e66:	4598      	cmp	r8, r3
 8005e68:	4b13      	ldr	r3, [pc, #76]	; (8005eb8 <__ieee754_pow+0x260>)
 8005e6a:	dd0c      	ble.n	8005e86 <__ieee754_pow+0x22e>
 8005e6c:	429c      	cmp	r4, r3
 8005e6e:	dc0f      	bgt.n	8005e90 <__ieee754_pow+0x238>
 8005e70:	f1b9 0f00 	cmp.w	r9, #0
 8005e74:	da0f      	bge.n	8005e96 <__ieee754_pow+0x23e>
 8005e76:	2000      	movs	r0, #0
 8005e78:	b009      	add	sp, #36	; 0x24
 8005e7a:	ecbd 8b06 	vpop	{d8-d10}
 8005e7e:	e8bd 4ff0 	ldmia.w	sp!, {r4, r5, r6, r7, r8, r9, sl, fp, lr}
 8005e82:	f000 bcf0 	b.w	8006866 <__math_oflow>
 8005e86:	429c      	cmp	r4, r3
 8005e88:	dbf2      	blt.n	8005e70 <__ieee754_pow+0x218>
 8005e8a:	4b0a      	ldr	r3, [pc, #40]	; (8005eb4 <__ieee754_pow+0x25c>)
 8005e8c:	429c      	cmp	r4, r3
 8005e8e:	dd19      	ble.n	8005ec4 <__ieee754_pow+0x26c>
 8005e90:	f1b9 0f00 	cmp.w	r9, #0
 8005e94:	dcef      	bgt.n	8005e76 <__ieee754_pow+0x21e>
 8005e96:	2000      	movs	r0, #0
 8005e98:	b009      	add	sp, #36	; 0x24
 8005e9a:	ecbd 8b06 	vpop	{d8-d10}
 8005e9e:	e8bd 4ff0 	ldmia.w	sp!, {r4, r5, r6, r7, r8, r9, sl, fp, lr}
 8005ea2:	f000 bcd7 	b.w	8006854 <__math_uflow>
 8005ea6:	bf00      	nop
 8005ea8:	fff00000 	.word	0xfff00000
 8005eac:	7ff00000 	.word	0x7ff00000
 8005eb0:	433fffff 	.word	0x433fffff
 8005eb4:	3ff00000 	.word	0x3ff00000
 8005eb8:	3fefffff 	.word	0x3fefffff
 8005ebc:	3fe00000 	.word	0x3fe00000
 8005ec0:	41e00000 	.word	0x41e00000
 8005ec4:	4b60      	ldr	r3, [pc, #384]	; (8006048 <__ieee754_pow+0x3f0>)
 8005ec6:	2200      	movs	r2, #0
 8005ec8:	f7fa f982 	bl	80001d0 <__aeabi_dsub>
 8005ecc:	a354      	add	r3, pc, #336	; (adr r3, 8006020 <__ieee754_pow+0x3c8>)
 8005ece:	e9d3 2300 	ldrd	r2, r3, [r3]
 8005ed2:	4604      	mov	r4, r0
 8005ed4:	460d      	mov	r5, r1
 8005ed6:	f7fa fb33 	bl	8000540 <__aeabi_dmul>
 8005eda:	a353      	add	r3, pc, #332	; (adr r3, 8006028 <__ieee754_pow+0x3d0>)
 8005edc:	e9d3 2300 	ldrd	r2, r3, [r3]
 8005ee0:	4606      	mov	r6, r0
 8005ee2:	460f      	mov	r7, r1
 8005ee4:	4620      	mov	r0, r4
 8005ee6:	4629      	mov	r1, r5
 8005ee8:	f7fa fb2a 	bl	8000540 <__aeabi_dmul>
 8005eec:	4b57      	ldr	r3, [pc, #348]	; (800604c <__ieee754_pow+0x3f4>)
 8005eee:	4682      	mov	sl, r0
 8005ef0:	468b      	mov	fp, r1
 8005ef2:	2200      	movs	r2, #0
 8005ef4:	4620      	mov	r0, r4
 8005ef6:	4629      	mov	r1, r5
 8005ef8:	f7fa fb22 	bl	8000540 <__aeabi_dmul>
 8005efc:	4602      	mov	r2, r0
 8005efe:	460b      	mov	r3, r1
 8005f00:	a14b      	add	r1, pc, #300	; (adr r1, 8006030 <__ieee754_pow+0x3d8>)
 8005f02:	e9d1 0100 	ldrd	r0, r1, [r1]
 8005f06:	f7fa f963 	bl	80001d0 <__aeabi_dsub>
 8005f0a:	4622      	mov	r2, r4
 8005f0c:	462b      	mov	r3, r5
 8005f0e:	f7fa fb17 	bl	8000540 <__aeabi_dmul>
 8005f12:	4602      	mov	r2, r0
 8005f14:	460b      	mov	r3, r1
 8005f16:	2000      	movs	r0, #0
 8005f18:	494d      	ldr	r1, [pc, #308]	; (8006050 <__ieee754_pow+0x3f8>)
 8005f1a:	f7fa f959 	bl	80001d0 <__aeabi_dsub>
 8005f1e:	4622      	mov	r2, r4
 8005f20:	4680      	mov	r8, r0
 8005f22:	4689      	mov	r9, r1
 8005f24:	462b      	mov	r3, r5
 8005f26:	4620      	mov	r0, r4
 8005f28:	4629      	mov	r1, r5
 8005f2a:	f7fa fb09 	bl	8000540 <__aeabi_dmul>
 8005f2e:	4602      	mov	r2, r0
 8005f30:	460b      	mov	r3, r1
 8005f32:	4640      	mov	r0, r8
 8005f34:	4649      	mov	r1, r9
 8005f36:	f7fa fb03 	bl	8000540 <__aeabi_dmul>
 8005f3a:	a33f      	add	r3, pc, #252	; (adr r3, 8006038 <__ieee754_pow+0x3e0>)
 8005f3c:	e9d3 2300 	ldrd	r2, r3, [r3]
 8005f40:	f7fa fafe 	bl	8000540 <__aeabi_dmul>
 8005f44:	4602      	mov	r2, r0
 8005f46:	460b      	mov	r3, r1
 8005f48:	4650      	mov	r0, sl
 8005f4a:	4659      	mov	r1, fp
 8005f4c:	f7fa f940 	bl	80001d0 <__aeabi_dsub>
 8005f50:	4602      	mov	r2, r0
 8005f52:	460b      	mov	r3, r1
 8005f54:	4680      	mov	r8, r0
 8005f56:	4689      	mov	r9, r1
 8005f58:	4630      	mov	r0, r6
 8005f5a:	4639      	mov	r1, r7
 8005f5c:	f7fa f93a 	bl	80001d4 <__adddf3>
 8005f60:	2000      	movs	r0, #0
 8005f62:	4632      	mov	r2, r6
 8005f64:	463b      	mov	r3, r7
 8005f66:	4604      	mov	r4, r0
 8005f68:	460d      	mov	r5, r1
 8005f6a:	f7fa f931 	bl	80001d0 <__aeabi_dsub>
 8005f6e:	4602      	mov	r2, r0
 8005f70:	460b      	mov	r3, r1
 8005f72:	4640      	mov	r0, r8
 8005f74:	4649      	mov	r1, r9
 8005f76:	f7fa f92b 	bl	80001d0 <__aeabi_dsub>
 8005f7a:	9b04      	ldr	r3, [sp, #16]
 8005f7c:	9a06      	ldr	r2, [sp, #24]
 8005f7e:	3b01      	subs	r3, #1
 8005f80:	4313      	orrs	r3, r2
 8005f82:	4682      	mov	sl, r0
 8005f84:	468b      	mov	fp, r1
 8005f86:	f040 81e7 	bne.w	8006358 <__ieee754_pow+0x700>
 8005f8a:	ed9f 7b2d 	vldr	d7, [pc, #180]	; 8006040 <__ieee754_pow+0x3e8>
 8005f8e:	eeb0 8a47 	vmov.f32	s16, s14
 8005f92:	eef0 8a67 	vmov.f32	s17, s15
 8005f96:	e9dd 6700 	ldrd	r6, r7, [sp]
 8005f9a:	2600      	movs	r6, #0
 8005f9c:	4632      	mov	r2, r6
 8005f9e:	463b      	mov	r3, r7
 8005fa0:	e9dd 0100 	ldrd	r0, r1, [sp]
 8005fa4:	f7fa f914 	bl	80001d0 <__aeabi_dsub>
 8005fa8:	4622      	mov	r2, r4
 8005faa:	462b      	mov	r3, r5
 8005fac:	f7fa fac8 	bl	8000540 <__aeabi_dmul>
 8005fb0:	e9dd 2300 	ldrd	r2, r3, [sp]
 8005fb4:	4680      	mov	r8, r0
 8005fb6:	4689      	mov	r9, r1
 8005fb8:	4650      	mov	r0, sl
 8005fba:	4659      	mov	r1, fp
 8005fbc:	f7fa fac0 	bl	8000540 <__aeabi_dmul>
 8005fc0:	4602      	mov	r2, r0
 8005fc2:	460b      	mov	r3, r1
 8005fc4:	4640      	mov	r0, r8
 8005fc6:	4649      	mov	r1, r9
 8005fc8:	f7fa f904 	bl	80001d4 <__adddf3>
 8005fcc:	4632      	mov	r2, r6
 8005fce:	463b      	mov	r3, r7
 8005fd0:	4680      	mov	r8, r0
 8005fd2:	4689      	mov	r9, r1
 8005fd4:	4620      	mov	r0, r4
 8005fd6:	4629      	mov	r1, r5
 8005fd8:	f7fa fab2 	bl	8000540 <__aeabi_dmul>
 8005fdc:	460b      	mov	r3, r1
 8005fde:	4604      	mov	r4, r0
 8005fe0:	460d      	mov	r5, r1
 8005fe2:	4602      	mov	r2, r0
 8005fe4:	4649      	mov	r1, r9
 8005fe6:	4640      	mov	r0, r8
 8005fe8:	f7fa f8f4 	bl	80001d4 <__adddf3>
 8005fec:	4b19      	ldr	r3, [pc, #100]	; (8006054 <__ieee754_pow+0x3fc>)
 8005fee:	4299      	cmp	r1, r3
 8005ff0:	ec45 4b19 	vmov	d9, r4, r5
 8005ff4:	4606      	mov	r6, r0
 8005ff6:	460f      	mov	r7, r1
 8005ff8:	468b      	mov	fp, r1
 8005ffa:	f340 82f1 	ble.w	80065e0 <__ieee754_pow+0x988>
 8005ffe:	f101 433f 	add.w	r3, r1, #3204448256	; 0xbf000000
 8006002:	f503 03e0 	add.w	r3, r3, #7340032	; 0x700000
 8006006:	4303      	orrs	r3, r0
 8006008:	f000 81e4 	beq.w	80063d4 <__ieee754_pow+0x77c>
 800600c:	ec51 0b18 	vmov	r0, r1, d8
 8006010:	2200      	movs	r2, #0
 8006012:	2300      	movs	r3, #0
 8006014:	f7fa fd06 	bl	8000a24 <__aeabi_dcmplt>
 8006018:	3800      	subs	r0, #0
 800601a:	bf18      	it	ne
 800601c:	2001      	movne	r0, #1
 800601e:	e72b      	b.n	8005e78 <__ieee754_pow+0x220>
 8006020:	60000000 	.word	0x60000000
 8006024:	3ff71547 	.word	0x3ff71547
 8006028:	f85ddf44 	.word	0xf85ddf44
 800602c:	3e54ae0b 	.word	0x3e54ae0b
 8006030:	55555555 	.word	0x55555555
 8006034:	3fd55555 	.word	0x3fd55555
 8006038:	652b82fe 	.word	0x652b82fe
 800603c:	3ff71547 	.word	0x3ff71547
 8006040:	00000000 	.word	0x00000000
 8006044:	bff00000 	.word	0xbff00000
 8006048:	3ff00000 	.word	0x3ff00000
 800604c:	3fd00000 	.word	0x3fd00000
 8006050:	3fe00000 	.word	0x3fe00000
 8006054:	408fffff 	.word	0x408fffff
 8006058:	4bd5      	ldr	r3, [pc, #852]	; (80063b0 <__ieee754_pow+0x758>)
 800605a:	402b      	ands	r3, r5
 800605c:	2200      	movs	r2, #0
 800605e:	b92b      	cbnz	r3, 800606c <__ieee754_pow+0x414>
 8006060:	4bd4      	ldr	r3, [pc, #848]	; (80063b4 <__ieee754_pow+0x75c>)
 8006062:	f7fa fa6d 	bl	8000540 <__aeabi_dmul>
 8006066:	f06f 0234 	mvn.w	r2, #52	; 0x34
 800606a:	460c      	mov	r4, r1
 800606c:	1523      	asrs	r3, r4, #20
 800606e:	f2a3 33ff 	subw	r3, r3, #1023	; 0x3ff
 8006072:	4413      	add	r3, r2
 8006074:	9305      	str	r3, [sp, #20]
 8006076:	4bd0      	ldr	r3, [pc, #832]	; (80063b8 <__ieee754_pow+0x760>)
 8006078:	f3c4 0413 	ubfx	r4, r4, #0, #20
 800607c:	f044 557f 	orr.w	r5, r4, #1069547520	; 0x3fc00000
 8006080:	429c      	cmp	r4, r3
 8006082:	f445 1540 	orr.w	r5, r5, #3145728	; 0x300000
 8006086:	dd08      	ble.n	800609a <__ieee754_pow+0x442>
 8006088:	4bcc      	ldr	r3, [pc, #816]	; (80063bc <__ieee754_pow+0x764>)
 800608a:	429c      	cmp	r4, r3
 800608c:	f340 8162 	ble.w	8006354 <__ieee754_pow+0x6fc>
 8006090:	9b05      	ldr	r3, [sp, #20]
 8006092:	3301      	adds	r3, #1
 8006094:	9305      	str	r3, [sp, #20]
 8006096:	f5a5 1580 	sub.w	r5, r5, #1048576	; 0x100000
 800609a:	2400      	movs	r4, #0
 800609c:	00e3      	lsls	r3, r4, #3
 800609e:	9307      	str	r3, [sp, #28]
 80060a0:	4bc7      	ldr	r3, [pc, #796]	; (80063c0 <__ieee754_pow+0x768>)
 80060a2:	eb03 03c4 	add.w	r3, r3, r4, lsl #3
 80060a6:	ed93 7b00 	vldr	d7, [r3]
 80060aa:	4629      	mov	r1, r5
 80060ac:	ec53 2b17 	vmov	r2, r3, d7
 80060b0:	eeb0 9a47 	vmov.f32	s18, s14
 80060b4:	eef0 9a67 	vmov.f32	s19, s15
 80060b8:	4682      	mov	sl, r0
 80060ba:	f7fa f889 	bl	80001d0 <__aeabi_dsub>
 80060be:	4652      	mov	r2, sl
 80060c0:	4606      	mov	r6, r0
 80060c2:	460f      	mov	r7, r1
 80060c4:	462b      	mov	r3, r5
 80060c6:	ec51 0b19 	vmov	r0, r1, d9
 80060ca:	f7fa f883 	bl	80001d4 <__adddf3>
 80060ce:	4602      	mov	r2, r0
 80060d0:	460b      	mov	r3, r1
 80060d2:	2000      	movs	r0, #0
 80060d4:	49bb      	ldr	r1, [pc, #748]	; (80063c4 <__ieee754_pow+0x76c>)
 80060d6:	f7fa fb5d 	bl	8000794 <__aeabi_ddiv>
 80060da:	ec41 0b1a 	vmov	d10, r0, r1
 80060de:	4602      	mov	r2, r0
 80060e0:	460b      	mov	r3, r1
 80060e2:	4630      	mov	r0, r6
 80060e4:	4639      	mov	r1, r7
 80060e6:	f7fa fa2b 	bl	8000540 <__aeabi_dmul>
 80060ea:	2300      	movs	r3, #0
 80060ec:	e9cd 0102 	strd	r0, r1, [sp, #8]
 80060f0:	9302      	str	r3, [sp, #8]
 80060f2:	e9dd 8902 	ldrd	r8, r9, [sp, #8]
 80060f6:	46ab      	mov	fp, r5
 80060f8:	106d      	asrs	r5, r5, #1
 80060fa:	f045 5500 	orr.w	r5, r5, #536870912	; 0x20000000
 80060fe:	f505 2500 	add.w	r5, r5, #524288	; 0x80000
 8006102:	ec41 0b18 	vmov	d8, r0, r1
 8006106:	eb05 4384 	add.w	r3, r5, r4, lsl #18
 800610a:	2200      	movs	r2, #0
 800610c:	4640      	mov	r0, r8
 800610e:	4649      	mov	r1, r9
 8006110:	4614      	mov	r4, r2
 8006112:	461d      	mov	r5, r3
 8006114:	f7fa fa14 	bl	8000540 <__aeabi_dmul>
 8006118:	4602      	mov	r2, r0
 800611a:	460b      	mov	r3, r1
 800611c:	4630      	mov	r0, r6
 800611e:	4639      	mov	r1, r7
 8006120:	f7fa f856 	bl	80001d0 <__aeabi_dsub>
 8006124:	ec53 2b19 	vmov	r2, r3, d9
 8006128:	4606      	mov	r6, r0
 800612a:	460f      	mov	r7, r1
 800612c:	4620      	mov	r0, r4
 800612e:	4629      	mov	r1, r5
 8006130:	f7fa f84e 	bl	80001d0 <__aeabi_dsub>
 8006134:	4602      	mov	r2, r0
 8006136:	460b      	mov	r3, r1
 8006138:	4650      	mov	r0, sl
 800613a:	4659      	mov	r1, fp
 800613c:	f7fa f848 	bl	80001d0 <__aeabi_dsub>
 8006140:	4642      	mov	r2, r8
 8006142:	464b      	mov	r3, r9
 8006144:	f7fa f9fc 	bl	8000540 <__aeabi_dmul>
 8006148:	4602      	mov	r2, r0
 800614a:	460b      	mov	r3, r1
 800614c:	4630      	mov	r0, r6
 800614e:	4639      	mov	r1, r7
 8006150:	f7fa f83e 	bl	80001d0 <__aeabi_dsub>
 8006154:	ec53 2b1a 	vmov	r2, r3, d10
 8006158:	f7fa f9f2 	bl	8000540 <__aeabi_dmul>
 800615c:	ec53 2b18 	vmov	r2, r3, d8
 8006160:	ec41 0b19 	vmov	d9, r0, r1
 8006164:	ec51 0b18 	vmov	r0, r1, d8
 8006168:	f7fa f9ea 	bl	8000540 <__aeabi_dmul>
 800616c:	a37c      	add	r3, pc, #496	; (adr r3, 8006360 <__ieee754_pow+0x708>)
 800616e:	e9d3 2300 	ldrd	r2, r3, [r3]
 8006172:	4604      	mov	r4, r0
 8006174:	460d      	mov	r5, r1
 8006176:	f7fa f9e3 	bl	8000540 <__aeabi_dmul>
 800617a:	a37b      	add	r3, pc, #492	; (adr r3, 8006368 <__ieee754_pow+0x710>)
 800617c:	e9d3 2300 	ldrd	r2, r3, [r3]
 8006180:	f7fa f828 	bl	80001d4 <__adddf3>
 8006184:	4622      	mov	r2, r4
 8006186:	462b      	mov	r3, r5
 8006188:	f7fa f9da 	bl	8000540 <__aeabi_dmul>
 800618c:	a378      	add	r3, pc, #480	; (adr r3, 8006370 <__ieee754_pow+0x718>)
 800618e:	e9d3 2300 	ldrd	r2, r3, [r3]
 8006192:	f7fa f81f 	bl	80001d4 <__adddf3>
 8006196:	4622      	mov	r2, r4
 8006198:	462b      	mov	r3, r5
 800619a:	f7fa f9d1 	bl	8000540 <__aeabi_dmul>
 800619e:	a376      	add	r3, pc, #472	; (adr r3, 8006378 <__ieee754_pow+0x720>)
 80061a0:	e9d3 2300 	ldrd	r2, r3, [r3]
 80061a4:	f7fa f816 	bl	80001d4 <__adddf3>
 80061a8:	4622      	mov	r2, r4
 80061aa:	462b      	mov	r3, r5
 80061ac:	f7fa f9c8 	bl	8000540 <__aeabi_dmul>
 80061b0:	a373      	add	r3, pc, #460	; (adr r3, 8006380 <__ieee754_pow+0x728>)
 80061b2:	e9d3 2300 	ldrd	r2, r3, [r3]
 80061b6:	f7fa f80d 	bl	80001d4 <__adddf3>
 80061ba:	4622      	mov	r2, r4
 80061bc:	462b      	mov	r3, r5
 80061be:	f7fa f9bf 	bl	8000540 <__aeabi_dmul>
 80061c2:	a371      	add	r3, pc, #452	; (adr r3, 8006388 <__ieee754_pow+0x730>)
 80061c4:	e9d3 2300 	ldrd	r2, r3, [r3]
 80061c8:	f7fa f804 	bl	80001d4 <__adddf3>
 80061cc:	4622      	mov	r2, r4
 80061ce:	4606      	mov	r6, r0
 80061d0:	460f      	mov	r7, r1
 80061d2:	462b      	mov	r3, r5
 80061d4:	4620      	mov	r0, r4
 80061d6:	4629      	mov	r1, r5
 80061d8:	f7fa f9b2 	bl	8000540 <__aeabi_dmul>
 80061dc:	4602      	mov	r2, r0
 80061de:	460b      	mov	r3, r1
 80061e0:	4630      	mov	r0, r6
 80061e2:	4639      	mov	r1, r7
 80061e4:	f7fa f9ac 	bl	8000540 <__aeabi_dmul>
 80061e8:	4642      	mov	r2, r8
 80061ea:	4604      	mov	r4, r0
 80061ec:	460d      	mov	r5, r1
 80061ee:	464b      	mov	r3, r9
 80061f0:	ec51 0b18 	vmov	r0, r1, d8
 80061f4:	f7f9 ffee 	bl	80001d4 <__adddf3>
 80061f8:	ec53 2b19 	vmov	r2, r3, d9
 80061fc:	f7fa f9a0 	bl	8000540 <__aeabi_dmul>
 8006200:	4622      	mov	r2, r4
 8006202:	462b      	mov	r3, r5
 8006204:	f7f9 ffe6 	bl	80001d4 <__adddf3>
 8006208:	4642      	mov	r2, r8
 800620a:	4682      	mov	sl, r0
 800620c:	468b      	mov	fp, r1
 800620e:	464b      	mov	r3, r9
 8006210:	4640      	mov	r0, r8
 8006212:	4649      	mov	r1, r9
 8006214:	f7fa f994 	bl	8000540 <__aeabi_dmul>
 8006218:	4b6b      	ldr	r3, [pc, #428]	; (80063c8 <__ieee754_pow+0x770>)
 800621a:	2200      	movs	r2, #0
 800621c:	4606      	mov	r6, r0
 800621e:	460f      	mov	r7, r1
 8006220:	f7f9 ffd8 	bl	80001d4 <__adddf3>
 8006224:	4652      	mov	r2, sl
 8006226:	465b      	mov	r3, fp
 8006228:	f7f9 ffd4 	bl	80001d4 <__adddf3>
 800622c:	2000      	movs	r0, #0
 800622e:	4604      	mov	r4, r0
 8006230:	460d      	mov	r5, r1
 8006232:	4602      	mov	r2, r0
 8006234:	460b      	mov	r3, r1
 8006236:	4640      	mov	r0, r8
 8006238:	4649      	mov	r1, r9
 800623a:	f7fa f981 	bl	8000540 <__aeabi_dmul>
 800623e:	4b62      	ldr	r3, [pc, #392]	; (80063c8 <__ieee754_pow+0x770>)
 8006240:	4680      	mov	r8, r0
 8006242:	4689      	mov	r9, r1
 8006244:	2200      	movs	r2, #0
 8006246:	4620      	mov	r0, r4
 8006248:	4629      	mov	r1, r5
 800624a:	f7f9 ffc1 	bl	80001d0 <__aeabi_dsub>
 800624e:	4632      	mov	r2, r6
 8006250:	463b      	mov	r3, r7
 8006252:	f7f9 ffbd 	bl	80001d0 <__aeabi_dsub>
 8006256:	4602      	mov	r2, r0
 8006258:	460b      	mov	r3, r1
 800625a:	4650      	mov	r0, sl
 800625c:	4659      	mov	r1, fp
 800625e:	f7f9 ffb7 	bl	80001d0 <__aeabi_dsub>
 8006262:	ec53 2b18 	vmov	r2, r3, d8
 8006266:	f7fa f96b 	bl	8000540 <__aeabi_dmul>
 800626a:	4622      	mov	r2, r4
 800626c:	4606      	mov	r6, r0
 800626e:	460f      	mov	r7, r1
 8006270:	462b      	mov	r3, r5
 8006272:	ec51 0b19 	vmov	r0, r1, d9
 8006276:	f7fa f963 	bl	8000540 <__aeabi_dmul>
 800627a:	4602      	mov	r2, r0
 800627c:	460b      	mov	r3, r1
 800627e:	4630      	mov	r0, r6
 8006280:	4639      	mov	r1, r7
 8006282:	f7f9 ffa7 	bl	80001d4 <__adddf3>
 8006286:	4606      	mov	r6, r0
 8006288:	460f      	mov	r7, r1
 800628a:	4602      	mov	r2, r0
 800628c:	460b      	mov	r3, r1
 800628e:	4640      	mov	r0, r8
 8006290:	4649      	mov	r1, r9
 8006292:	f7f9 ff9f 	bl	80001d4 <__adddf3>
 8006296:	a33e      	add	r3, pc, #248	; (adr r3, 8006390 <__ieee754_pow+0x738>)
 8006298:	e9d3 2300 	ldrd	r2, r3, [r3]
 800629c:	2000      	movs	r0, #0
 800629e:	4604      	mov	r4, r0
 80062a0:	460d      	mov	r5, r1
 80062a2:	f7fa f94d 	bl	8000540 <__aeabi_dmul>
 80062a6:	4642      	mov	r2, r8
 80062a8:	ec41 0b18 	vmov	d8, r0, r1
 80062ac:	464b      	mov	r3, r9
 80062ae:	4620      	mov	r0, r4
 80062b0:	4629      	mov	r1, r5
 80062b2:	f7f9 ff8d 	bl	80001d0 <__aeabi_dsub>
 80062b6:	4602      	mov	r2, r0
 80062b8:	460b      	mov	r3, r1
 80062ba:	4630      	mov	r0, r6
 80062bc:	4639      	mov	r1, r7
 80062be:	f7f9 ff87 	bl	80001d0 <__aeabi_dsub>
 80062c2:	a335      	add	r3, pc, #212	; (adr r3, 8006398 <__ieee754_pow+0x740>)
 80062c4:	e9d3 2300 	ldrd	r2, r3, [r3]
 80062c8:	f7fa f93a 	bl	8000540 <__aeabi_dmul>
 80062cc:	a334      	add	r3, pc, #208	; (adr r3, 80063a0 <__ieee754_pow+0x748>)
 80062ce:	e9d3 2300 	ldrd	r2, r3, [r3]
 80062d2:	4606      	mov	r6, r0
 80062d4:	460f      	mov	r7, r1
 80062d6:	4620      	mov	r0, r4
 80062d8:	4629      	mov	r1, r5
 80062da:	f7fa f931 	bl	8000540 <__aeabi_dmul>
 80062de:	4602      	mov	r2, r0
 80062e0:	460b      	mov	r3, r1
 80062e2:	4630      	mov	r0, r6
 80062e4:	4639      	mov	r1, r7
 80062e6:	f7f9 ff75 	bl	80001d4 <__adddf3>
 80062ea:	9a07      	ldr	r2, [sp, #28]
 80062ec:	4b37      	ldr	r3, [pc, #220]	; (80063cc <__ieee754_pow+0x774>)
 80062ee:	4413      	add	r3, r2
 80062f0:	e9d3 2300 	ldrd	r2, r3, [r3]
 80062f4:	f7f9 ff6e 	bl	80001d4 <__adddf3>
 80062f8:	4682      	mov	sl, r0
 80062fa:	9805      	ldr	r0, [sp, #20]
 80062fc:	468b      	mov	fp, r1
 80062fe:	f7fa f8b5 	bl	800046c <__aeabi_i2d>
 8006302:	9a07      	ldr	r2, [sp, #28]
 8006304:	4b32      	ldr	r3, [pc, #200]	; (80063d0 <__ieee754_pow+0x778>)
 8006306:	4413      	add	r3, r2
 8006308:	e9d3 8900 	ldrd	r8, r9, [r3]
 800630c:	4606      	mov	r6, r0
 800630e:	460f      	mov	r7, r1
 8006310:	4652      	mov	r2, sl
 8006312:	465b      	mov	r3, fp
 8006314:	ec51 0b18 	vmov	r0, r1, d8
 8006318:	f7f9 ff5c 	bl	80001d4 <__adddf3>
 800631c:	4642      	mov	r2, r8
 800631e:	464b      	mov	r3, r9
 8006320:	f7f9 ff58 	bl	80001d4 <__adddf3>
 8006324:	4632      	mov	r2, r6
 8006326:	463b      	mov	r3, r7
 8006328:	f7f9 ff54 	bl	80001d4 <__adddf3>
 800632c:	2000      	movs	r0, #0
 800632e:	4632      	mov	r2, r6
 8006330:	463b      	mov	r3, r7
 8006332:	4604      	mov	r4, r0
 8006334:	460d      	mov	r5, r1
 8006336:	f7f9 ff4b 	bl	80001d0 <__aeabi_dsub>
 800633a:	4642      	mov	r2, r8
 800633c:	464b      	mov	r3, r9
 800633e:	f7f9 ff47 	bl	80001d0 <__aeabi_dsub>
 8006342:	ec53 2b18 	vmov	r2, r3, d8
 8006346:	f7f9 ff43 	bl	80001d0 <__aeabi_dsub>
 800634a:	4602      	mov	r2, r0
 800634c:	460b      	mov	r3, r1
 800634e:	4650      	mov	r0, sl
 8006350:	4659      	mov	r1, fp
 8006352:	e610      	b.n	8005f76 <__ieee754_pow+0x31e>
 8006354:	2401      	movs	r4, #1
 8006356:	e6a1      	b.n	800609c <__ieee754_pow+0x444>
 8006358:	ed9f 7b13 	vldr	d7, [pc, #76]	; 80063a8 <__ieee754_pow+0x750>
 800635c:	e617      	b.n	8005f8e <__ieee754_pow+0x336>
 800635e:	bf00      	nop
 8006360:	4a454eef 	.word	0x4a454eef
 8006364:	3fca7e28 	.word	0x3fca7e28
 8006368:	93c9db65 	.word	0x93c9db65
 800636c:	3fcd864a 	.word	0x3fcd864a
 8006370:	a91d4101 	.word	0xa91d4101
 8006374:	3fd17460 	.word	0x3fd17460
 8006378:	518f264d 	.word	0x518f264d
 800637c:	3fd55555 	.word	0x3fd55555
 8006380:	db6fabff 	.word	0xdb6fabff
 8006384:	3fdb6db6 	.word	0x3fdb6db6
 8006388:	33333303 	.word	0x33333303
 800638c:	3fe33333 	.word	0x3fe33333
 8006390:	e0000000 	.word	0xe0000000
 8006394:	3feec709 	.word	0x3feec709
 8006398:	dc3a03fd 	.word	0xdc3a03fd
 800639c:	3feec709 	.word	0x3feec709
 80063a0:	145b01f5 	.word	0x145b01f5
 80063a4:	be3e2fe0 	.word	0xbe3e2fe0
 80063a8:	00000000 	.word	0x00000000
 80063ac:	3ff00000 	.word	0x3ff00000
 80063b0:	7ff00000 	.word	0x7ff00000
 80063b4:	43400000 	.word	0x43400000
 80063b8:	0003988e 	.word	0x0003988e
 80063bc:	000bb679 	.word	0x000bb679
 80063c0:	08006a48 	.word	0x08006a48
 80063c4:	3ff00000 	.word	0x3ff00000
 80063c8:	40080000 	.word	0x40080000
 80063cc:	08006a68 	.word	0x08006a68
 80063d0:	08006a58 	.word	0x08006a58
 80063d4:	a3b5      	add	r3, pc, #724	; (adr r3, 80066ac <__ieee754_pow+0xa54>)
 80063d6:	e9d3 2300 	ldrd	r2, r3, [r3]
 80063da:	4640      	mov	r0, r8
 80063dc:	4649      	mov	r1, r9
 80063de:	f7f9 fef9 	bl	80001d4 <__adddf3>
 80063e2:	4622      	mov	r2, r4
 80063e4:	ec41 0b1a 	vmov	d10, r0, r1
 80063e8:	462b      	mov	r3, r5
 80063ea:	4630      	mov	r0, r6
 80063ec:	4639      	mov	r1, r7
 80063ee:	f7f9 feef 	bl	80001d0 <__aeabi_dsub>
 80063f2:	4602      	mov	r2, r0
 80063f4:	460b      	mov	r3, r1
 80063f6:	ec51 0b1a 	vmov	r0, r1, d10
 80063fa:	f7fa fb31 	bl	8000a60 <__aeabi_dcmpgt>
 80063fe:	2800      	cmp	r0, #0
 8006400:	f47f ae04 	bne.w	800600c <__ieee754_pow+0x3b4>
 8006404:	4aa4      	ldr	r2, [pc, #656]	; (8006698 <__ieee754_pow+0xa40>)
 8006406:	f02b 4300 	bic.w	r3, fp, #2147483648	; 0x80000000
 800640a:	4293      	cmp	r3, r2
 800640c:	f340 8108 	ble.w	8006620 <__ieee754_pow+0x9c8>
 8006410:	151b      	asrs	r3, r3, #20
 8006412:	f44f 1a80 	mov.w	sl, #1048576	; 0x100000
 8006416:	f2a3 33fe 	subw	r3, r3, #1022	; 0x3fe
 800641a:	fa4a f303 	asr.w	r3, sl, r3
 800641e:	445b      	add	r3, fp
 8006420:	f3c3 520a 	ubfx	r2, r3, #20, #11
 8006424:	4e9d      	ldr	r6, [pc, #628]	; (800669c <__ieee754_pow+0xa44>)
 8006426:	f2a2 32ff 	subw	r2, r2, #1023	; 0x3ff
 800642a:	4116      	asrs	r6, r2
 800642c:	f3c3 0a13 	ubfx	sl, r3, #0, #20
 8006430:	2000      	movs	r0, #0
 8006432:	ea23 0106 	bic.w	r1, r3, r6
 8006436:	f1c2 0214 	rsb	r2, r2, #20
 800643a:	f44a 1a80 	orr.w	sl, sl, #1048576	; 0x100000
 800643e:	fa4a fa02 	asr.w	sl, sl, r2
 8006442:	f1bb 0f00 	cmp.w	fp, #0
 8006446:	4602      	mov	r2, r0
 8006448:	460b      	mov	r3, r1
 800644a:	4620      	mov	r0, r4
 800644c:	4629      	mov	r1, r5
 800644e:	bfb8      	it	lt
 8006450:	f1ca 0a00 	rsblt	sl, sl, #0
 8006454:	f7f9 febc 	bl	80001d0 <__aeabi_dsub>
 8006458:	ec41 0b19 	vmov	d9, r0, r1
 800645c:	4642      	mov	r2, r8
 800645e:	464b      	mov	r3, r9
 8006460:	ec51 0b19 	vmov	r0, r1, d9
 8006464:	f7f9 feb6 	bl	80001d4 <__adddf3>
 8006468:	a37b      	add	r3, pc, #492	; (adr r3, 8006658 <__ieee754_pow+0xa00>)
 800646a:	e9d3 2300 	ldrd	r2, r3, [r3]
 800646e:	2000      	movs	r0, #0
 8006470:	4604      	mov	r4, r0
 8006472:	460d      	mov	r5, r1
 8006474:	f7fa f864 	bl	8000540 <__aeabi_dmul>
 8006478:	ec53 2b19 	vmov	r2, r3, d9
 800647c:	4606      	mov	r6, r0
 800647e:	460f      	mov	r7, r1
 8006480:	4620      	mov	r0, r4
 8006482:	4629      	mov	r1, r5
 8006484:	f7f9 fea4 	bl	80001d0 <__aeabi_dsub>
 8006488:	4602      	mov	r2, r0
 800648a:	460b      	mov	r3, r1
 800648c:	4640      	mov	r0, r8
 800648e:	4649      	mov	r1, r9
 8006490:	f7f9 fe9e 	bl	80001d0 <__aeabi_dsub>
 8006494:	a372      	add	r3, pc, #456	; (adr r3, 8006660 <__ieee754_pow+0xa08>)
 8006496:	e9d3 2300 	ldrd	r2, r3, [r3]
 800649a:	f7fa f851 	bl	8000540 <__aeabi_dmul>
 800649e:	a372      	add	r3, pc, #456	; (adr r3, 8006668 <__ieee754_pow+0xa10>)
 80064a0:	e9d3 2300 	ldrd	r2, r3, [r3]
 80064a4:	4680      	mov	r8, r0
 80064a6:	4689      	mov	r9, r1
 80064a8:	4620      	mov	r0, r4
 80064aa:	4629      	mov	r1, r5
 80064ac:	f7fa f848 	bl	8000540 <__aeabi_dmul>
 80064b0:	4602      	mov	r2, r0
 80064b2:	460b      	mov	r3, r1
 80064b4:	4640      	mov	r0, r8
 80064b6:	4649      	mov	r1, r9
 80064b8:	f7f9 fe8c 	bl	80001d4 <__adddf3>
 80064bc:	4604      	mov	r4, r0
 80064be:	460d      	mov	r5, r1
 80064c0:	4602      	mov	r2, r0
 80064c2:	460b      	mov	r3, r1
 80064c4:	4630      	mov	r0, r6
 80064c6:	4639      	mov	r1, r7
 80064c8:	f7f9 fe84 	bl	80001d4 <__adddf3>
 80064cc:	4632      	mov	r2, r6
 80064ce:	463b      	mov	r3, r7
 80064d0:	4680      	mov	r8, r0
 80064d2:	4689      	mov	r9, r1
 80064d4:	f7f9 fe7c 	bl	80001d0 <__aeabi_dsub>
 80064d8:	4602      	mov	r2, r0
 80064da:	460b      	mov	r3, r1
 80064dc:	4620      	mov	r0, r4
 80064de:	4629      	mov	r1, r5
 80064e0:	f7f9 fe76 	bl	80001d0 <__aeabi_dsub>
 80064e4:	4642      	mov	r2, r8
 80064e6:	4606      	mov	r6, r0
 80064e8:	460f      	mov	r7, r1
 80064ea:	464b      	mov	r3, r9
 80064ec:	4640      	mov	r0, r8
 80064ee:	4649      	mov	r1, r9
 80064f0:	f7fa f826 	bl	8000540 <__aeabi_dmul>
 80064f4:	a35e      	add	r3, pc, #376	; (adr r3, 8006670 <__ieee754_pow+0xa18>)
 80064f6:	e9d3 2300 	ldrd	r2, r3, [r3]
 80064fa:	4604      	mov	r4, r0
 80064fc:	460d      	mov	r5, r1
 80064fe:	f7fa f81f 	bl	8000540 <__aeabi_dmul>
 8006502:	a35d      	add	r3, pc, #372	; (adr r3, 8006678 <__ieee754_pow+0xa20>)
 8006504:	e9d3 2300 	ldrd	r2, r3, [r3]
 8006508:	f7f9 fe62 	bl	80001d0 <__aeabi_dsub>
 800650c:	4622      	mov	r2, r4
 800650e:	462b      	mov	r3, r5
 8006510:	f7fa f816 	bl	8000540 <__aeabi_dmul>
 8006514:	a35a      	add	r3, pc, #360	; (adr r3, 8006680 <__ieee754_pow+0xa28>)
 8006516:	e9d3 2300 	ldrd	r2, r3, [r3]
 800651a:	f7f9 fe5b 	bl	80001d4 <__adddf3>
 800651e:	4622      	mov	r2, r4
 8006520:	462b      	mov	r3, r5
 8006522:	f7fa f80d 	bl	8000540 <__aeabi_dmul>
 8006526:	a358      	add	r3, pc, #352	; (adr r3, 8006688 <__ieee754_pow+0xa30>)
 8006528:	e9d3 2300 	ldrd	r2, r3, [r3]
 800652c:	f7f9 fe50 	bl	80001d0 <__aeabi_dsub>
 8006530:	4622      	mov	r2, r4
 8006532:	462b      	mov	r3, r5
 8006534:	f7fa f804 	bl	8000540 <__aeabi_dmul>
 8006538:	a355      	add	r3, pc, #340	; (adr r3, 8006690 <__ieee754_pow+0xa38>)
 800653a:	e9d3 2300 	ldrd	r2, r3, [r3]
 800653e:	f7f9 fe49 	bl	80001d4 <__adddf3>
 8006542:	4622      	mov	r2, r4
 8006544:	462b      	mov	r3, r5
 8006546:	f7f9 fffb 	bl	8000540 <__aeabi_dmul>
 800654a:	4602      	mov	r2, r0
 800654c:	460b      	mov	r3, r1
 800654e:	4640      	mov	r0, r8
 8006550:	4649      	mov	r1, r9
 8006552:	f7f9 fe3d 	bl	80001d0 <__aeabi_dsub>
 8006556:	4604      	mov	r4, r0
 8006558:	460d      	mov	r5, r1
 800655a:	4602      	mov	r2, r0
 800655c:	460b      	mov	r3, r1
 800655e:	4640      	mov	r0, r8
 8006560:	4649      	mov	r1, r9
 8006562:	f7f9 ffed 	bl	8000540 <__aeabi_dmul>
 8006566:	2200      	movs	r2, #0
 8006568:	ec41 0b19 	vmov	d9, r0, r1
 800656c:	f04f 4380 	mov.w	r3, #1073741824	; 0x40000000
 8006570:	4620      	mov	r0, r4
 8006572:	4629      	mov	r1, r5
 8006574:	f7f9 fe2c 	bl	80001d0 <__aeabi_dsub>
 8006578:	4602      	mov	r2, r0
 800657a:	460b      	mov	r3, r1
 800657c:	ec51 0b19 	vmov	r0, r1, d9
 8006580:	f7fa f908 	bl	8000794 <__aeabi_ddiv>
 8006584:	4632      	mov	r2, r6
 8006586:	4604      	mov	r4, r0
 8006588:	460d      	mov	r5, r1
 800658a:	463b      	mov	r3, r7
 800658c:	4640      	mov	r0, r8
 800658e:	4649      	mov	r1, r9
 8006590:	f7f9 ffd6 	bl	8000540 <__aeabi_dmul>
 8006594:	4632      	mov	r2, r6
 8006596:	463b      	mov	r3, r7
 8006598:	f7f9 fe1c 	bl	80001d4 <__adddf3>
 800659c:	4602      	mov	r2, r0
 800659e:	460b      	mov	r3, r1
 80065a0:	4620      	mov	r0, r4
 80065a2:	4629      	mov	r1, r5
 80065a4:	f7f9 fe14 	bl	80001d0 <__aeabi_dsub>
 80065a8:	4642      	mov	r2, r8
 80065aa:	464b      	mov	r3, r9
 80065ac:	f7f9 fe10 	bl	80001d0 <__aeabi_dsub>
 80065b0:	460b      	mov	r3, r1
 80065b2:	4602      	mov	r2, r0
 80065b4:	493a      	ldr	r1, [pc, #232]	; (80066a0 <__ieee754_pow+0xa48>)
 80065b6:	2000      	movs	r0, #0
 80065b8:	f7f9 fe0a 	bl	80001d0 <__aeabi_dsub>
 80065bc:	ec41 0b10 	vmov	d0, r0, r1
 80065c0:	ee10 3a90 	vmov	r3, s1
 80065c4:	eb03 530a 	add.w	r3, r3, sl, lsl #20
 80065c8:	f5b3 1f80 	cmp.w	r3, #1048576	; 0x100000
 80065cc:	da2b      	bge.n	8006626 <__ieee754_pow+0x9ce>
 80065ce:	4650      	mov	r0, sl
 80065d0:	f000 f95e 	bl	8006890 <scalbn>
 80065d4:	ec51 0b10 	vmov	r0, r1, d0
 80065d8:	ec53 2b18 	vmov	r2, r3, d8
 80065dc:	f7ff bbed 	b.w	8005dba <__ieee754_pow+0x162>
 80065e0:	4b30      	ldr	r3, [pc, #192]	; (80066a4 <__ieee754_pow+0xa4c>)
 80065e2:	f021 4600 	bic.w	r6, r1, #2147483648	; 0x80000000
 80065e6:	429e      	cmp	r6, r3
 80065e8:	f77f af0c 	ble.w	8006404 <__ieee754_pow+0x7ac>
 80065ec:	4b2e      	ldr	r3, [pc, #184]	; (80066a8 <__ieee754_pow+0xa50>)
 80065ee:	440b      	add	r3, r1
 80065f0:	4303      	orrs	r3, r0
 80065f2:	d009      	beq.n	8006608 <__ieee754_pow+0x9b0>
 80065f4:	ec51 0b18 	vmov	r0, r1, d8
 80065f8:	2200      	movs	r2, #0
 80065fa:	2300      	movs	r3, #0
 80065fc:	f7fa fa12 	bl	8000a24 <__aeabi_dcmplt>
 8006600:	3800      	subs	r0, #0
 8006602:	bf18      	it	ne
 8006604:	2001      	movne	r0, #1
 8006606:	e447      	b.n	8005e98 <__ieee754_pow+0x240>
 8006608:	4622      	mov	r2, r4
 800660a:	462b      	mov	r3, r5
 800660c:	f7f9 fde0 	bl	80001d0 <__aeabi_dsub>
 8006610:	4642      	mov	r2, r8
 8006612:	464b      	mov	r3, r9
 8006614:	f7fa fa1a 	bl	8000a4c <__aeabi_dcmpge>
 8006618:	2800      	cmp	r0, #0
 800661a:	f43f aef3 	beq.w	8006404 <__ieee754_pow+0x7ac>
 800661e:	e7e9      	b.n	80065f4 <__ieee754_pow+0x99c>
 8006620:	f04f 0a00 	mov.w	sl, #0
 8006624:	e71a      	b.n	800645c <__ieee754_pow+0x804>
 8006626:	ec51 0b10 	vmov	r0, r1, d0
 800662a:	4619      	mov	r1, r3
 800662c:	e7d4      	b.n	80065d8 <__ieee754_pow+0x980>
 800662e:	491c      	ldr	r1, [pc, #112]	; (80066a0 <__ieee754_pow+0xa48>)
 8006630:	2000      	movs	r0, #0
 8006632:	f7ff bb30 	b.w	8005c96 <__ieee754_pow+0x3e>
 8006636:	2000      	movs	r0, #0
 8006638:	2100      	movs	r1, #0
 800663a:	f7ff bb2c 	b.w	8005c96 <__ieee754_pow+0x3e>
 800663e:	4630      	mov	r0, r6
 8006640:	4639      	mov	r1, r7
 8006642:	f7ff bb28 	b.w	8005c96 <__ieee754_pow+0x3e>
 8006646:	9204      	str	r2, [sp, #16]
 8006648:	f7ff bb7a 	b.w	8005d40 <__ieee754_pow+0xe8>
 800664c:	2300      	movs	r3, #0
 800664e:	f7ff bb64 	b.w	8005d1a <__ieee754_pow+0xc2>
 8006652:	bf00      	nop
 8006654:	f3af 8000 	nop.w
 8006658:	00000000 	.word	0x00000000
 800665c:	3fe62e43 	.word	0x3fe62e43
 8006660:	fefa39ef 	.word	0xfefa39ef
 8006664:	3fe62e42 	.word	0x3fe62e42
 8006668:	0ca86c39 	.word	0x0ca86c39
 800666c:	be205c61 	.word	0xbe205c61
 8006670:	72bea4d0 	.word	0x72bea4d0
 8006674:	3e663769 	.word	0x3e663769
 8006678:	c5d26bf1 	.word	0xc5d26bf1
 800667c:	3ebbbd41 	.word	0x3ebbbd41
 8006680:	af25de2c 	.word	0xaf25de2c
 8006684:	3f11566a 	.word	0x3f11566a
 8006688:	16bebd93 	.word	0x16bebd93
 800668c:	3f66c16c 	.word	0x3f66c16c
 8006690:	5555553e 	.word	0x5555553e
 8006694:	3fc55555 	.word	0x3fc55555
 8006698:	3fe00000 	.word	0x3fe00000
 800669c:	000fffff 	.word	0x000fffff
 80066a0:	3ff00000 	.word	0x3ff00000
 80066a4:	4090cbff 	.word	0x4090cbff
 80066a8:	3f6f3400 	.word	0x3f6f3400
 80066ac:	652b82fe 	.word	0x652b82fe
 80066b0:	3c971547 	.word	0x3c971547

080066b4 <__ieee754_sqrt>:
 80066b4:	e92d 41f0 	stmdb	sp!, {r4, r5, r6, r7, r8, lr}
 80066b8:	ec55 4b10 	vmov	r4, r5, d0
 80066bc:	4e55      	ldr	r6, [pc, #340]	; (8006814 <__ieee754_sqrt+0x160>)
 80066be:	43ae      	bics	r6, r5
 80066c0:	ee10 0a10 	vmov	r0, s0
 80066c4:	ee10 3a10 	vmov	r3, s0
 80066c8:	462a      	mov	r2, r5
 80066ca:	4629      	mov	r1, r5
 80066cc:	d110      	bne.n	80066f0 <__ieee754_sqrt+0x3c>
 80066ce:	ee10 2a10 	vmov	r2, s0
 80066d2:	462b      	mov	r3, r5
 80066d4:	f7f9 ff34 	bl	8000540 <__aeabi_dmul>
 80066d8:	4602      	mov	r2, r0
 80066da:	460b      	mov	r3, r1
 80066dc:	4620      	mov	r0, r4
 80066de:	4629      	mov	r1, r5
 80066e0:	f7f9 fd78 	bl	80001d4 <__adddf3>
 80066e4:	4604      	mov	r4, r0
 80066e6:	460d      	mov	r5, r1
 80066e8:	ec45 4b10 	vmov	d0, r4, r5
 80066ec:	e8bd 81f0 	ldmia.w	sp!, {r4, r5, r6, r7, r8, pc}
 80066f0:	2d00      	cmp	r5, #0
 80066f2:	dc10      	bgt.n	8006716 <__ieee754_sqrt+0x62>
 80066f4:	f025 4600 	bic.w	r6, r5, #2147483648	; 0x80000000
 80066f8:	4330      	orrs	r0, r6
 80066fa:	d0f5      	beq.n	80066e8 <__ieee754_sqrt+0x34>
 80066fc:	b15d      	cbz	r5, 8006716 <__ieee754_sqrt+0x62>
 80066fe:	ee10 2a10 	vmov	r2, s0
 8006702:	462b      	mov	r3, r5
 8006704:	ee10 0a10 	vmov	r0, s0
 8006708:	f7f9 fd62 	bl	80001d0 <__aeabi_dsub>
 800670c:	4602      	mov	r2, r0
 800670e:	460b      	mov	r3, r1
 8006710:	f7fa f840 	bl	8000794 <__aeabi_ddiv>
 8006714:	e7e6      	b.n	80066e4 <__ieee754_sqrt+0x30>
 8006716:	1512      	asrs	r2, r2, #20
 8006718:	d074      	beq.n	8006804 <__ieee754_sqrt+0x150>
 800671a:	07d4      	lsls	r4, r2, #31
 800671c:	f3c1 0113 	ubfx	r1, r1, #0, #20
 8006720:	f2a2 37ff 	subw	r7, r2, #1023	; 0x3ff
 8006724:	f441 1180 	orr.w	r1, r1, #1048576	; 0x100000
 8006728:	bf5e      	ittt	pl
 800672a:	0fda      	lsrpl	r2, r3, #31
 800672c:	005b      	lslpl	r3, r3, #1
 800672e:	eb02 0141 	addpl.w	r1, r2, r1, lsl #1
 8006732:	2400      	movs	r4, #0
 8006734:	0fda      	lsrs	r2, r3, #31
 8006736:	eb02 0141 	add.w	r1, r2, r1, lsl #1
 800673a:	107f      	asrs	r7, r7, #1
 800673c:	005b      	lsls	r3, r3, #1
 800673e:	2516      	movs	r5, #22
 8006740:	4620      	mov	r0, r4
 8006742:	f44f 1200 	mov.w	r2, #2097152	; 0x200000
 8006746:	1886      	adds	r6, r0, r2
 8006748:	428e      	cmp	r6, r1
 800674a:	bfde      	ittt	le
 800674c:	1b89      	suble	r1, r1, r6
 800674e:	18b0      	addle	r0, r6, r2
 8006750:	18a4      	addle	r4, r4, r2
 8006752:	0049      	lsls	r1, r1, #1
 8006754:	3d01      	subs	r5, #1
 8006756:	eb01 71d3 	add.w	r1, r1, r3, lsr #31
 800675a:	ea4f 0252 	mov.w	r2, r2, lsr #1
 800675e:	ea4f 0343 	mov.w	r3, r3, lsl #1
 8006762:	d1f0      	bne.n	8006746 <__ieee754_sqrt+0x92>
 8006764:	462a      	mov	r2, r5
 8006766:	f04f 0e20 	mov.w	lr, #32
 800676a:	f04f 4600 	mov.w	r6, #2147483648	; 0x80000000
 800676e:	4281      	cmp	r1, r0
 8006770:	eb06 0c05 	add.w	ip, r6, r5
 8006774:	dc02      	bgt.n	800677c <__ieee754_sqrt+0xc8>
 8006776:	d113      	bne.n	80067a0 <__ieee754_sqrt+0xec>
 8006778:	459c      	cmp	ip, r3
 800677a:	d811      	bhi.n	80067a0 <__ieee754_sqrt+0xec>
 800677c:	f1bc 0f00 	cmp.w	ip, #0
 8006780:	eb0c 0506 	add.w	r5, ip, r6
 8006784:	da43      	bge.n	800680e <__ieee754_sqrt+0x15a>
 8006786:	2d00      	cmp	r5, #0
 8006788:	db41      	blt.n	800680e <__ieee754_sqrt+0x15a>
 800678a:	f100 0801 	add.w	r8, r0, #1
 800678e:	1a09      	subs	r1, r1, r0
 8006790:	459c      	cmp	ip, r3
 8006792:	bf88      	it	hi
 8006794:	f101 31ff 	addhi.w	r1, r1, #4294967295
 8006798:	eba3 030c 	sub.w	r3, r3, ip
 800679c:	4432      	add	r2, r6
 800679e:	4640      	mov	r0, r8
 80067a0:	ea4f 7cd3 	mov.w	ip, r3, lsr #31
 80067a4:	f1be 0e01 	subs.w	lr, lr, #1
 80067a8:	eb0c 0141 	add.w	r1, ip, r1, lsl #1
 80067ac:	ea4f 0343 	mov.w	r3, r3, lsl #1
 80067b0:	ea4f 0656 	mov.w	r6, r6, lsr #1
 80067b4:	d1db      	bne.n	800676e <__ieee754_sqrt+0xba>
 80067b6:	430b      	orrs	r3, r1
 80067b8:	d006      	beq.n	80067c8 <__ieee754_sqrt+0x114>
 80067ba:	1c50      	adds	r0, r2, #1
 80067bc:	bf13      	iteet	ne
 80067be:	3201      	addne	r2, #1
 80067c0:	3401      	addeq	r4, #1
 80067c2:	4672      	moveq	r2, lr
 80067c4:	f022 0201 	bicne.w	r2, r2, #1
 80067c8:	1063      	asrs	r3, r4, #1
 80067ca:	0852      	lsrs	r2, r2, #1
 80067cc:	07e1      	lsls	r1, r4, #31
 80067ce:	f103 537f 	add.w	r3, r3, #1069547520	; 0x3fc00000
 80067d2:	f503 1300 	add.w	r3, r3, #2097152	; 0x200000
 80067d6:	bf48      	it	mi
 80067d8:	f042 4200 	orrmi.w	r2, r2, #2147483648	; 0x80000000
 80067dc:	eb03 5507 	add.w	r5, r3, r7, lsl #20
 80067e0:	4614      	mov	r4, r2
 80067e2:	e781      	b.n	80066e8 <__ieee754_sqrt+0x34>
 80067e4:	0ad9      	lsrs	r1, r3, #11
 80067e6:	3815      	subs	r0, #21
 80067e8:	055b      	lsls	r3, r3, #21
 80067ea:	2900      	cmp	r1, #0
 80067ec:	d0fa      	beq.n	80067e4 <__ieee754_sqrt+0x130>
 80067ee:	02cd      	lsls	r5, r1, #11
 80067f0:	d50a      	bpl.n	8006808 <__ieee754_sqrt+0x154>
 80067f2:	f1c2 0420 	rsb	r4, r2, #32
 80067f6:	fa23 f404 	lsr.w	r4, r3, r4
 80067fa:	1e55      	subs	r5, r2, #1
 80067fc:	4093      	lsls	r3, r2
 80067fe:	4321      	orrs	r1, r4
 8006800:	1b42      	subs	r2, r0, r5
 8006802:	e78a      	b.n	800671a <__ieee754_sqrt+0x66>
 8006804:	4610      	mov	r0, r2
 8006806:	e7f0      	b.n	80067ea <__ieee754_sqrt+0x136>
 8006808:	0049      	lsls	r1, r1, #1
 800680a:	3201      	adds	r2, #1
 800680c:	e7ef      	b.n	80067ee <__ieee754_sqrt+0x13a>
 800680e:	4680      	mov	r8, r0
 8006810:	e7bd      	b.n	800678e <__ieee754_sqrt+0xda>
 8006812:	bf00      	nop
 8006814:	7ff00000 	.word	0x7ff00000

08006818 <with_errno>:
 8006818:	b570      	push	{r4, r5, r6, lr}
 800681a:	4604      	mov	r4, r0
 800681c:	460d      	mov	r5, r1
 800681e:	4616      	mov	r6, r2
 8006820:	f000 f8bc 	bl	800699c <__errno>
 8006824:	4629      	mov	r1, r5
 8006826:	6006      	str	r6, [r0, #0]
 8006828:	4620      	mov	r0, r4
 800682a:	bd70      	pop	{r4, r5, r6, pc}

0800682c <xflow>:
 800682c:	b537      	push	{r0, r1, r2, r4, r5, lr}
 800682e:	4614      	mov	r4, r2
 8006830:	461d      	mov	r5, r3
 8006832:	b108      	cbz	r0, 8006838 <xflow+0xc>
 8006834:	f103 4300 	add.w	r3, r3, #2147483648	; 0x80000000
 8006838:	e9cd 2300 	strd	r2, r3, [sp]
 800683c:	e9dd 2300 	ldrd	r2, r3, [sp]
 8006840:	4620      	mov	r0, r4
 8006842:	4629      	mov	r1, r5
 8006844:	f7f9 fe7c 	bl	8000540 <__aeabi_dmul>
 8006848:	2222      	movs	r2, #34	; 0x22
 800684a:	b003      	add	sp, #12
 800684c:	e8bd 4030 	ldmia.w	sp!, {r4, r5, lr}
 8006850:	f7ff bfe2 	b.w	8006818 <with_errno>

08006854 <__math_uflow>:
 8006854:	b508      	push	{r3, lr}
 8006856:	2200      	movs	r2, #0
 8006858:	f04f 5380 	mov.w	r3, #268435456	; 0x10000000
 800685c:	f7ff ffe6 	bl	800682c <xflow>
 8006860:	ec41 0b10 	vmov	d0, r0, r1
 8006864:	bd08      	pop	{r3, pc}

08006866 <__math_oflow>:
 8006866:	b508      	push	{r3, lr}
 8006868:	2200      	movs	r2, #0
 800686a:	f04f 43e0 	mov.w	r3, #1879048192	; 0x70000000
 800686e:	f7ff ffdd 	bl	800682c <xflow>
 8006872:	ec41 0b10 	vmov	d0, r0, r1
 8006876:	bd08      	pop	{r3, pc}

08006878 <finite>:
 8006878:	b082      	sub	sp, #8
 800687a:	ed8d 0b00 	vstr	d0, [sp]
 800687e:	9801      	ldr	r0, [sp, #4]
 8006880:	f040 4000 	orr.w	r0, r0, #2147483648	; 0x80000000
 8006884:	f500 1080 	add.w	r0, r0, #1048576	; 0x100000
 8006888:	0fc0      	lsrs	r0, r0, #31
 800688a:	b002      	add	sp, #8
 800688c:	4770      	bx	lr
	...

08006890 <scalbn>:
 8006890:	b570      	push	{r4, r5, r6, lr}
 8006892:	ec55 4b10 	vmov	r4, r5, d0
 8006896:	f3c5 520a 	ubfx	r2, r5, #20, #11
 800689a:	4606      	mov	r6, r0
 800689c:	462b      	mov	r3, r5
 800689e:	b99a      	cbnz	r2, 80068c8 <scalbn+0x38>
 80068a0:	f025 4300 	bic.w	r3, r5, #2147483648	; 0x80000000
 80068a4:	4323      	orrs	r3, r4
 80068a6:	d036      	beq.n	8006916 <scalbn+0x86>
 80068a8:	4b39      	ldr	r3, [pc, #228]	; (8006990 <scalbn+0x100>)
 80068aa:	4629      	mov	r1, r5
 80068ac:	ee10 0a10 	vmov	r0, s0
 80068b0:	2200      	movs	r2, #0
 80068b2:	f7f9 fe45 	bl	8000540 <__aeabi_dmul>
 80068b6:	4b37      	ldr	r3, [pc, #220]	; (8006994 <scalbn+0x104>)
 80068b8:	429e      	cmp	r6, r3
 80068ba:	4604      	mov	r4, r0
 80068bc:	460d      	mov	r5, r1
 80068be:	da10      	bge.n	80068e2 <scalbn+0x52>
 80068c0:	a32b      	add	r3, pc, #172	; (adr r3, 8006970 <scalbn+0xe0>)
 80068c2:	e9d3 2300 	ldrd	r2, r3, [r3]
 80068c6:	e03a      	b.n	800693e <scalbn+0xae>
 80068c8:	f240 71ff 	movw	r1, #2047	; 0x7ff
 80068cc:	428a      	cmp	r2, r1
 80068ce:	d10c      	bne.n	80068ea <scalbn+0x5a>
 80068d0:	ee10 2a10 	vmov	r2, s0
 80068d4:	4620      	mov	r0, r4
 80068d6:	4629      	mov	r1, r5
 80068d8:	f7f9 fc7c 	bl	80001d4 <__adddf3>
 80068dc:	4604      	mov	r4, r0
 80068de:	460d      	mov	r5, r1
 80068e0:	e019      	b.n	8006916 <scalbn+0x86>
 80068e2:	f3c1 520a 	ubfx	r2, r1, #20, #11
 80068e6:	460b      	mov	r3, r1
 80068e8:	3a36      	subs	r2, #54	; 0x36
 80068ea:	4432      	add	r2, r6
 80068ec:	f240 71fe 	movw	r1, #2046	; 0x7fe
 80068f0:	428a      	cmp	r2, r1
 80068f2:	dd08      	ble.n	8006906 <scalbn+0x76>
 80068f4:	2d00      	cmp	r5, #0
 80068f6:	a120      	add	r1, pc, #128	; (adr r1, 8006978 <scalbn+0xe8>)
 80068f8:	e9d1 0100 	ldrd	r0, r1, [r1]
 80068fc:	da1c      	bge.n	8006938 <scalbn+0xa8>
 80068fe:	a120      	add	r1, pc, #128	; (adr r1, 8006980 <scalbn+0xf0>)
 8006900:	e9d1 0100 	ldrd	r0, r1, [r1]
 8006904:	e018      	b.n	8006938 <scalbn+0xa8>
 8006906:	2a00      	cmp	r2, #0
 8006908:	dd08      	ble.n	800691c <scalbn+0x8c>
 800690a:	f023 43ff 	bic.w	r3, r3, #2139095040	; 0x7f800000
 800690e:	f423 03e0 	bic.w	r3, r3, #7340032	; 0x700000
 8006912:	ea43 5502 	orr.w	r5, r3, r2, lsl #20
 8006916:	ec45 4b10 	vmov	d0, r4, r5
 800691a:	bd70      	pop	{r4, r5, r6, pc}
 800691c:	f112 0f35 	cmn.w	r2, #53	; 0x35
 8006920:	da19      	bge.n	8006956 <scalbn+0xc6>
 8006922:	f24c 3350 	movw	r3, #50000	; 0xc350
 8006926:	429e      	cmp	r6, r3
 8006928:	f005 4300 	and.w	r3, r5, #2147483648	; 0x80000000
 800692c:	dd0a      	ble.n	8006944 <scalbn+0xb4>
 800692e:	a112      	add	r1, pc, #72	; (adr r1, 8006978 <scalbn+0xe8>)
 8006930:	e9d1 0100 	ldrd	r0, r1, [r1]
 8006934:	2b00      	cmp	r3, #0
 8006936:	d1e2      	bne.n	80068fe <scalbn+0x6e>
 8006938:	a30f      	add	r3, pc, #60	; (adr r3, 8006978 <scalbn+0xe8>)
 800693a:	e9d3 2300 	ldrd	r2, r3, [r3]
 800693e:	f7f9 fdff 	bl	8000540 <__aeabi_dmul>
 8006942:	e7cb      	b.n	80068dc <scalbn+0x4c>
 8006944:	a10a      	add	r1, pc, #40	; (adr r1, 8006970 <scalbn+0xe0>)
 8006946:	e9d1 0100 	ldrd	r0, r1, [r1]
 800694a:	2b00      	cmp	r3, #0
 800694c:	d0b8      	beq.n	80068c0 <scalbn+0x30>
 800694e:	a10e      	add	r1, pc, #56	; (adr r1, 8006988 <scalbn+0xf8>)
 8006950:	e9d1 0100 	ldrd	r0, r1, [r1]
 8006954:	e7b4      	b.n	80068c0 <scalbn+0x30>
 8006956:	f023 43ff 	bic.w	r3, r3, #2139095040	; 0x7f800000
 800695a:	3236      	adds	r2, #54	; 0x36
 800695c:	f423 03e0 	bic.w	r3, r3, #7340032	; 0x700000
 8006960:	ea43 5102 	orr.w	r1, r3, r2, lsl #20
 8006964:	4620      	mov	r0, r4
 8006966:	4b0c      	ldr	r3, [pc, #48]	; (8006998 <scalbn+0x108>)
 8006968:	2200      	movs	r2, #0
 800696a:	e7e8      	b.n	800693e <scalbn+0xae>
 800696c:	f3af 8000 	nop.w
 8006970:	c2f8f359 	.word	0xc2f8f359
 8006974:	01a56e1f 	.word	0x01a56e1f
 8006978:	8800759c 	.word	0x8800759c
 800697c:	7e37e43c 	.word	0x7e37e43c
 8006980:	8800759c 	.word	0x8800759c
 8006984:	fe37e43c 	.word	0xfe37e43c
 8006988:	c2f8f359 	.word	0xc2f8f359
 800698c:	81a56e1f 	.word	0x81a56e1f
 8006990:	43500000 	.word	0x43500000
 8006994:	ffff3cb0 	.word	0xffff3cb0
 8006998:	3c900000 	.word	0x3c900000

0800699c <__errno>:
 800699c:	4b01      	ldr	r3, [pc, #4]	; (80069a4 <__errno+0x8>)
 800699e:	6818      	ldr	r0, [r3, #0]
 80069a0:	4770      	bx	lr
 80069a2:	bf00      	nop
 80069a4:	2000001c 	.word	0x2000001c

080069a8 <_init>:
 80069a8:	b5f8      	push	{r3, r4, r5, r6, r7, lr}
 80069aa:	bf00      	nop
 80069ac:	bcf8      	pop	{r3, r4, r5, r6, r7}
 80069ae:	bc08      	pop	{r3}
 80069b0:	469e      	mov	lr, r3
 80069b2:	4770      	bx	lr

080069b4 <_fini>:
 80069b4:	b5f8      	push	{r3, r4, r5, r6, r7, lr}
 80069b6:	bf00      	nop
 80069b8:	bcf8      	pop	{r3, r4, r5, r6, r7}
 80069ba:	bc08      	pop	{r3}
 80069bc:	469e      	mov	lr, r3
 80069be:	4770      	bx	lr
