
prosthesis_knee.elf:     file format elf32-littlearm

Sections:
Idx Name          Size      VMA       LMA       File off  Algn
  0 .isr_vector   00000188  08000000  08000000  00001000  2**0
                  CONTENTS, ALLOC, LOAD, READONLY, DATA
  1 .text         00007318  08000188  08000188  00001188  2**3
                  CONTENTS, ALLOC, LOAD, READONLY, CODE
  2 .rodata       00000d04  080074a0  080074a0  000084a0  2**2
                  CONTENTS, ALLOC, LOAD, READONLY, DATA
  3 .ARM.extab    00000000  080081a4  080081a4  0000a048  2**0
                  CONTENTS
  4 .ARM          00000000  080081a4  080081a4  0000a048  2**0
                  CONTENTS
  5 .preinit_array 00000000  080081a4  080081a4  0000a048  2**0
                  CONTENTS, ALLOC, LOAD, DATA
  6 .init_array   00000004  080081a4  080081a4  000091a4  2**2
                  CONTENTS, ALLOC, LOAD, DATA
  7 .fini_array   00000004  080081a8  080081a8  000091a8  2**2
                  CONTENTS, ALLOC, LOAD, DATA
  8 .data         00000048  20000000  080081ac  0000a000  2**2
                  CONTENTS, ALLOC, LOAD, DATA
  9 .bss          00002830  20000048  080081f4  0000a048  2**3
                  ALLOC
 10 ._user_heap_stack 00000600  20002878  080081f4  0000a878  2**0
                  ALLOC
 11 .ARM.attributes 00000030  00000000  00000000  0000a048  2**0
                  CONTENTS, READONLY
 12 .debug_info   0000e0a7  00000000  00000000  0000a078  2**0
                  CONTENTS, READONLY, DEBUGGING, OCTETS
 13 .debug_abbrev 00002da6  00000000  00000000  0001811f  2**0
                  CONTENTS, READONLY, DEBUGGING, OCTETS
 14 .debug_aranges 00001068  00000000  00000000  0001aec8  2**3
                  CONTENTS, READONLY, DEBUGGING, OCTETS
 15 .debug_rnglists 00000c66  00000000  00000000  0001bf30  2**0
                  CONTENTS, READONLY, DEBUGGING, OCTETS
 16 .debug_macro  0002639e  00000000  00000000  0001cb96  2**0
                  CONTENTS, READONLY, DEBUGGING, OCTETS
 17 .debug_line   0001120e  00000000  00000000  00042f34  2**0
                  CONTENTS, READONLY, DEBUGGING, OCTETS
 18 .debug_str    000c8387  00000000  00000000  00054142  2**0
                  CONTENTS, READONLY, DEBUGGING, OCTETS
 19 .comment      00000043  00000000  00000000  0011c4c9  2**0
                  CONTENTS, READONLY
 20 .debug_frame  00004420  00000000  00000000  0011c50c  2**2
                  CONTENTS, READONLY, DEBUGGING, OCTETS
 21 .debug_line_str 0000005f  00000000  00000000  0012092c  2**0
                  CONTENTS, READONLY, DEBUGGING, OCTETS

Disassembly of section .text:

08000188 <__do_global_dtors_aux>:
 8000188:	b510      	push	{r4, lr}
 800018a:	4c05      	ldr	r4, [pc, #20]	@ (80001a0 <__do_global_dtors_aux+0x18>)
 800018c:	7823      	ldrb	r3, [r4, #0]
 800018e:	b933      	cbnz	r3, 800019e <__do_global_dtors_aux+0x16>
 8000190:	4b04      	ldr	r3, [pc, #16]	@ (80001a4 <__do_global_dtors_aux+0x1c>)
 8000192:	b113      	cbz	r3, 800019a <__do_global_dtors_aux+0x12>
 8000194:	4804      	ldr	r0, [pc, #16]	@ (80001a8 <__do_global_dtors_aux+0x20>)
 8000196:	f3af 8000 	nop.w
 800019a:	2301      	movs	r3, #1
 800019c:	7023      	strb	r3, [r4, #0]
 800019e:	bd10      	pop	{r4, pc}
 80001a0:	20000048 	.word	0x20000048
 80001a4:	00000000 	.word	0x00000000
 80001a8:	08007488 	.word	0x08007488

080001ac <frame_dummy>:
 80001ac:	b508      	push	{r3, lr}
 80001ae:	4b03      	ldr	r3, [pc, #12]	@ (80001bc <frame_dummy+0x10>)
 80001b0:	b11b      	cbz	r3, 80001ba <frame_dummy+0xe>
 80001b2:	4903      	ldr	r1, [pc, #12]	@ (80001c0 <frame_dummy+0x14>)
 80001b4:	4803      	ldr	r0, [pc, #12]	@ (80001c4 <frame_dummy+0x18>)
 80001b6:	f3af 8000 	nop.w
 80001ba:	bd08      	pop	{r3, pc}
 80001bc:	00000000 	.word	0x00000000
 80001c0:	2000004c 	.word	0x2000004c
 80001c4:	08007488 	.word	0x08007488

080001c8 <__aeabi_drsub>:
 80001c8:	f081 4100 	eor.w	r1, r1, #2147483648	@ 0x80000000
 80001cc:	e002      	b.n	80001d4 <__adddf3>
 80001ce:	bf00      	nop

080001d0 <__aeabi_dsub>:
 80001d0:	f083 4300 	eor.w	r3, r3, #2147483648	@ 0x80000000

080001d4 <__adddf3>:
 80001d4:	b530      	push	{r4, r5, lr}
 80001d6:	ea4f 0441 	mov.w	r4, r1, lsl #1
 80001da:	ea4f 0543 	mov.w	r5, r3, lsl #1
 80001de:	ea94 0f05 	teq	r4, r5
 80001e2:	bf08      	it	eq
 80001e4:	ea90 0f02 	teqeq	r0, r2
 80001e8:	bf1f      	itttt	ne
 80001ea:	ea54 0c00 	orrsne.w	ip, r4, r0
 80001ee:	ea55 0c02 	orrsne.w	ip, r5, r2
 80001f2:	ea7f 5c64 	mvnsne.w	ip, r4, asr #21
 80001f6:	ea7f 5c65 	mvnsne.w	ip, r5, asr #21
 80001fa:	f000 80e2 	beq.w	80003c2 <__adddf3+0x1ee>
 80001fe:	ea4f 5454 	mov.w	r4, r4, lsr #21
 8000202:	ebd4 5555 	rsbs	r5, r4, r5, lsr #21
 8000206:	bfb8      	it	lt
 8000208:	426d      	neglt	r5, r5
 800020a:	dd0c      	ble.n	8000226 <__adddf3+0x52>
 800020c:	442c      	add	r4, r5
 800020e:	ea80 0202 	eor.w	r2, r0, r2
 8000212:	ea81 0303 	eor.w	r3, r1, r3
 8000216:	ea82 0000 	eor.w	r0, r2, r0
 800021a:	ea83 0101 	eor.w	r1, r3, r1
 800021e:	ea80 0202 	eor.w	r2, r0, r2
 8000222:	ea81 0303 	eor.w	r3, r1, r3
 8000226:	2d36      	cmp	r5, #54	@ 0x36
 8000228:	bf88      	it	hi
 800022a:	bd30      	pophi	{r4, r5, pc}
 800022c:	f011 4f00 	tst.w	r1, #2147483648	@ 0x80000000
 8000230:	ea4f 3101 	mov.w	r1, r1, lsl #12
 8000234:	f44f 1c80 	mov.w	ip, #1048576	@ 0x100000
 8000238:	ea4c 3111 	orr.w	r1, ip, r1, lsr #12
 800023c:	d002      	beq.n	8000244 <__adddf3+0x70>
 800023e:	4240      	negs	r0, r0
 8000240:	eb61 0141 	sbc.w	r1, r1, r1, lsl #1
 8000244:	f013 4f00 	tst.w	r3, #2147483648	@ 0x80000000
 8000248:	ea4f 3303 	mov.w	r3, r3, lsl #12
 800024c:	ea4c 3313 	orr.w	r3, ip, r3, lsr #12
 8000250:	d002      	beq.n	8000258 <__adddf3+0x84>
 8000252:	4252      	negs	r2, r2
 8000254:	eb63 0343 	sbc.w	r3, r3, r3, lsl #1
 8000258:	ea94 0f05 	teq	r4, r5
 800025c:	f000 80a7 	beq.w	80003ae <__adddf3+0x1da>
 8000260:	f1a4 0401 	sub.w	r4, r4, #1
 8000264:	f1d5 0e20 	rsbs	lr, r5, #32
 8000268:	db0d      	blt.n	8000286 <__adddf3+0xb2>
 800026a:	fa02 fc0e 	lsl.w	ip, r2, lr
 800026e:	fa22 f205 	lsr.w	r2, r2, r5
 8000272:	1880      	adds	r0, r0, r2
 8000274:	f141 0100 	adc.w	r1, r1, #0
 8000278:	fa03 f20e 	lsl.w	r2, r3, lr
 800027c:	1880      	adds	r0, r0, r2
 800027e:	fa43 f305 	asr.w	r3, r3, r5
 8000282:	4159      	adcs	r1, r3
 8000284:	e00e      	b.n	80002a4 <__adddf3+0xd0>
 8000286:	f1a5 0520 	sub.w	r5, r5, #32
 800028a:	f10e 0e20 	add.w	lr, lr, #32
 800028e:	2a01      	cmp	r2, #1
 8000290:	fa03 fc0e 	lsl.w	ip, r3, lr
 8000294:	bf28      	it	cs
 8000296:	f04c 0c02 	orrcs.w	ip, ip, #2
 800029a:	fa43 f305 	asr.w	r3, r3, r5
 800029e:	18c0      	adds	r0, r0, r3
 80002a0:	eb51 71e3 	adcs.w	r1, r1, r3, asr #31
 80002a4:	f001 4500 	and.w	r5, r1, #2147483648	@ 0x80000000
 80002a8:	d507      	bpl.n	80002ba <__adddf3+0xe6>
 80002aa:	f04f 0e00 	mov.w	lr, #0
 80002ae:	f1dc 0c00 	rsbs	ip, ip, #0
 80002b2:	eb7e 0000 	sbcs.w	r0, lr, r0
 80002b6:	eb6e 0101 	sbc.w	r1, lr, r1
 80002ba:	f5b1 1f80 	cmp.w	r1, #1048576	@ 0x100000
 80002be:	d31b      	bcc.n	80002f8 <__adddf3+0x124>
 80002c0:	f5b1 1f00 	cmp.w	r1, #2097152	@ 0x200000
 80002c4:	d30c      	bcc.n	80002e0 <__adddf3+0x10c>
 80002c6:	0849      	lsrs	r1, r1, #1
 80002c8:	ea5f 0030 	movs.w	r0, r0, rrx
 80002cc:	ea4f 0c3c 	mov.w	ip, ip, rrx
 80002d0:	f104 0401 	add.w	r4, r4, #1
 80002d4:	ea4f 5244 	mov.w	r2, r4, lsl #21
 80002d8:	f512 0f80 	cmn.w	r2, #4194304	@ 0x400000
 80002dc:	f080 809a 	bcs.w	8000414 <__adddf3+0x240>
 80002e0:	f1bc 4f00 	cmp.w	ip, #2147483648	@ 0x80000000
 80002e4:	bf08      	it	eq
 80002e6:	ea5f 0c50 	movseq.w	ip, r0, lsr #1
 80002ea:	f150 0000 	adcs.w	r0, r0, #0
 80002ee:	eb41 5104 	adc.w	r1, r1, r4, lsl #20
 80002f2:	ea41 0105 	orr.w	r1, r1, r5
 80002f6:	bd30      	pop	{r4, r5, pc}
 80002f8:	ea5f 0c4c 	movs.w	ip, ip, lsl #1
 80002fc:	4140      	adcs	r0, r0
 80002fe:	eb41 0101 	adc.w	r1, r1, r1
 8000302:	3c01      	subs	r4, #1
 8000304:	bf28      	it	cs
 8000306:	f5b1 1f80 	cmpcs.w	r1, #1048576	@ 0x100000
 800030a:	d2e9      	bcs.n	80002e0 <__adddf3+0x10c>
 800030c:	f091 0f00 	teq	r1, #0
 8000310:	bf04      	itt	eq
 8000312:	4601      	moveq	r1, r0
 8000314:	2000      	moveq	r0, #0
 8000316:	fab1 f381 	clz	r3, r1
 800031a:	bf08      	it	eq
 800031c:	3320      	addeq	r3, #32
 800031e:	f1a3 030b 	sub.w	r3, r3, #11
 8000322:	f1b3 0220 	subs.w	r2, r3, #32
 8000326:	da0c      	bge.n	8000342 <__adddf3+0x16e>
 8000328:	320c      	adds	r2, #12
 800032a:	dd08      	ble.n	800033e <__adddf3+0x16a>
 800032c:	f102 0c14 	add.w	ip, r2, #20
 8000330:	f1c2 020c 	rsb	r2, r2, #12
 8000334:	fa01 f00c 	lsl.w	r0, r1, ip
 8000338:	fa21 f102 	lsr.w	r1, r1, r2
 800033c:	e00c      	b.n	8000358 <__adddf3+0x184>
 800033e:	f102 0214 	add.w	r2, r2, #20
 8000342:	bfd8      	it	le
 8000344:	f1c2 0c20 	rsble	ip, r2, #32
 8000348:	fa01 f102 	lsl.w	r1, r1, r2
 800034c:	fa20 fc0c 	lsr.w	ip, r0, ip
 8000350:	bfdc      	itt	le
 8000352:	ea41 010c 	orrle.w	r1, r1, ip
 8000356:	4090      	lslle	r0, r2
 8000358:	1ae4      	subs	r4, r4, r3
 800035a:	bfa2      	ittt	ge
 800035c:	eb01 5104 	addge.w	r1, r1, r4, lsl #20
 8000360:	4329      	orrge	r1, r5
 8000362:	bd30      	popge	{r4, r5, pc}
 8000364:	ea6f 0404 	mvn.w	r4, r4
 8000368:	3c1f      	subs	r4, #31
 800036a:	da1c      	bge.n	80003a6 <__adddf3+0x1d2>
 800036c:	340c      	adds	r4, #12
 800036e:	dc0e      	bgt.n	800038e <__adddf3+0x1ba>
 8000370:	f104 0414 	add.w	r4, r4, #20
 8000374:	f1c4 0220 	rsb	r2, r4, #32
 8000378:	fa20 f004 	lsr.w	r0, r0, r4
 800037c:	fa01 f302 	lsl.w	r3, r1, r2
 8000380:	ea40 0003 	orr.w	r0, r0, r3
 8000384:	fa21 f304 	lsr.w	r3, r1, r4
 8000388:	ea45 0103 	orr.w	r1, r5, r3
 800038c:	bd30      	pop	{r4, r5, pc}
 800038e:	f1c4 040c 	rsb	r4, r4, #12
 8000392:	f1c4 0220 	rsb	r2, r4, #32
 8000396:	fa20 f002 	lsr.w	r0, r0, r2
 800039a:	fa01 f304 	lsl.w	r3, r1, r4
 800039e:	ea40 0003 	orr.w	r0, r0, r3
 80003a2:	4629      	mov	r1, r5
 80003a4:	bd30      	pop	{r4, r5, pc}
 80003a6:	fa21 f004 	lsr.w	r0, r1, r4
 80003aa:	4629      	mov	r1, r5
 80003ac:	bd30      	pop	{r4, r5, pc}
 80003ae:	f094 0f00 	teq	r4, #0
 80003b2:	f483 1380 	eor.w	r3, r3, #1048576	@ 0x100000
 80003b6:	bf06      	itte	eq
 80003b8:	f481 1180 	eoreq.w	r1, r1, #1048576	@ 0x100000
 80003bc:	3401      	addeq	r4, #1
 80003be:	3d01      	subne	r5, #1
 80003c0:	e74e      	b.n	8000260 <__adddf3+0x8c>
 80003c2:	ea7f 5c64 	mvns.w	ip, r4, asr #21
 80003c6:	bf18      	it	ne
 80003c8:	ea7f 5c65 	mvnsne.w	ip, r5, asr #21
 80003cc:	d029      	beq.n	8000422 <__adddf3+0x24e>
 80003ce:	ea94 0f05 	teq	r4, r5
 80003d2:	bf08      	it	eq
 80003d4:	ea90 0f02 	teqeq	r0, r2
 80003d8:	d005      	beq.n	80003e6 <__adddf3+0x212>
 80003da:	ea54 0c00 	orrs.w	ip, r4, r0
 80003de:	bf04      	itt	eq
 80003e0:	4619      	moveq	r1, r3
 80003e2:	4610      	moveq	r0, r2
 80003e4:	bd30      	pop	{r4, r5, pc}
 80003e6:	ea91 0f03 	teq	r1, r3
 80003ea:	bf1e      	ittt	ne
 80003ec:	2100      	movne	r1, #0
 80003ee:	2000      	movne	r0, #0
 80003f0:	bd30      	popne	{r4, r5, pc}
 80003f2:	ea5f 5c54 	movs.w	ip, r4, lsr #21
 80003f6:	d105      	bne.n	8000404 <__adddf3+0x230>
 80003f8:	0040      	lsls	r0, r0, #1
 80003fa:	4149      	adcs	r1, r1
 80003fc:	bf28      	it	cs
 80003fe:	f041 4100 	orrcs.w	r1, r1, #2147483648	@ 0x80000000
 8000402:	bd30      	pop	{r4, r5, pc}
 8000404:	f514 0480 	adds.w	r4, r4, #4194304	@ 0x400000
 8000408:	bf3c      	itt	cc
 800040a:	f501 1180 	addcc.w	r1, r1, #1048576	@ 0x100000
 800040e:	bd30      	popcc	{r4, r5, pc}
 8000410:	f001 4500 	and.w	r5, r1, #2147483648	@ 0x80000000
 8000414:	f045 41fe 	orr.w	r1, r5, #2130706432	@ 0x7f000000
 8000418:	f441 0170 	orr.w	r1, r1, #15728640	@ 0xf00000
 800041c:	f04f 0000 	mov.w	r0, #0
 8000420:	bd30      	pop	{r4, r5, pc}
 8000422:	ea7f 5c64 	mvns.w	ip, r4, asr #21
 8000426:	bf1a      	itte	ne
 8000428:	4619      	movne	r1, r3
 800042a:	4610      	movne	r0, r2
 800042c:	ea7f 5c65 	mvnseq.w	ip, r5, asr #21
 8000430:	bf1c      	itt	ne
 8000432:	460b      	movne	r3, r1
 8000434:	4602      	movne	r2, r0
 8000436:	ea50 3401 	orrs.w	r4, r0, r1, lsl #12
 800043a:	bf06      	itte	eq
 800043c:	ea52 3503 	orrseq.w	r5, r2, r3, lsl #12
 8000440:	ea91 0f03 	teqeq	r1, r3
 8000444:	f441 2100 	orrne.w	r1, r1, #524288	@ 0x80000
 8000448:	bd30      	pop	{r4, r5, pc}
 800044a:	bf00      	nop

0800044c <__aeabi_ui2d>:
 800044c:	f090 0f00 	teq	r0, #0
 8000450:	bf04      	itt	eq
 8000452:	2100      	moveq	r1, #0
 8000454:	4770      	bxeq	lr
 8000456:	b530      	push	{r4, r5, lr}
 8000458:	f44f 6480 	mov.w	r4, #1024	@ 0x400
 800045c:	f104 0432 	add.w	r4, r4, #50	@ 0x32
 8000460:	f04f 0500 	mov.w	r5, #0
 8000464:	f04f 0100 	mov.w	r1, #0
 8000468:	e750      	b.n	800030c <__adddf3+0x138>
 800046a:	bf00      	nop

0800046c <__aeabi_i2d>:
 800046c:	f090 0f00 	teq	r0, #0
 8000470:	bf04      	itt	eq
 8000472:	2100      	moveq	r1, #0
 8000474:	4770      	bxeq	lr
 8000476:	b530      	push	{r4, r5, lr}
 8000478:	f44f 6480 	mov.w	r4, #1024	@ 0x400
 800047c:	f104 0432 	add.w	r4, r4, #50	@ 0x32
 8000480:	f010 4500 	ands.w	r5, r0, #2147483648	@ 0x80000000
 8000484:	bf48      	it	mi
 8000486:	4240      	negmi	r0, r0
 8000488:	f04f 0100 	mov.w	r1, #0
 800048c:	e73e      	b.n	800030c <__adddf3+0x138>
 800048e:	bf00      	nop

08000490 <__aeabi_f2d>:
 8000490:	0042      	lsls	r2, r0, #1
 8000492:	ea4f 01e2 	mov.w	r1, r2, asr #3
 8000496:	ea4f 0131 	mov.w	r1, r1, rrx
 800049a:	ea4f 7002 	mov.w	r0, r2, lsl #28
 800049e:	bf1f      	itttt	ne
 80004a0:	f012 437f 	andsne.w	r3, r2, #4278190080	@ 0xff000000
 80004a4:	f093 4f7f 	teqne	r3, #4278190080	@ 0xff000000
 80004a8:	f081 5160 	eorne.w	r1, r1, #939524096	@ 0x38000000
 80004ac:	4770      	bxne	lr
 80004ae:	f032 427f 	bics.w	r2, r2, #4278190080	@ 0xff000000
 80004b2:	bf08      	it	eq
 80004b4:	4770      	bxeq	lr
 80004b6:	f093 4f7f 	teq	r3, #4278190080	@ 0xff000000
 80004ba:	bf04      	itt	eq
 80004bc:	f441 2100 	orreq.w	r1, r1, #524288	@ 0x80000
 80004c0:	4770      	bxeq	lr
 80004c2:	b530      	push	{r4, r5, lr}
 80004c4:	f44f 7460 	mov.w	r4, #896	@ 0x380
 80004c8:	f001 4500 	and.w	r5, r1, #2147483648	@ 0x80000000
 80004cc:	f021 4100 	bic.w	r1, r1, #2147483648	@ 0x80000000
 80004d0:	e71c      	b.n	800030c <__adddf3+0x138>
 80004d2:	bf00      	nop

080004d4 <__aeabi_ul2d>:
 80004d4:	ea50 0201 	orrs.w	r2, r0, r1
 80004d8:	bf08      	it	eq
 80004da:	4770      	bxeq	lr
 80004dc:	b530      	push	{r4, r5, lr}
 80004de:	f04f 0500 	mov.w	r5, #0
 80004e2:	e00a      	b.n	80004fa <__aeabi_l2d+0x16>

080004e4 <__aeabi_l2d>:
 80004e4:	ea50 0201 	orrs.w	r2, r0, r1
 80004e8:	bf08      	it	eq
 80004ea:	4770      	bxeq	lr
 80004ec:	b530      	push	{r4, r5, lr}
 80004ee:	f011 4500 	ands.w	r5, r1, #2147483648	@ 0x80000000
 80004f2:	d502      	bpl.n	80004fa <__aeabi_l2d+0x16>
 80004f4:	4240      	negs	r0, r0
 80004f6:	eb61 0141 	sbc.w	r1, r1, r1, lsl #1
 80004fa:	f44f 6480 	mov.w	r4, #1024	@ 0x400
 80004fe:	f104 0432 	add.w	r4, r4, #50	@ 0x32
 8000502:	ea5f 5c91 	movs.w	ip, r1, lsr #22
 8000506:	f43f aed8 	beq.w	80002ba <__adddf3+0xe6>
 800050a:	f04f 0203 	mov.w	r2, #3
 800050e:	ea5f 0cdc 	movs.w	ip, ip, lsr #3
 8000512:	bf18      	it	ne
 8000514:	3203      	addne	r2, #3
 8000516:	ea5f 0cdc 	movs.w	ip, ip, lsr #3
 800051a:	bf18      	it	ne
 800051c:	3203      	addne	r2, #3
 800051e:	eb02 02dc 	add.w	r2, r2, ip, lsr #3
 8000522:	f1c2 0320 	rsb	r3, r2, #32
 8000526:	fa00 fc03 	lsl.w	ip, r0, r3
 800052a:	fa20 f002 	lsr.w	r0, r0, r2
 800052e:	fa01 fe03 	lsl.w	lr, r1, r3
 8000532:	ea40 000e 	orr.w	r0, r0, lr
 8000536:	fa21 f102 	lsr.w	r1, r1, r2
 800053a:	4414      	add	r4, r2
 800053c:	e6bd      	b.n	80002ba <__adddf3+0xe6>
 800053e:	bf00      	nop

08000540 <__aeabi_dmul>:
 8000540:	b570      	push	{r4, r5, r6, lr}
 8000542:	f04f 0cff 	mov.w	ip, #255	@ 0xff
 8000546:	f44c 6ce0 	orr.w	ip, ip, #1792	@ 0x700
 800054a:	ea1c 5411 	ands.w	r4, ip, r1, lsr #20
 800054e:	bf1d      	ittte	ne
 8000550:	ea1c 5513 	andsne.w	r5, ip, r3, lsr #20
 8000554:	ea94 0f0c 	teqne	r4, ip
 8000558:	ea95 0f0c 	teqne	r5, ip
 800055c:	f000 f8de 	bleq	800071c <__aeabi_dmul+0x1dc>
 8000560:	442c      	add	r4, r5
 8000562:	ea81 0603 	eor.w	r6, r1, r3
 8000566:	ea21 514c 	bic.w	r1, r1, ip, lsl #21
 800056a:	ea23 534c 	bic.w	r3, r3, ip, lsl #21
 800056e:	ea50 3501 	orrs.w	r5, r0, r1, lsl #12
 8000572:	bf18      	it	ne
 8000574:	ea52 3503 	orrsne.w	r5, r2, r3, lsl #12
 8000578:	f441 1180 	orr.w	r1, r1, #1048576	@ 0x100000
 800057c:	f443 1380 	orr.w	r3, r3, #1048576	@ 0x100000
 8000580:	d038      	beq.n	80005f4 <__aeabi_dmul+0xb4>
 8000582:	fba0 ce02 	umull	ip, lr, r0, r2
 8000586:	f04f 0500 	mov.w	r5, #0
 800058a:	fbe1 e502 	umlal	lr, r5, r1, r2
 800058e:	f006 4200 	and.w	r2, r6, #2147483648	@ 0x80000000
 8000592:	fbe0 e503 	umlal	lr, r5, r0, r3
 8000596:	f04f 0600 	mov.w	r6, #0
 800059a:	fbe1 5603 	umlal	r5, r6, r1, r3
 800059e:	f09c 0f00 	teq	ip, #0
 80005a2:	bf18      	it	ne
 80005a4:	f04e 0e01 	orrne.w	lr, lr, #1
 80005a8:	f1a4 04ff 	sub.w	r4, r4, #255	@ 0xff
 80005ac:	f5b6 7f00 	cmp.w	r6, #512	@ 0x200
 80005b0:	f564 7440 	sbc.w	r4, r4, #768	@ 0x300
 80005b4:	d204      	bcs.n	80005c0 <__aeabi_dmul+0x80>
 80005b6:	ea5f 0e4e 	movs.w	lr, lr, lsl #1
 80005ba:	416d      	adcs	r5, r5
 80005bc:	eb46 0606 	adc.w	r6, r6, r6
 80005c0:	ea42 21c6 	orr.w	r1, r2, r6, lsl #11
 80005c4:	ea41 5155 	orr.w	r1, r1, r5, lsr #21
 80005c8:	ea4f 20c5 	mov.w	r0, r5, lsl #11
 80005cc:	ea40 505e 	orr.w	r0, r0, lr, lsr #21
 80005d0:	ea4f 2ece 	mov.w	lr, lr, lsl #11
 80005d4:	f1b4 0cfd 	subs.w	ip, r4, #253	@ 0xfd
 80005d8:	bf88      	it	hi
 80005da:	f5bc 6fe0 	cmphi.w	ip, #1792	@ 0x700
 80005de:	d81e      	bhi.n	800061e <__aeabi_dmul+0xde>
 80005e0:	f1be 4f00 	cmp.w	lr, #2147483648	@ 0x80000000
 80005e4:	bf08      	it	eq
 80005e6:	ea5f 0e50 	movseq.w	lr, r0, lsr #1
 80005ea:	f150 0000 	adcs.w	r0, r0, #0
 80005ee:	eb41 5104 	adc.w	r1, r1, r4, lsl #20
 80005f2:	bd70      	pop	{r4, r5, r6, pc}
 80005f4:	f006 4600 	and.w	r6, r6, #2147483648	@ 0x80000000
 80005f8:	ea46 0101 	orr.w	r1, r6, r1
 80005fc:	ea40 0002 	orr.w	r0, r0, r2
 8000600:	ea81 0103 	eor.w	r1, r1, r3
 8000604:	ebb4 045c 	subs.w	r4, r4, ip, lsr #1
 8000608:	bfc2      	ittt	gt
 800060a:	ebd4 050c 	rsbsgt	r5, r4, ip
 800060e:	ea41 5104 	orrgt.w	r1, r1, r4, lsl #20
 8000612:	bd70      	popgt	{r4, r5, r6, pc}
 8000614:	f441 1180 	orr.w	r1, r1, #1048576	@ 0x100000
 8000618:	f04f 0e00 	mov.w	lr, #0
 800061c:	3c01      	subs	r4, #1
 800061e:	f300 80ab 	bgt.w	8000778 <__aeabi_dmul+0x238>
 8000622:	f114 0f36 	cmn.w	r4, #54	@ 0x36
 8000626:	bfde      	ittt	le
 8000628:	2000      	movle	r0, #0
 800062a:	f001 4100 	andle.w	r1, r1, #2147483648	@ 0x80000000
 800062e:	bd70      	pople	{r4, r5, r6, pc}
 8000630:	f1c4 0400 	rsb	r4, r4, #0
 8000634:	3c20      	subs	r4, #32
 8000636:	da35      	bge.n	80006a4 <__aeabi_dmul+0x164>
 8000638:	340c      	adds	r4, #12
 800063a:	dc1b      	bgt.n	8000674 <__aeabi_dmul+0x134>
 800063c:	f104 0414 	add.w	r4, r4, #20
 8000640:	f1c4 0520 	rsb	r5, r4, #32
 8000644:	fa00 f305 	lsl.w	r3, r0, r5
 8000648:	fa20 f004 	lsr.w	r0, r0, r4
 800064c:	fa01 f205 	lsl.w	r2, r1, r5
 8000650:	ea40 0002 	orr.w	r0, r0, r2
 8000654:	f001 4200 	and.w	r2, r1, #2147483648	@ 0x80000000
 8000658:	f021 4100 	bic.w	r1, r1, #2147483648	@ 0x80000000
 800065c:	eb10 70d3 	adds.w	r0, r0, r3, lsr #31
 8000660:	fa21 f604 	lsr.w	r6, r1, r4
 8000664:	eb42 0106 	adc.w	r1, r2, r6
 8000668:	ea5e 0e43 	orrs.w	lr, lr, r3, lsl #1
 800066c:	bf08      	it	eq
 800066e:	ea20 70d3 	biceq.w	r0, r0, r3, lsr #31
 8000672:	bd70      	pop	{r4, r5, r6, pc}
 8000674:	f1c4 040c 	rsb	r4, r4, #12
 8000678:	f1c4 0520 	rsb	r5, r4, #32
 800067c:	fa00 f304 	lsl.w	r3, r0, r4
 8000680:	fa20 f005 	lsr.w	r0, r0, r5
 8000684:	fa01 f204 	lsl.w	r2, r1, r4
 8000688:	ea40 0002 	orr.w	r0, r0, r2
 800068c:	f001 4100 	and.w	r1, r1, #2147483648	@ 0x80000000
 8000690:	eb10 70d3 	adds.w	r0, r0, r3, lsr #31
 8000694:	f141 0100 	adc.w	r1, r1, #0
 8000698:	ea5e 0e43 	orrs.w	lr, lr, r3, lsl #1
 800069c:	bf08      	it	eq
 800069e:	ea20 70d3 	biceq.w	r0, r0, r3, lsr #31
 80006a2:	bd70      	pop	{r4, r5, r6, pc}
 80006a4:	f1c4 0520 	rsb	r5, r4, #32
 80006a8:	fa00 f205 	lsl.w	r2, r0, r5
 80006ac:	ea4e 0e02 	orr.w	lr, lr, r2
 80006b0:	fa20 f304 	lsr.w	r3, r0, r4
 80006b4:	fa01 f205 	lsl.w	r2, r1, r5
 80006b8:	ea43 0302 	orr.w	r3, r3, r2
 80006bc:	fa21 f004 	lsr.w	r0, r1, r4
 80006c0:	f001 4100 	and.w	r1, r1, #2147483648	@ 0x80000000
 80006c4:	fa21 f204 	lsr.w	r2, r1, r4
 80006c8:	ea20 0002 	bic.w	r0, r0, r2
 80006cc:	eb00 70d3 	add.w	r0, r0, r3, lsr #31
 80006d0:	ea5e 0e43 	orrs.w	lr, lr, r3, lsl #1
 80006d4:	bf08      	it	eq
 80006d6:	ea20 70d3 	biceq.w	r0, r0, r3, lsr #31
 80006da:	bd70      	pop	{r4, r5, r6, pc}
 80006dc:	f094 0f00 	teq	r4, #0
 80006e0:	d10f      	bne.n	8000702 <__aeabi_dmul+0x1c2>
 80006e2:	f001 4600 	and.w	r6, r1, #2147483648	@ 0x80000000
 80006e6:	0040      	lsls	r0, r0, #1
 80006e8:	eb41 0101 	adc.w	r1, r1, r1
 80006ec:	f411 1f80 	tst.w	r1, #1048576	@ 0x100000
 80006f0:	bf08      	it	eq
 80006f2:	3c01      	subeq	r4, #1
 80006f4:	d0f7      	beq.n	80006e6 <__aeabi_dmul+0x1a6>
 80006f6:	ea41 0106 	orr.w	r1, r1, r6
 80006fa:	f095 0f00 	teq	r5, #0
 80006fe:	bf18      	it	ne
 8000700:	4770      	bxne	lr
 8000702:	f003 4600 	and.w	r6, r3, #2147483648	@ 0x80000000
 8000706:	0052      	lsls	r2, r2, #1
 8000708:	eb43 0303 	adc.w	r3, r3, r3
 800070c:	f413 1f80 	tst.w	r3, #1048576	@ 0x100000
 8000710:	bf08      	it	eq
 8000712:	3d01      	subeq	r5, #1
 8000714:	d0f7      	beq.n	8000706 <__aeabi_dmul+0x1c6>
 8000716:	ea43 0306 	orr.w	r3, r3, r6
 800071a:	4770      	bx	lr
 800071c:	ea94 0f0c 	teq	r4, ip
 8000720:	ea0c 5513 	and.w	r5, ip, r3, lsr #20
 8000724:	bf18      	it	ne
 8000726:	ea95 0f0c 	teqne	r5, ip
 800072a:	d00c      	beq.n	8000746 <__aeabi_dmul+0x206>
 800072c:	ea50 0641 	orrs.w	r6, r0, r1, lsl #1
 8000730:	bf18      	it	ne
 8000732:	ea52 0643 	orrsne.w	r6, r2, r3, lsl #1
 8000736:	d1d1      	bne.n	80006dc <__aeabi_dmul+0x19c>
 8000738:	ea81 0103 	eor.w	r1, r1, r3
 800073c:	f001 4100 	and.w	r1, r1, #2147483648	@ 0x80000000
 8000740:	f04f 0000 	mov.w	r0, #0
 8000744:	bd70      	pop	{r4, r5, r6, pc}
 8000746:	ea50 0641 	orrs.w	r6, r0, r1, lsl #1
 800074a:	bf06      	itte	eq
 800074c:	4610      	moveq	r0, r2
 800074e:	4619      	moveq	r1, r3
 8000750:	ea52 0643 	orrsne.w	r6, r2, r3, lsl #1
 8000754:	d019      	beq.n	800078a <__aeabi_dmul+0x24a>
 8000756:	ea94 0f0c 	teq	r4, ip
 800075a:	d102      	bne.n	8000762 <__aeabi_dmul+0x222>
 800075c:	ea50 3601 	orrs.w	r6, r0, r1, lsl #12
 8000760:	d113      	bne.n	800078a <__aeabi_dmul+0x24a>
 8000762:	ea95 0f0c 	teq	r5, ip
 8000766:	d105      	bne.n	8000774 <__aeabi_dmul+0x234>
 8000768:	ea52 3603 	orrs.w	r6, r2, r3, lsl #12
 800076c:	bf1c      	itt	ne
 800076e:	4610      	movne	r0, r2
 8000770:	4619      	movne	r1, r3
 8000772:	d10a      	bne.n	800078a <__aeabi_dmul+0x24a>
 8000774:	ea81 0103 	eor.w	r1, r1, r3
 8000778:	f001 4100 	and.w	r1, r1, #2147483648	@ 0x80000000
 800077c:	f041 41fe 	orr.w	r1, r1, #2130706432	@ 0x7f000000
 8000780:	f441 0170 	orr.w	r1, r1, #15728640	@ 0xf00000
 8000784:	f04f 0000 	mov.w	r0, #0
 8000788:	bd70      	pop	{r4, r5, r6, pc}
 800078a:	f041 41fe 	orr.w	r1, r1, #2130706432	@ 0x7f000000
 800078e:	f441 0178 	orr.w	r1, r1, #16252928	@ 0xf80000
 8000792:	bd70      	pop	{r4, r5, r6, pc}

08000794 <__aeabi_ddiv>:
 8000794:	b570      	push	{r4, r5, r6, lr}
 8000796:	f04f 0cff 	mov.w	ip, #255	@ 0xff
 800079a:	f44c 6ce0 	orr.w	ip, ip, #1792	@ 0x700
 800079e:	ea1c 5411 	ands.w	r4, ip, r1, lsr #20
 80007a2:	bf1d      	ittte	ne
 80007a4:	ea1c 5513 	andsne.w	r5, ip, r3, lsr #20
 80007a8:	ea94 0f0c 	teqne	r4, ip
 80007ac:	ea95 0f0c 	teqne	r5, ip
 80007b0:	f000 f8a7 	bleq	8000902 <__aeabi_ddiv+0x16e>
 80007b4:	eba4 0405 	sub.w	r4, r4, r5
 80007b8:	ea81 0e03 	eor.w	lr, r1, r3
 80007bc:	ea52 3503 	orrs.w	r5, r2, r3, lsl #12
 80007c0:	ea4f 3101 	mov.w	r1, r1, lsl #12
 80007c4:	f000 8088 	beq.w	80008d8 <__aeabi_ddiv+0x144>
 80007c8:	ea4f 3303 	mov.w	r3, r3, lsl #12
 80007cc:	f04f 5580 	mov.w	r5, #268435456	@ 0x10000000
 80007d0:	ea45 1313 	orr.w	r3, r5, r3, lsr #4
 80007d4:	ea43 6312 	orr.w	r3, r3, r2, lsr #24
 80007d8:	ea4f 2202 	mov.w	r2, r2, lsl #8
 80007dc:	ea45 1511 	orr.w	r5, r5, r1, lsr #4
 80007e0:	ea45 6510 	orr.w	r5, r5, r0, lsr #24
 80007e4:	ea4f 2600 	mov.w	r6, r0, lsl #8
 80007e8:	f00e 4100 	and.w	r1, lr, #2147483648	@ 0x80000000
 80007ec:	429d      	cmp	r5, r3
 80007ee:	bf08      	it	eq
 80007f0:	4296      	cmpeq	r6, r2
 80007f2:	f144 04fd 	adc.w	r4, r4, #253	@ 0xfd
 80007f6:	f504 7440 	add.w	r4, r4, #768	@ 0x300
 80007fa:	d202      	bcs.n	8000802 <__aeabi_ddiv+0x6e>
 80007fc:	085b      	lsrs	r3, r3, #1
 80007fe:	ea4f 0232 	mov.w	r2, r2, rrx
 8000802:	1ab6      	subs	r6, r6, r2
 8000804:	eb65 0503 	sbc.w	r5, r5, r3
 8000808:	085b      	lsrs	r3, r3, #1
 800080a:	ea4f 0232 	mov.w	r2, r2, rrx
 800080e:	f44f 1080 	mov.w	r0, #1048576	@ 0x100000
 8000812:	f44f 2c00 	mov.w	ip, #524288	@ 0x80000
 8000816:	ebb6 0e02 	subs.w	lr, r6, r2
 800081a:	eb75 0e03 	sbcs.w	lr, r5, r3
 800081e:	bf22      	ittt	cs
 8000820:	1ab6      	subcs	r6, r6, r2
 8000822:	4675      	movcs	r5, lr
 8000824:	ea40 000c 	orrcs.w	r0, r0, ip
 8000828:	085b      	lsrs	r3, r3, #1
 800082a:	ea4f 0232 	mov.w	r2, r2, rrx
 800082e:	ebb6 0e02 	subs.w	lr, r6, r2
 8000832:	eb75 0e03 	sbcs.w	lr, r5, r3
 8000836:	bf22      	ittt	cs
 8000838:	1ab6      	subcs	r6, r6, r2
 800083a:	4675      	movcs	r5, lr
 800083c:	ea40 005c 	orrcs.w	r0, r0, ip, lsr #1
 8000840:	085b      	lsrs	r3, r3, #1
 8000842:	ea4f 0232 	mov.w	r2, r2, rrx
 8000846:	ebb6 0e02 	subs.w	lr, r6, r2
 800084a:	eb75 0e03 	sbcs.w	lr, r5, r3
 800084e:	bf22      	ittt	cs
 8000850:	1ab6      	subcs	r6, r6, r2
 8000852:	4675      	movcs	r5, lr
 8000854:	ea40 009c 	orrcs.w	r0, r0, ip, lsr #2
 8000858:	085b      	lsrs	r3, r3, #1
 800085a:	ea4f 0232 	mov.w	r2, r2, rrx
 800085e:	ebb6 0e02 	subs.w	lr, r6, r2
 8000862:	eb75 0e03 	sbcs.w	lr, r5, r3
 8000866:	bf22      	ittt	cs
 8000868:	1ab6      	subcs	r6, r6, r2
 800086a:	4675      	movcs	r5, lr
 800086c:	ea40 00dc 	orrcs.w	r0, r0, ip, lsr #3
 8000870:	ea55 0e06 	orrs.w	lr, r5, r6
 8000874:	d018      	beq.n	80008a8 <__aeabi_ddiv+0x114>
 8000876:	ea4f 1505 	mov.w	r5, r5, lsl #4
 800087a:	ea45 7516 	orr.w	r5, r5, r6, lsr #28
 800087e:	ea4f 1606 	mov.w	r6, r6, lsl #4
 8000882:	ea4f 03c3 	mov.w	r3, r3, lsl #3
 8000886:	ea43 7352 	orr.w	r3, r3, r2, lsr #29
 800088a:	ea4f 02c2 	mov.w	r2, r2, lsl #3
 800088e:	ea5f 1c1c 	movs.w	ip, ip, lsr #4
 8000892:	d1c0      	bne.n	8000816 <__aeabi_ddiv+0x82>
 8000894:	f411 1f80 	tst.w	r1, #1048576	@ 0x100000
 8000898:	d10b      	bne.n	80008b2 <__aeabi_ddiv+0x11e>
 800089a:	ea41 0100 	orr.w	r1, r1, r0
 800089e:	f04f 0000 	mov.w	r0, #0
 80008a2:	f04f 4c00 	mov.w	ip, #2147483648	@ 0x80000000
 80008a6:	e7b6      	b.n	8000816 <__aeabi_ddiv+0x82>
 80008a8:	f411 1f80 	tst.w	r1, #1048576	@ 0x100000
 80008ac:	bf04      	itt	eq
 80008ae:	4301      	orreq	r1, r0
 80008b0:	2000      	moveq	r0, #0
 80008b2:	f1b4 0cfd 	subs.w	ip, r4, #253	@ 0xfd
 80008b6:	bf88      	it	hi
 80008b8:	f5bc 6fe0 	cmphi.w	ip, #1792	@ 0x700
 80008bc:	f63f aeaf 	bhi.w	800061e <__aeabi_dmul+0xde>
 80008c0:	ebb5 0c03 	subs.w	ip, r5, r3
 80008c4:	bf04      	itt	eq
 80008c6:	ebb6 0c02 	subseq.w	ip, r6, r2
 80008ca:	ea5f 0c50 	movseq.w	ip, r0, lsr #1
 80008ce:	f150 0000 	adcs.w	r0, r0, #0
 80008d2:	eb41 5104 	adc.w	r1, r1, r4, lsl #20
 80008d6:	bd70      	pop	{r4, r5, r6, pc}
 80008d8:	f00e 4e00 	and.w	lr, lr, #2147483648	@ 0x80000000
 80008dc:	ea4e 3111 	orr.w	r1, lr, r1, lsr #12
 80008e0:	eb14 045c 	adds.w	r4, r4, ip, lsr #1
 80008e4:	bfc2      	ittt	gt
 80008e6:	ebd4 050c 	rsbsgt	r5, r4, ip
 80008ea:	ea41 5104 	orrgt.w	r1, r1, r4, lsl #20
 80008ee:	bd70      	popgt	{r4, r5, r6, pc}
 80008f0:	f441 1180 	orr.w	r1, r1, #1048576	@ 0x100000
 80008f4:	f04f 0e00 	mov.w	lr, #0
 80008f8:	3c01      	subs	r4, #1
 80008fa:	e690      	b.n	800061e <__aeabi_dmul+0xde>
 80008fc:	ea45 0e06 	orr.w	lr, r5, r6
 8000900:	e68d      	b.n	800061e <__aeabi_dmul+0xde>
 8000902:	ea0c 5513 	and.w	r5, ip, r3, lsr #20
 8000906:	ea94 0f0c 	teq	r4, ip
 800090a:	bf08      	it	eq
 800090c:	ea95 0f0c 	teqeq	r5, ip
 8000910:	f43f af3b 	beq.w	800078a <__aeabi_dmul+0x24a>
 8000914:	ea94 0f0c 	teq	r4, ip
 8000918:	d10a      	bne.n	8000930 <__aeabi_ddiv+0x19c>
 800091a:	ea50 3401 	orrs.w	r4, r0, r1, lsl #12
 800091e:	f47f af34 	bne.w	800078a <__aeabi_dmul+0x24a>
 8000922:	ea95 0f0c 	teq	r5, ip
 8000926:	f47f af25 	bne.w	8000774 <__aeabi_dmul+0x234>
 800092a:	4610      	mov	r0, r2
 800092c:	4619      	mov	r1, r3
 800092e:	e72c      	b.n	800078a <__aeabi_dmul+0x24a>
 8000930:	ea95 0f0c 	teq	r5, ip
 8000934:	d106      	bne.n	8000944 <__aeabi_ddiv+0x1b0>
 8000936:	ea52 3503 	orrs.w	r5, r2, r3, lsl #12
 800093a:	f43f aefd 	beq.w	8000738 <__aeabi_dmul+0x1f8>
 800093e:	4610      	mov	r0, r2
 8000940:	4619      	mov	r1, r3
 8000942:	e722      	b.n	800078a <__aeabi_dmul+0x24a>
 8000944:	ea50 0641 	orrs.w	r6, r0, r1, lsl #1
 8000948:	bf18      	it	ne
 800094a:	ea52 0643 	orrsne.w	r6, r2, r3, lsl #1
 800094e:	f47f aec5 	bne.w	80006dc <__aeabi_dmul+0x19c>
 8000952:	ea50 0441 	orrs.w	r4, r0, r1, lsl #1
 8000956:	f47f af0d 	bne.w	8000774 <__aeabi_dmul+0x234>
 800095a:	ea52 0543 	orrs.w	r5, r2, r3, lsl #1
 800095e:	f47f aeeb 	bne.w	8000738 <__aeabi_dmul+0x1f8>
 8000962:	e712      	b.n	800078a <__aeabi_dmul+0x24a>

08000964 <LL_ADC_SetCommonPathInternalCh>:
  *         @arg @ref LL_ADC_PATH_INTERNAL_TEMPSENSOR
  *         @arg @ref LL_ADC_PATH_INTERNAL_VBAT
  * @retval None
  */
__STATIC_INLINE void LL_ADC_SetCommonPathInternalCh(ADC_Common_TypeDef *ADCxy_COMMON, uint32_t PathInternal)
{
 8000964:	b480      	push	{r7}
 8000966:	b083      	sub	sp, #12
 8000968:	af00      	add	r7, sp, #0
 800096a:	6078      	str	r0, [r7, #4]
 800096c:	6039      	str	r1, [r7, #0]
  MODIFY_REG(ADCxy_COMMON->CCR, ADC_CCR_VREFEN | ADC_CCR_TSEN | ADC_CCR_VBATEN, PathInternal);
 800096e:	687b      	ldr	r3, [r7, #4]
 8000970:	689b      	ldr	r3, [r3, #8]
 8000972:	f023 72e0 	bic.w	r2, r3, #29360128	@ 0x1c00000
 8000976:	683b      	ldr	r3, [r7, #0]
 8000978:	431a      	orrs	r2, r3
 800097a:	687b      	ldr	r3, [r7, #4]
 800097c:	609a      	str	r2, [r3, #8]
}
 800097e:	bf00      	nop
 8000980:	370c      	adds	r7, #12
 8000982:	46bd      	mov	sp, r7
 8000984:	f85d 7b04 	ldr.w	r7, [sp], #4
 8000988:	4770      	bx	lr

0800098a <LL_ADC_REG_SetSequencerRanks>:
  *         (7) On STM32L4, fast channel (0.188 us for 12-bit resolution (ADC conversion rate up to 5.33 Ms/s)).
  *             Other channels are slow channels (0.238 us for 12-bit resolution (ADC conversion rate up to 4.21 Ms/s)).
  * @retval None
  */
__STATIC_INLINE void LL_ADC_REG_SetSequencerRanks(ADC_TypeDef *ADCx, uint32_t Rank, uint32_t Channel)
{
 800098a:	b480      	push	{r7}
 800098c:	b087      	sub	sp, #28
 800098e:	af00      	add	r7, sp, #0
 8000990:	60f8      	str	r0, [r7, #12]
 8000992:	60b9      	str	r1, [r7, #8]
 8000994:	607a      	str	r2, [r7, #4]
  /* Set bits with content of parameter "Channel" with bits position          */
  /* in register and register position depending on parameter "Rank".         */
  /* Parameters "Rank" and "Channel" are used with masks because containing   */
  /* other bits reserved for other purpose.                                   */
  __IO uint32_t *preg = __ADC_PTR_REG_OFFSET(ADCx->SQR1, ((Rank & ADC_REG_SQRX_REGOFFSET_MASK) >> ADC_SQRX_REGOFFSET_POS));
 8000996:	68fb      	ldr	r3, [r7, #12]
 8000998:	3330      	adds	r3, #48	@ 0x30
 800099a:	461a      	mov	r2, r3
 800099c:	68bb      	ldr	r3, [r7, #8]
 800099e:	0a1b      	lsrs	r3, r3, #8
 80009a0:	009b      	lsls	r3, r3, #2
 80009a2:	f003 030c 	and.w	r3, r3, #12
 80009a6:	4413      	add	r3, r2
 80009a8:	617b      	str	r3, [r7, #20]

  MODIFY_REG(*preg,
 80009aa:	697b      	ldr	r3, [r7, #20]
 80009ac:	681a      	ldr	r2, [r3, #0]
 80009ae:	68bb      	ldr	r3, [r7, #8]
 80009b0:	f003 031f 	and.w	r3, r3, #31
 80009b4:	211f      	movs	r1, #31
 80009b6:	fa01 f303 	lsl.w	r3, r1, r3
 80009ba:	43db      	mvns	r3, r3
 80009bc:	401a      	ands	r2, r3
 80009be:	687b      	ldr	r3, [r7, #4]
 80009c0:	0e9b      	lsrs	r3, r3, #26
 80009c2:	f003 011f 	and.w	r1, r3, #31
 80009c6:	68bb      	ldr	r3, [r7, #8]
 80009c8:	f003 031f 	and.w	r3, r3, #31
 80009cc:	fa01 f303 	lsl.w	r3, r1, r3
 80009d0:	431a      	orrs	r2, r3
 80009d2:	697b      	ldr	r3, [r7, #20]
 80009d4:	601a      	str	r2, [r3, #0]
             ADC_CHANNEL_ID_NUMBER_MASK_POSBIT0 << (Rank & ADC_REG_RANK_ID_SQRX_MASK),
             ((Channel & ADC_CHANNEL_ID_NUMBER_MASK) >> ADC_CHANNEL_ID_NUMBER_BITOFFSET_POS) << (Rank & ADC_REG_RANK_ID_SQRX_MASK));
}
 80009d6:	bf00      	nop
 80009d8:	371c      	adds	r7, #28
 80009da:	46bd      	mov	sp, r7
 80009dc:	f85d 7b04 	ldr.w	r7, [sp], #4
 80009e0:	4770      	bx	lr

080009e2 <LL_ADC_SetChannelSamplingTime>:
  *             can be replaced by 3.5 ADC clock cycles.
  *             Refer to function @ref LL_ADC_SetSamplingTimeCommonConfig().
  * @retval None
  */
__STATIC_INLINE void LL_ADC_SetChannelSamplingTime(ADC_TypeDef *ADCx, uint32_t Channel, uint32_t SamplingTime)
{
 80009e2:	b480      	push	{r7}
 80009e4:	b087      	sub	sp, #28
 80009e6:	af00      	add	r7, sp, #0
 80009e8:	60f8      	str	r0, [r7, #12]
 80009ea:	60b9      	str	r1, [r7, #8]
 80009ec:	607a      	str	r2, [r7, #4]
  /* Set bits with content of parameter "SamplingTime" with bits position     */
  /* in register and register position depending on parameter "Channel".      */
  /* Parameter "Channel" is used with masks because containing                */
  /* other bits reserved for other purpose.                                   */
  __IO uint32_t *preg = __ADC_PTR_REG_OFFSET(ADCx->SMPR1, ((Channel & ADC_CHANNEL_SMPRX_REGOFFSET_MASK) >> ADC_SMPRX_REGOFFSET_POS));
 80009ee:	68fb      	ldr	r3, [r7, #12]
 80009f0:	3314      	adds	r3, #20
 80009f2:	461a      	mov	r2, r3
 80009f4:	68bb      	ldr	r3, [r7, #8]
 80009f6:	0e5b      	lsrs	r3, r3, #25
 80009f8:	009b      	lsls	r3, r3, #2
 80009fa:	f003 0304 	and.w	r3, r3, #4
 80009fe:	4413      	add	r3, r2
 8000a00:	617b      	str	r3, [r7, #20]

  MODIFY_REG(*preg,
 8000a02:	697b      	ldr	r3, [r7, #20]
 8000a04:	681a      	ldr	r2, [r3, #0]
 8000a06:	68bb      	ldr	r3, [r7, #8]
 8000a08:	0d1b      	lsrs	r3, r3, #20
 8000a0a:	f003 031f 	and.w	r3, r3, #31
 8000a0e:	2107      	movs	r1, #7
 8000a10:	fa01 f303 	lsl.w	r3, r1, r3
 8000a14:	43db      	mvns	r3, r3
 8000a16:	401a      	ands	r2, r3
 8000a18:	68bb      	ldr	r3, [r7, #8]
 8000a1a:	0d1b      	lsrs	r3, r3, #20
 8000a1c:	f003 031f 	and.w	r3, r3, #31
 8000a20:	6879      	ldr	r1, [r7, #4]
 8000a22:	fa01 f303 	lsl.w	r3, r1, r3
 8000a26:	431a      	orrs	r2, r3
 8000a28:	697b      	ldr	r3, [r7, #20]
 8000a2a:	601a      	str	r2, [r3, #0]
             ADC_SMPR1_SMP0 << ((Channel & ADC_CHANNEL_SMPx_BITOFFSET_MASK) >> ADC_CHANNEL_SMPx_BITOFFSET_POS),
             SamplingTime   << ((Channel & ADC_CHANNEL_SMPx_BITOFFSET_MASK) >> ADC_CHANNEL_SMPx_BITOFFSET_POS));
}
 8000a2c:	bf00      	nop
 8000a2e:	371c      	adds	r7, #28
 8000a30:	46bd      	mov	sp, r7
 8000a32:	f85d 7b04 	ldr.w	r7, [sp], #4
 8000a36:	4770      	bx	lr

08000a38 <LL_ADC_SetChannelSingleDiff>:
  *         @arg @ref LL_ADC_SINGLE_ENDED
  *         @arg @ref LL_ADC_DIFFERENTIAL_ENDED
  * @retval None
  */
__STATIC_INLINE void LL_ADC_SetChannelSingleDiff(ADC_TypeDef *ADCx, uint32_t Channel, uint32_t SingleDiff)
{
 8000a38:	b480      	push	{r7}
 8000a3a:	b085      	sub	sp, #20
 8000a3c:	af00      	add	r7, sp, #0
 8000a3e:	60f8      	str	r0, [r7, #12]
 8000a40:	60b9      	str	r1, [r7, #8]
 8000a42:	607a      	str	r2, [r7, #4]
  /* Bits of channels in single or differential mode are set only for         */
  /* differential mode (for single mode, mask of bits allowed to be set is    */
  /* shifted out of range of bits of channels in single or differential mode. */
  MODIFY_REG(ADCx->DIFSEL,
 8000a44:	68fb      	ldr	r3, [r7, #12]
 8000a46:	f8d3 20b0 	ldr.w	r2, [r3, #176]	@ 0xb0
 8000a4a:	68bb      	ldr	r3, [r7, #8]
 8000a4c:	f3c3 0312 	ubfx	r3, r3, #0, #19
 8000a50:	43db      	mvns	r3, r3
 8000a52:	401a      	ands	r2, r3
 8000a54:	687b      	ldr	r3, [r7, #4]
 8000a56:	f003 0318 	and.w	r3, r3, #24
 8000a5a:	4908      	ldr	r1, [pc, #32]	@ (8000a7c <LL_ADC_SetChannelSingleDiff+0x44>)
 8000a5c:	40d9      	lsrs	r1, r3
 8000a5e:	68bb      	ldr	r3, [r7, #8]
 8000a60:	400b      	ands	r3, r1
 8000a62:	f3c3 0312 	ubfx	r3, r3, #0, #19
 8000a66:	431a      	orrs	r2, r3
 8000a68:	68fb      	ldr	r3, [r7, #12]
 8000a6a:	f8c3 20b0 	str.w	r2, [r3, #176]	@ 0xb0
             Channel & ADC_SINGLEDIFF_CHANNEL_MASK,
             (Channel & ADC_SINGLEDIFF_CHANNEL_MASK) & (ADC_DIFSEL_DIFSEL >> (SingleDiff & ADC_SINGLEDIFF_CHANNEL_SHIFT_MASK)));
}
 8000a6e:	bf00      	nop
 8000a70:	3714      	adds	r7, #20
 8000a72:	46bd      	mov	sp, r7
 8000a74:	f85d 7b04 	ldr.w	r7, [sp], #4
 8000a78:	4770      	bx	lr
 8000a7a:	bf00      	nop
 8000a7c:	0007ffff 	.word	0x0007ffff

08000a80 <LL_ADC_DisableDeepPowerDown>:
  * @rmtoll CR       DEEPPWD        LL_ADC_DisableDeepPowerDown
  * @param  ADCx ADC instance
  * @retval None
  */
__STATIC_INLINE void LL_ADC_DisableDeepPowerDown(ADC_TypeDef *ADCx)
{
 8000a80:	b480      	push	{r7}
 8000a82:	b083      	sub	sp, #12
 8000a84:	af00      	add	r7, sp, #0
 8000a86:	6078      	str	r0, [r7, #4]
  /* Note: Write register with some additional bits forced to state reset     */
  /*       instead of modifying only the selected bit for this function,      */
  /*       to not interfere with bits with HW property "rs".                  */
  CLEAR_BIT(ADCx->CR, (ADC_CR_DEEPPWD | ADC_CR_BITS_PROPERTY_RS));
 8000a88:	687b      	ldr	r3, [r7, #4]
 8000a8a:	689b      	ldr	r3, [r3, #8]
 8000a8c:	f023 4320 	bic.w	r3, r3, #2684354560	@ 0xa0000000
 8000a90:	f023 033f 	bic.w	r3, r3, #63	@ 0x3f
 8000a94:	687a      	ldr	r2, [r7, #4]
 8000a96:	6093      	str	r3, [r2, #8]
}
 8000a98:	bf00      	nop
 8000a9a:	370c      	adds	r7, #12
 8000a9c:	46bd      	mov	sp, r7
 8000a9e:	f85d 7b04 	ldr.w	r7, [sp], #4
 8000aa2:	4770      	bx	lr

08000aa4 <LL_ADC_EnableInternalRegulator>:
  * @rmtoll CR       ADVREGEN       LL_ADC_EnableInternalRegulator
  * @param  ADCx ADC instance
  * @retval None
  */
__STATIC_INLINE void LL_ADC_EnableInternalRegulator(ADC_TypeDef *ADCx)
{
 8000aa4:	b480      	push	{r7}
 8000aa6:	b083      	sub	sp, #12
 8000aa8:	af00      	add	r7, sp, #0
 8000aaa:	6078      	str	r0, [r7, #4]
  /* Note: Write register with some additional bits forced to state reset     */
  /*       instead of modifying only the selected bit for this function,      */
  /*       to not interfere with bits with HW property "rs".                  */
  MODIFY_REG(ADCx->CR,
 8000aac:	687b      	ldr	r3, [r7, #4]
 8000aae:	689b      	ldr	r3, [r3, #8]
 8000ab0:	f023 4310 	bic.w	r3, r3, #2415919104	@ 0x90000000
 8000ab4:	f023 033f 	bic.w	r3, r3, #63	@ 0x3f
 8000ab8:	f043 5280 	orr.w	r2, r3, #268435456	@ 0x10000000
 8000abc:	687b      	ldr	r3, [r7, #4]
 8000abe:	609a      	str	r2, [r3, #8]
             ADC_CR_BITS_PROPERTY_RS,
             ADC_CR_ADVREGEN);
}
 8000ac0:	bf00      	nop
 8000ac2:	370c      	adds	r7, #12
 8000ac4:	46bd      	mov	sp, r7
 8000ac6:	f85d 7b04 	ldr.w	r7, [sp], #4
 8000aca:	4770      	bx	lr

08000acc <LL_RCC_SetADCClockSource>:
  *
  *         (*) value not defined in all devices.
  * @retval None
  */
__STATIC_INLINE void LL_RCC_SetADCClockSource(uint32_t ADCxSource)
{
 8000acc:	b480      	push	{r7}
 8000ace:	b083      	sub	sp, #12
 8000ad0:	af00      	add	r7, sp, #0
 8000ad2:	6078      	str	r0, [r7, #4]
  MODIFY_REG(RCC->CCIPR, RCC_CCIPR_ADCSEL, ADCxSource);
 8000ad4:	4b07      	ldr	r3, [pc, #28]	@ (8000af4 <LL_RCC_SetADCClockSource+0x28>)
 8000ad6:	f8d3 3088 	ldr.w	r3, [r3, #136]	@ 0x88
 8000ada:	f023 5240 	bic.w	r2, r3, #805306368	@ 0x30000000
 8000ade:	4905      	ldr	r1, [pc, #20]	@ (8000af4 <LL_RCC_SetADCClockSource+0x28>)
 8000ae0:	687b      	ldr	r3, [r7, #4]
 8000ae2:	4313      	orrs	r3, r2
 8000ae4:	f8c1 3088 	str.w	r3, [r1, #136]	@ 0x88
}
 8000ae8:	bf00      	nop
 8000aea:	370c      	adds	r7, #12
 8000aec:	46bd      	mov	sp, r7
 8000aee:	f85d 7b04 	ldr.w	r7, [sp], #4
 8000af2:	4770      	bx	lr
 8000af4:	40021000 	.word	0x40021000

08000af8 <LL_AHB2_GRP1_EnableClock>:
  *
  *         (*) value not defined in all devices.
  * @retval None
*/
__STATIC_INLINE void LL_AHB2_GRP1_EnableClock(uint32_t Periphs)
{
 8000af8:	b480      	push	{r7}
 8000afa:	b085      	sub	sp, #20
 8000afc:	af00      	add	r7, sp, #0
 8000afe:	6078      	str	r0, [r7, #4]
  __IO uint32_t tmpreg;
  SET_BIT(RCC->AHB2ENR, Periphs);
 8000b00:	4b08      	ldr	r3, [pc, #32]	@ (8000b24 <LL_AHB2_GRP1_EnableClock+0x2c>)
 8000b02:	6cda      	ldr	r2, [r3, #76]	@ 0x4c
 8000b04:	4907      	ldr	r1, [pc, #28]	@ (8000b24 <LL_AHB2_GRP1_EnableClock+0x2c>)
 8000b06:	687b      	ldr	r3, [r7, #4]
 8000b08:	4313      	orrs	r3, r2
 8000b0a:	64cb      	str	r3, [r1, #76]	@ 0x4c
  /* Delay after an RCC peripheral clock enabling */
  tmpreg = READ_BIT(RCC->AHB2ENR, Periphs);
 8000b0c:	4b05      	ldr	r3, [pc, #20]	@ (8000b24 <LL_AHB2_GRP1_EnableClock+0x2c>)
 8000b0e:	6cda      	ldr	r2, [r3, #76]	@ 0x4c
 8000b10:	687b      	ldr	r3, [r7, #4]
 8000b12:	4013      	ands	r3, r2
 8000b14:	60fb      	str	r3, [r7, #12]
  (void)tmpreg;
 8000b16:	68fb      	ldr	r3, [r7, #12]
}
 8000b18:	bf00      	nop
 8000b1a:	3714      	adds	r7, #20
 8000b1c:	46bd      	mov	sp, r7
 8000b1e:	f85d 7b04 	ldr.w	r7, [sp], #4
 8000b22:	4770      	bx	lr
 8000b24:	40021000 	.word	0x40021000

08000b28 <LL_GPIO_EnablePinAnalogControl>:
  *         @arg @ref LL_GPIO_PIN_15
  *         @arg @ref LL_GPIO_PIN_ALL
  * @retval None
  */
__STATIC_INLINE void LL_GPIO_EnablePinAnalogControl(GPIO_TypeDef *GPIOx, uint32_t PinMask)
{
 8000b28:	b480      	push	{r7}
 8000b2a:	b083      	sub	sp, #12
 8000b2c:	af00      	add	r7, sp, #0
 8000b2e:	6078      	str	r0, [r7, #4]
 8000b30:	6039      	str	r1, [r7, #0]
  SET_BIT(GPIOx->ASCR, PinMask);
 8000b32:	687b      	ldr	r3, [r7, #4]
 8000b34:	6ada      	ldr	r2, [r3, #44]	@ 0x2c
 8000b36:	683b      	ldr	r3, [r7, #0]
 8000b38:	431a      	orrs	r2, r3
 8000b3a:	687b      	ldr	r3, [r7, #4]
 8000b3c:	62da      	str	r2, [r3, #44]	@ 0x2c
}
 8000b3e:	bf00      	nop
 8000b40:	370c      	adds	r7, #12
 8000b42:	46bd      	mov	sp, r7
 8000b44:	f85d 7b04 	ldr.w	r7, [sp], #4
 8000b48:	4770      	bx	lr
	...

08000b4c <MX_ADC1_Init>:

/* USER CODE END 0 */

/* ADC1 init function */
void MX_ADC1_Init(void)
{
 8000b4c:	b580      	push	{r7, lr}
 8000b4e:	b094      	sub	sp, #80	@ 0x50
 8000b50:	af00      	add	r7, sp, #0

  /* USER CODE BEGIN ADC1_Init 0 */

  /* USER CODE END ADC1_Init 0 */

  LL_ADC_InitTypeDef ADC_InitStruct = {0};
 8000b52:	f107 0340 	add.w	r3, r7, #64	@ 0x40
 8000b56:	2200      	movs	r2, #0
 8000b58:	601a      	str	r2, [r3, #0]
 8000b5a:	605a      	str	r2, [r3, #4]
 8000b5c:	609a      	str	r2, [r3, #8]
  LL_ADC_REG_InitTypeDef ADC_REG_InitStruct = {0};
 8000b5e:	f107 0328 	add.w	r3, r7, #40	@ 0x28
 8000b62:	2200      	movs	r2, #0
 8000b64:	601a      	str	r2, [r3, #0]
 8000b66:	605a      	str	r2, [r3, #4]
 8000b68:	609a      	str	r2, [r3, #8]
 8000b6a:	60da      	str	r2, [r3, #12]
 8000b6c:	611a      	str	r2, [r3, #16]
 8000b6e:	615a      	str	r2, [r3, #20]
  LL_ADC_CommonInitTypeDef ADC_CommonInitStruct = {0};
 8000b70:	f107 0318 	add.w	r3, r7, #24
 8000b74:	2200      	movs	r2, #0
 8000b76:	601a      	str	r2, [r3, #0]
 8000b78:	605a      	str	r2, [r3, #4]
 8000b7a:	609a      	str	r2, [r3, #8]
 8000b7c:	60da      	str	r2, [r3, #12]

  LL_GPIO_InitTypeDef GPIO_InitStruct = {0};
 8000b7e:	463b      	mov	r3, r7
 8000b80:	2200      	movs	r2, #0
 8000b82:	601a      	str	r2, [r3, #0]
 8000b84:	605a      	str	r2, [r3, #4]
 8000b86:	609a      	str	r2, [r3, #8]
 8000b88:	60da      	str	r2, [r3, #12]
 8000b8a:	611a      	str	r2, [r3, #16]
 8000b8c:	615a      	str	r2, [r3, #20]

  LL_RCC_SetADCClockSource(LL_RCC_ADC_CLKSOURCE_SYSCLK);
 8000b8e:	f04f 5040 	mov.w	r0, #805306368	@ 0x30000000
 8000b92:	f7ff ff9b 	bl	8000acc <LL_RCC_SetADCClockSource>

  /* Peripheral clock enable */
  LL_AHB2_GRP1_EnableClock(LL_AHB2_GRP1_PERIPH_ADC);
 8000b96:	f44f 5000 	mov.w	r0, #8192	@ 0x2000
 8000b9a:	f7ff ffad 	bl	8000af8 <LL_AHB2_GRP1_EnableClock>

  LL_AHB2_GRP1_EnableClock(LL_AHB2_GRP1_PERIPH_GPIOC);
 8000b9e:	2004      	movs	r0, #4
 8000ba0:	f7ff ffaa 	bl	8000af8 <LL_AHB2_GRP1_EnableClock>
  /**ADC1 GPIO Configuration
  PC2   ------> ADC1_IN3
  */
  GPIO_InitStruct.Pin = LC_TOP_IN_Pin;
 8000ba4:	2304      	movs	r3, #4
 8000ba6:	603b      	str	r3, [r7, #0]
  GPIO_InitStruct.Mode = LL_GPIO_MODE_ANALOG;
 8000ba8:	2303      	movs	r3, #3
 8000baa:	607b      	str	r3, [r7, #4]
  GPIO_InitStruct.Pull = LL_GPIO_PULL_NO;
 8000bac:	2300      	movs	r3, #0
 8000bae:	613b      	str	r3, [r7, #16]
  LL_GPIO_Init(LC_TOP_IN_GPIO_Port, &GPIO_InitStruct);
 8000bb0:	463b      	mov	r3, r7
 8000bb2:	4619      	mov	r1, r3
 8000bb4:	4831      	ldr	r0, [pc, #196]	@ (8000c7c <MX_ADC1_Init+0x130>)
 8000bb6:	f005 fe16 	bl	80067e6 <LL_GPIO_Init>

  LL_GPIO_EnablePinAnalogControl(LC_TOP_IN_GPIO_Port, LC_TOP_IN_Pin);
 8000bba:	2104      	movs	r1, #4
 8000bbc:	482f      	ldr	r0, [pc, #188]	@ (8000c7c <MX_ADC1_Init+0x130>)
 8000bbe:	f7ff ffb3 	bl	8000b28 <LL_GPIO_EnablePinAnalogControl>

  /* USER CODE END ADC1_Init 1 */

  /** Common config
  */
  ADC_InitStruct.Resolution = LL_ADC_RESOLUTION_12B;
 8000bc2:	2300      	movs	r3, #0
 8000bc4:	643b      	str	r3, [r7, #64]	@ 0x40
  ADC_InitStruct.DataAlignment = LL_ADC_DATA_ALIGN_RIGHT;
 8000bc6:	2300      	movs	r3, #0
 8000bc8:	647b      	str	r3, [r7, #68]	@ 0x44
  ADC_InitStruct.LowPowerMode = LL_ADC_LP_MODE_NONE;
 8000bca:	2300      	movs	r3, #0
 8000bcc:	64bb      	str	r3, [r7, #72]	@ 0x48
  LL_ADC_Init(ADC1, &ADC_InitStruct);
 8000bce:	f107 0340 	add.w	r3, r7, #64	@ 0x40
 8000bd2:	4619      	mov	r1, r3
 8000bd4:	482a      	ldr	r0, [pc, #168]	@ (8000c80 <MX_ADC1_Init+0x134>)
 8000bd6:	f005 fa27 	bl	8006028 <LL_ADC_Init>
  ADC_REG_InitStruct.TriggerSource = LL_ADC_REG_TRIG_SOFTWARE;
 8000bda:	2300      	movs	r3, #0
 8000bdc:	62bb      	str	r3, [r7, #40]	@ 0x28
  ADC_REG_InitStruct.SequencerLength = LL_ADC_REG_SEQ_SCAN_DISABLE;
 8000bde:	2300      	movs	r3, #0
 8000be0:	62fb      	str	r3, [r7, #44]	@ 0x2c
  ADC_REG_InitStruct.SequencerDiscont = LL_ADC_REG_SEQ_DISCONT_DISABLE;
 8000be2:	2300      	movs	r3, #0
 8000be4:	633b      	str	r3, [r7, #48]	@ 0x30
  ADC_REG_InitStruct.ContinuousMode = LL_ADC_REG_CONV_SINGLE;
 8000be6:	2300      	movs	r3, #0
 8000be8:	637b      	str	r3, [r7, #52]	@ 0x34
  ADC_REG_InitStruct.DMATransfer = LL_ADC_REG_DMA_TRANSFER_NONE;
 8000bea:	2300      	movs	r3, #0
 8000bec:	63bb      	str	r3, [r7, #56]	@ 0x38
  ADC_REG_InitStruct.Overrun = LL_ADC_REG_OVR_DATA_PRESERVED;
 8000bee:	2300      	movs	r3, #0
 8000bf0:	63fb      	str	r3, [r7, #60]	@ 0x3c
  LL_ADC_REG_Init(ADC1, &ADC_REG_InitStruct);
 8000bf2:	f107 0328 	add.w	r3, r7, #40	@ 0x28
 8000bf6:	4619      	mov	r1, r3
 8000bf8:	4821      	ldr	r0, [pc, #132]	@ (8000c80 <MX_ADC1_Init+0x134>)
 8000bfa:	f005 fa3b 	bl	8006074 <LL_ADC_REG_Init>
  ADC_CommonInitStruct.CommonClock = LL_ADC_CLOCK_ASYNC_DIV1;
 8000bfe:	2300      	movs	r3, #0
 8000c00:	61bb      	str	r3, [r7, #24]
  ADC_CommonInitStruct.Multimode = LL_ADC_MULTI_INDEPENDENT;
 8000c02:	2300      	movs	r3, #0
 8000c04:	61fb      	str	r3, [r7, #28]
  LL_ADC_CommonInit(__LL_ADC_COMMON_INSTANCE(ADC1), &ADC_CommonInitStruct);
 8000c06:	f107 0318 	add.w	r3, r7, #24
 8000c0a:	4619      	mov	r1, r3
 8000c0c:	481d      	ldr	r0, [pc, #116]	@ (8000c84 <MX_ADC1_Init+0x138>)
 8000c0e:	f005 f9c3 	bl	8005f98 <LL_ADC_CommonInit>
  LL_ADC_SetCommonPathInternalCh(__LL_ADC_COMMON_INSTANCE(ADC1), LL_ADC_PATH_INTERNAL_NONE);
 8000c12:	2100      	movs	r1, #0
 8000c14:	481b      	ldr	r0, [pc, #108]	@ (8000c84 <MX_ADC1_Init+0x138>)
 8000c16:	f7ff fea5 	bl	8000964 <LL_ADC_SetCommonPathInternalCh>

  /* Disable ADC deep power down (enabled by default after reset state) */
  LL_ADC_DisableDeepPowerDown(ADC1);
 8000c1a:	4819      	ldr	r0, [pc, #100]	@ (8000c80 <MX_ADC1_Init+0x134>)
 8000c1c:	f7ff ff30 	bl	8000a80 <LL_ADC_DisableDeepPowerDown>
  /* Enable ADC internal voltage regulator */
  LL_ADC_EnableInternalRegulator(ADC1);
 8000c20:	4817      	ldr	r0, [pc, #92]	@ (8000c80 <MX_ADC1_Init+0x134>)
 8000c22:	f7ff ff3f 	bl	8000aa4 <LL_ADC_EnableInternalRegulator>
  /* Note: Variable divided by 2 to compensate partially */
  /* CPU processing cycles (depends on compilation optimization). */
  /* Note: If system core clock frequency is below 200kHz, wait time */
  /* is only a few CPU processing cycles. */
  uint32_t wait_loop_index;
  wait_loop_index = ((LL_ADC_DELAY_INTERNAL_REGUL_STAB_US * (SystemCoreClock / (100000 * 2))) / 10);
 8000c26:	4b18      	ldr	r3, [pc, #96]	@ (8000c88 <MX_ADC1_Init+0x13c>)
 8000c28:	681b      	ldr	r3, [r3, #0]
 8000c2a:	099b      	lsrs	r3, r3, #6
 8000c2c:	4a17      	ldr	r2, [pc, #92]	@ (8000c8c <MX_ADC1_Init+0x140>)
 8000c2e:	fba2 2303 	umull	r2, r3, r2, r3
 8000c32:	099a      	lsrs	r2, r3, #6
 8000c34:	4613      	mov	r3, r2
 8000c36:	009b      	lsls	r3, r3, #2
 8000c38:	4413      	add	r3, r2
 8000c3a:	009b      	lsls	r3, r3, #2
 8000c3c:	461a      	mov	r2, r3
 8000c3e:	4b14      	ldr	r3, [pc, #80]	@ (8000c90 <MX_ADC1_Init+0x144>)
 8000c40:	fba3 2302 	umull	r2, r3, r3, r2
 8000c44:	08db      	lsrs	r3, r3, #3
 8000c46:	64fb      	str	r3, [r7, #76]	@ 0x4c
  while(wait_loop_index != 0)
 8000c48:	e002      	b.n	8000c50 <MX_ADC1_Init+0x104>
  {
    wait_loop_index--;
 8000c4a:	6cfb      	ldr	r3, [r7, #76]	@ 0x4c
 8000c4c:	3b01      	subs	r3, #1
 8000c4e:	64fb      	str	r3, [r7, #76]	@ 0x4c
  while(wait_loop_index != 0)
 8000c50:	6cfb      	ldr	r3, [r7, #76]	@ 0x4c
 8000c52:	2b00      	cmp	r3, #0
 8000c54:	d1f9      	bne.n	8000c4a <MX_ADC1_Init+0xfe>
  }

  /** Configure Regular Channel
  */
  LL_ADC_REG_SetSequencerRanks(ADC1, LL_ADC_REG_RANK_1, LL_ADC_CHANNEL_3);
 8000c56:	4a0f      	ldr	r2, [pc, #60]	@ (8000c94 <MX_ADC1_Init+0x148>)
 8000c58:	2106      	movs	r1, #6
 8000c5a:	4809      	ldr	r0, [pc, #36]	@ (8000c80 <MX_ADC1_Init+0x134>)
 8000c5c:	f7ff fe95 	bl	800098a <LL_ADC_REG_SetSequencerRanks>
  LL_ADC_SetChannelSamplingTime(ADC1, LL_ADC_CHANNEL_3, LL_ADC_SAMPLINGTIME_2CYCLES_5);
 8000c60:	2200      	movs	r2, #0
 8000c62:	490c      	ldr	r1, [pc, #48]	@ (8000c94 <MX_ADC1_Init+0x148>)
 8000c64:	4806      	ldr	r0, [pc, #24]	@ (8000c80 <MX_ADC1_Init+0x134>)
 8000c66:	f7ff febc 	bl	80009e2 <LL_ADC_SetChannelSamplingTime>
  LL_ADC_SetChannelSingleDiff(ADC1, LL_ADC_CHANNEL_3, LL_ADC_SINGLE_ENDED);
 8000c6a:	227f      	movs	r2, #127	@ 0x7f
 8000c6c:	4909      	ldr	r1, [pc, #36]	@ (8000c94 <MX_ADC1_Init+0x148>)
 8000c6e:	4804      	ldr	r0, [pc, #16]	@ (8000c80 <MX_ADC1_Init+0x134>)
 8000c70:	f7ff fee2 	bl	8000a38 <LL_ADC_SetChannelSingleDiff>
  /* USER CODE BEGIN ADC1_Init 2 */

  /* USER CODE END ADC1_Init 2 */

}
 8000c74:	bf00      	nop
 8000c76:	3750      	adds	r7, #80	@ 0x50
 8000c78:	46bd      	mov	sp, r7
 8000c7a:	bd80      	pop	{r7, pc}
 8000c7c:	48000800 	.word	0x48000800
 8000c80:	50040000 	.word	0x50040000
 8000c84:	50040300 	.word	0x50040300
 8000c88:	2000000c 	.word	0x2000000c
 8000c8c:	053e2d63 	.word	0x053e2d63
 8000c90:	cccccccd 	.word	0xcccccccd
 8000c94:	0c900008 	.word	0x0c900008

08000c98 <MX_ADC2_Init>:
/* ADC2 init function */
void MX_ADC2_Init(void)
{
 8000c98:	b580      	push	{r7, lr}
 8000c9a:	b094      	sub	sp, #80	@ 0x50
 8000c9c:	af00      	add	r7, sp, #0

  /* USER CODE BEGIN ADC2_Init 0 */

  /* USER CODE END ADC2_Init 0 */

  LL_ADC_InitTypeDef ADC_InitStruct = {0};
 8000c9e:	f107 0340 	add.w	r3, r7, #64	@ 0x40
 8000ca2:	2200      	movs	r2, #0
 8000ca4:	601a      	str	r2, [r3, #0]
 8000ca6:	605a      	str	r2, [r3, #4]
 8000ca8:	609a      	str	r2, [r3, #8]
  LL_ADC_REG_InitTypeDef ADC_REG_InitStruct = {0};
 8000caa:	f107 0328 	add.w	r3, r7, #40	@ 0x28
 8000cae:	2200      	movs	r2, #0
 8000cb0:	601a      	str	r2, [r3, #0]
 8000cb2:	605a      	str	r2, [r3, #4]
 8000cb4:	609a      	str	r2, [r3, #8]
 8000cb6:	60da      	str	r2, [r3, #12]
 8000cb8:	611a      	str	r2, [r3, #16]
 8000cba:	615a      	str	r2, [r3, #20]
  LL_ADC_CommonInitTypeDef ADC_CommonInitStruct = {0};
 8000cbc:	f107 0318 	add.w	r3, r7, #24
 8000cc0:	2200      	movs	r2, #0
 8000cc2:	601a      	str	r2, [r3, #0]
 8000cc4:	605a      	str	r2, [r3, #4]
 8000cc6:	609a      	str	r2, [r3, #8]
 8000cc8:	60da      	str	r2, [r3, #12]

  LL_GPIO_InitTypeDef GPIO_InitStruct = {0};
 8000cca:	463b      	mov	r3, r7
 8000ccc:	2200      	movs	r2, #0
 8000cce:	601a      	str	r2, [r3, #0]
 8000cd0:	605a      	str	r2, [r3, #4]
 8000cd2:	609a      	str	r2, [r3, #8]
 8000cd4:	60da      	str	r2, [r3, #12]
 8000cd6:	611a      	str	r2, [r3, #16]
 8000cd8:	615a      	str	r2, [r3, #20]

  LL_RCC_SetADCClockSource(LL_RCC_ADC_CLKSOURCE_SYSCLK);
 8000cda:	f04f 5040 	mov.w	r0, #805306368	@ 0x30000000
 8000cde:	f7ff fef5 	bl	8000acc <LL_RCC_SetADCClockSource>

  /* Peripheral clock enable */
  LL_AHB2_GRP1_EnableClock(LL_AHB2_GRP1_PERIPH_ADC);
 8000ce2:	f44f 5000 	mov.w	r0, #8192	@ 0x2000
 8000ce6:	f7ff ff07 	bl	8000af8 <LL_AHB2_GRP1_EnableClock>

  LL_AHB2_GRP1_EnableClock(LL_AHB2_GRP1_PERIPH_GPIOC);
 8000cea:	2004      	movs	r0, #4
 8000cec:	f7ff ff04 	bl	8000af8 <LL_AHB2_GRP1_EnableClock>
  /**ADC2 GPIO Configuration
  PC3   ------> ADC2_IN4
  */
  GPIO_InitStruct.Pin = LC_BOT_IN_Pin;
 8000cf0:	2308      	movs	r3, #8
 8000cf2:	603b      	str	r3, [r7, #0]
  GPIO_InitStruct.Mode = LL_GPIO_MODE_ANALOG;
 8000cf4:	2303      	movs	r3, #3
 8000cf6:	607b      	str	r3, [r7, #4]
  GPIO_InitStruct.Pull = LL_GPIO_PULL_NO;
 8000cf8:	2300      	movs	r3, #0
 8000cfa:	613b      	str	r3, [r7, #16]
  LL_GPIO_Init(LC_BOT_IN_GPIO_Port, &GPIO_InitStruct);
 8000cfc:	463b      	mov	r3, r7
 8000cfe:	4619      	mov	r1, r3
 8000d00:	4830      	ldr	r0, [pc, #192]	@ (8000dc4 <MX_ADC2_Init+0x12c>)
 8000d02:	f005 fd70 	bl	80067e6 <LL_GPIO_Init>

  LL_GPIO_EnablePinAnalogControl(LC_BOT_IN_GPIO_Port, LC_BOT_IN_Pin);
 8000d06:	2108      	movs	r1, #8
 8000d08:	482e      	ldr	r0, [pc, #184]	@ (8000dc4 <MX_ADC2_Init+0x12c>)
 8000d0a:	f7ff ff0d 	bl	8000b28 <LL_GPIO_EnablePinAnalogControl>

  /* USER CODE END ADC2_Init 1 */

  /** Common config
  */
  ADC_InitStruct.Resolution = LL_ADC_RESOLUTION_12B;
 8000d0e:	2300      	movs	r3, #0
 8000d10:	643b      	str	r3, [r7, #64]	@ 0x40
  ADC_InitStruct.DataAlignment = LL_ADC_DATA_ALIGN_RIGHT;
 8000d12:	2300      	movs	r3, #0
 8000d14:	647b      	str	r3, [r7, #68]	@ 0x44
  ADC_InitStruct.LowPowerMode = LL_ADC_LP_MODE_NONE;
 8000d16:	2300      	movs	r3, #0
 8000d18:	64bb      	str	r3, [r7, #72]	@ 0x48
  LL_ADC_Init(ADC2, &ADC_InitStruct);
 8000d1a:	f107 0340 	add.w	r3, r7, #64	@ 0x40
 8000d1e:	4619      	mov	r1, r3
 8000d20:	4829      	ldr	r0, [pc, #164]	@ (8000dc8 <MX_ADC2_Init+0x130>)
 8000d22:	f005 f981 	bl	8006028 <LL_ADC_Init>
  ADC_REG_InitStruct.TriggerSource = LL_ADC_REG_TRIG_SOFTWARE;
 8000d26:	2300      	movs	r3, #0
 8000d28:	62bb      	str	r3, [r7, #40]	@ 0x28
  ADC_REG_InitStruct.SequencerLength = LL_ADC_REG_SEQ_SCAN_DISABLE;
 8000d2a:	2300      	movs	r3, #0
 8000d2c:	62fb      	str	r3, [r7, #44]	@ 0x2c
  ADC_REG_InitStruct.SequencerDiscont = LL_ADC_REG_SEQ_DISCONT_DISABLE;
 8000d2e:	2300      	movs	r3, #0
 8000d30:	633b      	str	r3, [r7, #48]	@ 0x30
  ADC_REG_InitStruct.ContinuousMode = LL_ADC_REG_CONV_SINGLE;
 8000d32:	2300      	movs	r3, #0
 8000d34:	637b      	str	r3, [r7, #52]	@ 0x34
  ADC_REG_InitStruct.DMATransfer = LL_ADC_REG_DMA_TRANSFER_NONE;
 8000d36:	2300      	movs	r3, #0
 8000d38:	63bb      	str	r3, [r7, #56]	@ 0x38
  ADC_REG_InitStruct.Overrun = LL_ADC_REG_OVR_DATA_PRESERVED;
 8000d3a:	2300      	movs	r3, #0
 8000d3c:	63fb      	str	r3, [r7, #60]	@ 0x3c
  LL_ADC_REG_Init(ADC2, &ADC_REG_InitStruct);
 8000d3e:	f107 0328 	add.w	r3, r7, #40	@ 0x28
 8000d42:	4619      	mov	r1, r3
 8000d44:	4820      	ldr	r0, [pc, #128]	@ (8000dc8 <MX_ADC2_Init+0x130>)
 8000d46:	f005 f995 	bl	8006074 <LL_ADC_REG_Init>
  ADC_CommonInitStruct.CommonClock = LL_ADC_CLOCK_ASYNC_DIV1;
 8000d4a:	2300      	movs	r3, #0
 8000d4c:	61bb      	str	r3, [r7, #24]
  LL_ADC_CommonInit(__LL_ADC_COMMON_INSTANCE(ADC2), &ADC_CommonInitStruct);
 8000d4e:	f107 0318 	add.w	r3, r7, #24
 8000d52:	4619      	mov	r1, r3
 8000d54:	481d      	ldr	r0, [pc, #116]	@ (8000dcc <MX_ADC2_Init+0x134>)
 8000d56:	f005 f91f 	bl	8005f98 <LL_ADC_CommonInit>
  LL_ADC_SetCommonPathInternalCh(__LL_ADC_COMMON_INSTANCE(ADC2), LL_ADC_PATH_INTERNAL_NONE);
 8000d5a:	2100      	movs	r1, #0
 8000d5c:	481b      	ldr	r0, [pc, #108]	@ (8000dcc <MX_ADC2_Init+0x134>)
 8000d5e:	f7ff fe01 	bl	8000964 <LL_ADC_SetCommonPathInternalCh>

  /* Disable ADC deep power down (enabled by default after reset state) */
  LL_ADC_DisableDeepPowerDown(ADC2);
 8000d62:	4819      	ldr	r0, [pc, #100]	@ (8000dc8 <MX_ADC2_Init+0x130>)
 8000d64:	f7ff fe8c 	bl	8000a80 <LL_ADC_DisableDeepPowerDown>
  /* Enable ADC internal voltage regulator */
  LL_ADC_EnableInternalRegulator(ADC2);
 8000d68:	4817      	ldr	r0, [pc, #92]	@ (8000dc8 <MX_ADC2_Init+0x130>)
 8000d6a:	f7ff fe9b 	bl	8000aa4 <LL_ADC_EnableInternalRegulator>
  /* Note: Variable divided by 2 to compensate partially */
  /* CPU processing cycles (depends on compilation optimization). */
  /* Note: If system core clock frequency is below 200kHz, wait time */
  /* is only a few CPU processing cycles. */
  uint32_t wait_loop_index;
  wait_loop_index = ((LL_ADC_DELAY_INTERNAL_REGUL_STAB_US * (SystemCoreClock / (100000 * 2))) / 10);
 8000d6e:	4b18      	ldr	r3, [pc, #96]	@ (8000dd0 <MX_ADC2_Init+0x138>)
 8000d70:	681b      	ldr	r3, [r3, #0]
 8000d72:	099b      	lsrs	r3, r3, #6
 8000d74:	4a17      	ldr	r2, [pc, #92]	@ (8000dd4 <MX_ADC2_Init+0x13c>)
 8000d76:	fba2 2303 	umull	r2, r3, r2, r3
 8000d7a:	099a      	lsrs	r2, r3, #6
 8000d7c:	4613      	mov	r3, r2
 8000d7e:	009b      	lsls	r3, r3, #2
 8000d80:	4413      	add	r3, r2
 8000d82:	009b      	lsls	r3, r3, #2
 8000d84:	461a      	mov	r2, r3
 8000d86:	4b14      	ldr	r3, [pc, #80]	@ (8000dd8 <MX_ADC2_Init+0x140>)
 8000d88:	fba3 2302 	umull	r2, r3, r3, r2
 8000d8c:	08db      	lsrs	r3, r3, #3
 8000d8e:	64fb      	str	r3, [r7, #76]	@ 0x4c
  while(wait_loop_index != 0)
 8000d90:	e002      	b.n	8000d98 <MX_ADC2_Init+0x100>
  {
    wait_loop_index--;
 8000d92:	6cfb      	ldr	r3, [r7, #76]	@ 0x4c
 8000d94:	3b01      	subs	r3, #1
 8000d96:	64fb      	str	r3, [r7, #76]	@ 0x4c
  while(wait_loop_index != 0)
 8000d98:	6cfb      	ldr	r3, [r7, #76]	@ 0x4c
 8000d9a:	2b00      	cmp	r3, #0
 8000d9c:	d1f9      	bne.n	8000d92 <MX_ADC2_Init+0xfa>
  }

  /** Configure Regular Channel
  */
  LL_ADC_REG_SetSequencerRanks(ADC2, LL_ADC_REG_RANK_1, LL_ADC_CHANNEL_4);
 8000d9e:	4a0f      	ldr	r2, [pc, #60]	@ (8000ddc <MX_ADC2_Init+0x144>)
 8000da0:	2106      	movs	r1, #6
 8000da2:	4809      	ldr	r0, [pc, #36]	@ (8000dc8 <MX_ADC2_Init+0x130>)
 8000da4:	f7ff fdf1 	bl	800098a <LL_ADC_REG_SetSequencerRanks>
  LL_ADC_SetChannelSamplingTime(ADC2, LL_ADC_CHANNEL_4, LL_ADC_SAMPLINGTIME_2CYCLES_5);
 8000da8:	2200      	movs	r2, #0
 8000daa:	490c      	ldr	r1, [pc, #48]	@ (8000ddc <MX_ADC2_Init+0x144>)
 8000dac:	4806      	ldr	r0, [pc, #24]	@ (8000dc8 <MX_ADC2_Init+0x130>)
 8000dae:	f7ff fe18 	bl	80009e2 <LL_ADC_SetChannelSamplingTime>
  LL_ADC_SetChannelSingleDiff(ADC2, LL_ADC_CHANNEL_4, LL_ADC_SINGLE_ENDED);
 8000db2:	227f      	movs	r2, #127	@ 0x7f
 8000db4:	4909      	ldr	r1, [pc, #36]	@ (8000ddc <MX_ADC2_Init+0x144>)
 8000db6:	4804      	ldr	r0, [pc, #16]	@ (8000dc8 <MX_ADC2_Init+0x130>)
 8000db8:	f7ff fe3e 	bl	8000a38 <LL_ADC_SetChannelSingleDiff>
  /* USER CODE BEGIN ADC2_Init 2 */

  /* USER CODE END ADC2_Init 2 */

}
 8000dbc:	bf00      	nop
 8000dbe:	3750      	adds	r7, #80	@ 0x50
 8000dc0:	46bd      	mov	sp, r7
 8000dc2:	bd80      	pop	{r7, pc}
 8000dc4:	48000800 	.word	0x48000800
 8000dc8:	50040100 	.word	0x50040100
 8000dcc:	50040300 	.word	0x50040300
 8000dd0:	2000000c 	.word	0x2000000c
 8000dd4:	053e2d63 	.word	0x053e2d63
 8000dd8:	cccccccd 	.word	0xcccccccd
 8000ddc:	10c00010 	.word	0x10c00010

08000de0 <LL_AHB2_GRP1_EnableClock>:
{
 8000de0:	b480      	push	{r7}
 8000de2:	b085      	sub	sp, #20
 8000de4:	af00      	add	r7, sp, #0
 8000de6:	6078      	str	r0, [r7, #4]
  SET_BIT(RCC->AHB2ENR, Periphs);
 8000de8:	4b08      	ldr	r3, [pc, #32]	@ (8000e0c <LL_AHB2_GRP1_EnableClock+0x2c>)
 8000dea:	6cda      	ldr	r2, [r3, #76]	@ 0x4c
 8000dec:	4907      	ldr	r1, [pc, #28]	@ (8000e0c <LL_AHB2_GRP1_EnableClock+0x2c>)
 8000dee:	687b      	ldr	r3, [r7, #4]
 8000df0:	4313      	orrs	r3, r2
 8000df2:	64cb      	str	r3, [r1, #76]	@ 0x4c
  tmpreg = READ_BIT(RCC->AHB2ENR, Periphs);
 8000df4:	4b05      	ldr	r3, [pc, #20]	@ (8000e0c <LL_AHB2_GRP1_EnableClock+0x2c>)
 8000df6:	6cda      	ldr	r2, [r3, #76]	@ 0x4c
 8000df8:	687b      	ldr	r3, [r7, #4]
 8000dfa:	4013      	ands	r3, r2
 8000dfc:	60fb      	str	r3, [r7, #12]
  (void)tmpreg;
 8000dfe:	68fb      	ldr	r3, [r7, #12]
}
 8000e00:	bf00      	nop
 8000e02:	3714      	adds	r7, #20
 8000e04:	46bd      	mov	sp, r7
 8000e06:	f85d 7b04 	ldr.w	r7, [sp], #4
 8000e0a:	4770      	bx	lr
 8000e0c:	40021000 	.word	0x40021000

08000e10 <LL_SYSCFG_SetEXTISource>:
  *         @arg @ref LL_SYSCFG_EXTI_LINE14
  *         @arg @ref LL_SYSCFG_EXTI_LINE15
  * @retval None
  */
__STATIC_INLINE void LL_SYSCFG_SetEXTISource(uint32_t Port, uint32_t Line)
{
 8000e10:	b480      	push	{r7}
 8000e12:	b087      	sub	sp, #28
 8000e14:	af00      	add	r7, sp, #0
 8000e16:	6078      	str	r0, [r7, #4]
 8000e18:	6039      	str	r1, [r7, #0]
  MODIFY_REG(SYSCFG->EXTICR[Line & 0xFFU], (Line >> 16U), Port << POSITION_VAL((Line >> 16U)));
 8000e1a:	4a17      	ldr	r2, [pc, #92]	@ (8000e78 <LL_SYSCFG_SetEXTISource+0x68>)
 8000e1c:	683b      	ldr	r3, [r7, #0]
 8000e1e:	b2db      	uxtb	r3, r3
 8000e20:	3302      	adds	r3, #2
 8000e22:	f852 2023 	ldr.w	r2, [r2, r3, lsl #2]
 8000e26:	683b      	ldr	r3, [r7, #0]
 8000e28:	0c1b      	lsrs	r3, r3, #16
 8000e2a:	43db      	mvns	r3, r3
 8000e2c:	ea02 0103 	and.w	r1, r2, r3
 8000e30:	683b      	ldr	r3, [r7, #0]
 8000e32:	0c1b      	lsrs	r3, r3, #16
 8000e34:	613b      	str	r3, [r7, #16]
  uint32_t result;

#if ((defined (__ARM_ARCH_7M__      ) && (__ARM_ARCH_7M__      == 1)) || \
     (defined (__ARM_ARCH_7EM__     ) && (__ARM_ARCH_7EM__     == 1)) || \
     (defined (__ARM_ARCH_8M_MAIN__ ) && (__ARM_ARCH_8M_MAIN__ == 1))    )
   __ASM volatile ("rbit %0, %1" : "=r" (result) : "r" (value) );
 8000e36:	693b      	ldr	r3, [r7, #16]
 8000e38:	fa93 f3a3 	rbit	r3, r3
 8000e3c:	60fb      	str	r3, [r7, #12]
    result |= value & 1U;
    s--;
  }
  result <<= s;                        /* shift when v's highest bits are zero */
#endif
  return result;
 8000e3e:	68fb      	ldr	r3, [r7, #12]
 8000e40:	617b      	str	r3, [r7, #20]
     optimisations using the logic "value was passed to __builtin_clz, so it
     is non-zero".
     ARM GCC 7.3 and possibly earlier will optimise this test away, leaving a
     single CLZ instruction.
   */
  if (value == 0U)
 8000e42:	697b      	ldr	r3, [r7, #20]
 8000e44:	2b00      	cmp	r3, #0
 8000e46:	d101      	bne.n	8000e4c <LL_SYSCFG_SetEXTISource+0x3c>
  {
    return 32U;
 8000e48:	2320      	movs	r3, #32
 8000e4a:	e003      	b.n	8000e54 <LL_SYSCFG_SetEXTISource+0x44>
  }
  return __builtin_clz(value);
 8000e4c:	697b      	ldr	r3, [r7, #20]
 8000e4e:	fab3 f383 	clz	r3, r3
 8000e52:	b2db      	uxtb	r3, r3
 8000e54:	461a      	mov	r2, r3
 8000e56:	687b      	ldr	r3, [r7, #4]
 8000e58:	fa03 f202 	lsl.w	r2, r3, r2
 8000e5c:	4806      	ldr	r0, [pc, #24]	@ (8000e78 <LL_SYSCFG_SetEXTISource+0x68>)
 8000e5e:	683b      	ldr	r3, [r7, #0]
 8000e60:	b2db      	uxtb	r3, r3
 8000e62:	430a      	orrs	r2, r1
 8000e64:	3302      	adds	r3, #2
 8000e66:	f840 2023 	str.w	r2, [r0, r3, lsl #2]
}
 8000e6a:	bf00      	nop
 8000e6c:	371c      	adds	r7, #28
 8000e6e:	46bd      	mov	sp, r7
 8000e70:	f85d 7b04 	ldr.w	r7, [sp], #4
 8000e74:	4770      	bx	lr
 8000e76:	bf00      	nop
 8000e78:	40010000 	.word	0x40010000

08000e7c <LL_GPIO_SetPinMode>:
{
 8000e7c:	b480      	push	{r7}
 8000e7e:	b08b      	sub	sp, #44	@ 0x2c
 8000e80:	af00      	add	r7, sp, #0
 8000e82:	60f8      	str	r0, [r7, #12]
 8000e84:	60b9      	str	r1, [r7, #8]
 8000e86:	607a      	str	r2, [r7, #4]
  MODIFY_REG(GPIOx->MODER, (GPIO_MODER_MODE0 << (POSITION_VAL(Pin) * 2U)), (Mode << (POSITION_VAL(Pin) * 2U)));
 8000e88:	68fb      	ldr	r3, [r7, #12]
 8000e8a:	681a      	ldr	r2, [r3, #0]
 8000e8c:	68bb      	ldr	r3, [r7, #8]
 8000e8e:	617b      	str	r3, [r7, #20]
   __ASM volatile ("rbit %0, %1" : "=r" (result) : "r" (value) );
 8000e90:	697b      	ldr	r3, [r7, #20]
 8000e92:	fa93 f3a3 	rbit	r3, r3
 8000e96:	613b      	str	r3, [r7, #16]
  return result;
 8000e98:	693b      	ldr	r3, [r7, #16]
 8000e9a:	61bb      	str	r3, [r7, #24]
  if (value == 0U)
 8000e9c:	69bb      	ldr	r3, [r7, #24]
 8000e9e:	2b00      	cmp	r3, #0
 8000ea0:	d101      	bne.n	8000ea6 <LL_GPIO_SetPinMode+0x2a>
    return 32U;
 8000ea2:	2320      	movs	r3, #32
 8000ea4:	e003      	b.n	8000eae <LL_GPIO_SetPinMode+0x32>
  return __builtin_clz(value);
 8000ea6:	69bb      	ldr	r3, [r7, #24]
 8000ea8:	fab3 f383 	clz	r3, r3
 8000eac:	b2db      	uxtb	r3, r3
 8000eae:	005b      	lsls	r3, r3, #1
 8000eb0:	2103      	movs	r1, #3
 8000eb2:	fa01 f303 	lsl.w	r3, r1, r3
 8000eb6:	43db      	mvns	r3, r3
 8000eb8:	401a      	ands	r2, r3
 8000eba:	68bb      	ldr	r3, [r7, #8]
 8000ebc:	623b      	str	r3, [r7, #32]
   __ASM volatile ("rbit %0, %1" : "=r" (result) : "r" (value) );
 8000ebe:	6a3b      	ldr	r3, [r7, #32]
 8000ec0:	fa93 f3a3 	rbit	r3, r3
 8000ec4:	61fb      	str	r3, [r7, #28]
  return result;
 8000ec6:	69fb      	ldr	r3, [r7, #28]
 8000ec8:	627b      	str	r3, [r7, #36]	@ 0x24
  if (value == 0U)
 8000eca:	6a7b      	ldr	r3, [r7, #36]	@ 0x24
 8000ecc:	2b00      	cmp	r3, #0
 8000ece:	d101      	bne.n	8000ed4 <LL_GPIO_SetPinMode+0x58>
    return 32U;
 8000ed0:	2320      	movs	r3, #32
 8000ed2:	e003      	b.n	8000edc <LL_GPIO_SetPinMode+0x60>
  return __builtin_clz(value);
 8000ed4:	6a7b      	ldr	r3, [r7, #36]	@ 0x24
 8000ed6:	fab3 f383 	clz	r3, r3
 8000eda:	b2db      	uxtb	r3, r3
 8000edc:	005b      	lsls	r3, r3, #1
 8000ede:	6879      	ldr	r1, [r7, #4]
 8000ee0:	fa01 f303 	lsl.w	r3, r1, r3
 8000ee4:	431a      	orrs	r2, r3
 8000ee6:	68fb      	ldr	r3, [r7, #12]
 8000ee8:	601a      	str	r2, [r3, #0]
}
 8000eea:	bf00      	nop
 8000eec:	372c      	adds	r7, #44	@ 0x2c
 8000eee:	46bd      	mov	sp, r7
 8000ef0:	f85d 7b04 	ldr.w	r7, [sp], #4
 8000ef4:	4770      	bx	lr

08000ef6 <LL_GPIO_SetPinPull>:
{
 8000ef6:	b480      	push	{r7}
 8000ef8:	b08b      	sub	sp, #44	@ 0x2c
 8000efa:	af00      	add	r7, sp, #0
 8000efc:	60f8      	str	r0, [r7, #12]
 8000efe:	60b9      	str	r1, [r7, #8]
 8000f00:	607a      	str	r2, [r7, #4]
  MODIFY_REG(GPIOx->PUPDR, (GPIO_PUPDR_PUPD0 << (POSITION_VAL(Pin) * 2U)), (Pull << (POSITION_VAL(Pin) * 2U)));
 8000f02:	68fb      	ldr	r3, [r7, #12]
 8000f04:	68da      	ldr	r2, [r3, #12]
 8000f06:	68bb      	ldr	r3, [r7, #8]
 8000f08:	617b      	str	r3, [r7, #20]
   __ASM volatile ("rbit %0, %1" : "=r" (result) : "r" (value) );
 8000f0a:	697b      	ldr	r3, [r7, #20]
 8000f0c:	fa93 f3a3 	rbit	r3, r3
 8000f10:	613b      	str	r3, [r7, #16]
  return result;
 8000f12:	693b      	ldr	r3, [r7, #16]
 8000f14:	61bb      	str	r3, [r7, #24]
  if (value == 0U)
 8000f16:	69bb      	ldr	r3, [r7, #24]
 8000f18:	2b00      	cmp	r3, #0
 8000f1a:	d101      	bne.n	8000f20 <LL_GPIO_SetPinPull+0x2a>
    return 32U;
 8000f1c:	2320      	movs	r3, #32
 8000f1e:	e003      	b.n	8000f28 <LL_GPIO_SetPinPull+0x32>
  return __builtin_clz(value);
 8000f20:	69bb      	ldr	r3, [r7, #24]
 8000f22:	fab3 f383 	clz	r3, r3
 8000f26:	b2db      	uxtb	r3, r3
 8000f28:	005b      	lsls	r3, r3, #1
 8000f2a:	2103      	movs	r1, #3
 8000f2c:	fa01 f303 	lsl.w	r3, r1, r3
 8000f30:	43db      	mvns	r3, r3
 8000f32:	401a      	ands	r2, r3
 8000f34:	68bb      	ldr	r3, [r7, #8]
 8000f36:	623b      	str	r3, [r7, #32]
   __ASM volatile ("rbit %0, %1" : "=r" (result) : "r" (value) );
 8000f38:	6a3b      	ldr	r3, [r7, #32]
 8000f3a:	fa93 f3a3 	rbit	r3, r3
 8000f3e:	61fb      	str	r3, [r7, #28]
  return result;
 8000f40:	69fb      	ldr	r3, [r7, #28]
 8000f42:	627b      	str	r3, [r7, #36]	@ 0x24
  if (value == 0U)
 8000f44:	6a7b      	ldr	r3, [r7, #36]	@ 0x24
 8000f46:	2b00      	cmp	r3, #0
 8000f48:	d101      	bne.n	8000f4e <LL_GPIO_SetPinPull+0x58>
    return 32U;
 8000f4a:	2320      	movs	r3, #32
 8000f4c:	e003      	b.n	8000f56 <LL_GPIO_SetPinPull+0x60>
  return __builtin_clz(value);
 8000f4e:	6a7b      	ldr	r3, [r7, #36]	@ 0x24
 8000f50:	fab3 f383 	clz	r3, r3
 8000f54:	b2db      	uxtb	r3, r3
 8000f56:	005b      	lsls	r3, r3, #1
 8000f58:	6879      	ldr	r1, [r7, #4]
 8000f5a:	fa01 f303 	lsl.w	r3, r1, r3
 8000f5e:	431a      	orrs	r2, r3
 8000f60:	68fb      	ldr	r3, [r7, #12]
 8000f62:	60da      	str	r2, [r3, #12]
}
 8000f64:	bf00      	nop
 8000f66:	372c      	adds	r7, #44	@ 0x2c
 8000f68:	46bd      	mov	sp, r7
 8000f6a:	f85d 7b04 	ldr.w	r7, [sp], #4
 8000f6e:	4770      	bx	lr

08000f70 <LL_GPIO_ResetOutputPin>:
  *         @arg @ref LL_GPIO_PIN_15
  *         @arg @ref LL_GPIO_PIN_ALL
  * @retval None
  */
__STATIC_INLINE void LL_GPIO_ResetOutputPin(GPIO_TypeDef *GPIOx, uint32_t PinMask)
{
 8000f70:	b480      	push	{r7}
 8000f72:	b083      	sub	sp, #12
 8000f74:	af00      	add	r7, sp, #0
 8000f76:	6078      	str	r0, [r7, #4]
 8000f78:	6039      	str	r1, [r7, #0]
  WRITE_REG(GPIOx->BRR, PinMask);
 8000f7a:	687b      	ldr	r3, [r7, #4]
 8000f7c:	683a      	ldr	r2, [r7, #0]
 8000f7e:	629a      	str	r2, [r3, #40]	@ 0x28
}
 8000f80:	bf00      	nop
 8000f82:	370c      	adds	r7, #12
 8000f84:	46bd      	mov	sp, r7
 8000f86:	f85d 7b04 	ldr.w	r7, [sp], #4
 8000f8a:	4770      	bx	lr

08000f8c <MX_GPIO_Init>:
        * Output
        * EVENT_OUT
        * EXTI
*/
void MX_GPIO_Init(void)
{
 8000f8c:	b580      	push	{r7, lr}
 8000f8e:	b08a      	sub	sp, #40	@ 0x28
 8000f90:	af00      	add	r7, sp, #0

  LL_EXTI_InitTypeDef EXTI_InitStruct = {0};
 8000f92:	f107 031c 	add.w	r3, r7, #28
 8000f96:	2200      	movs	r2, #0
 8000f98:	601a      	str	r2, [r3, #0]
 8000f9a:	605a      	str	r2, [r3, #4]
 8000f9c:	609a      	str	r2, [r3, #8]
  LL_GPIO_InitTypeDef GPIO_InitStruct = {0};
 8000f9e:	1d3b      	adds	r3, r7, #4
 8000fa0:	2200      	movs	r2, #0
 8000fa2:	601a      	str	r2, [r3, #0]
 8000fa4:	605a      	str	r2, [r3, #4]
 8000fa6:	609a      	str	r2, [r3, #8]
 8000fa8:	60da      	str	r2, [r3, #12]
 8000faa:	611a      	str	r2, [r3, #16]
 8000fac:	615a      	str	r2, [r3, #20]

  /* GPIO Ports Clock Enable */
  LL_AHB2_GRP1_EnableClock(LL_AHB2_GRP1_PERIPH_GPIOC);
 8000fae:	2004      	movs	r0, #4
 8000fb0:	f7ff ff16 	bl	8000de0 <LL_AHB2_GRP1_EnableClock>
  LL_AHB2_GRP1_EnableClock(LL_AHB2_GRP1_PERIPH_GPIOH);
 8000fb4:	2080      	movs	r0, #128	@ 0x80
 8000fb6:	f7ff ff13 	bl	8000de0 <LL_AHB2_GRP1_EnableClock>
  LL_AHB2_GRP1_EnableClock(LL_AHB2_GRP1_PERIPH_GPIOA);
 8000fba:	2001      	movs	r0, #1
 8000fbc:	f7ff ff10 	bl	8000de0 <LL_AHB2_GRP1_EnableClock>
  LL_AHB2_GRP1_EnableClock(LL_AHB2_GRP1_PERIPH_GPIOB);
 8000fc0:	2002      	movs	r0, #2
 8000fc2:	f7ff ff0d 	bl	8000de0 <LL_AHB2_GRP1_EnableClock>

  /**/
  LL_GPIO_ResetOutputPin(GPIOB, OSCOPE_Pin|SPI2_CS_Pin|ENC_CLK_Pin);
 8000fc6:	f44f 51c4 	mov.w	r1, #6272	@ 0x1880
 8000fca:	483f      	ldr	r0, [pc, #252]	@ (80010c8 <MX_GPIO_Init+0x13c>)
 8000fcc:	f7ff ffd0 	bl	8000f70 <LL_GPIO_ResetOutputPin>

  /**/
  LL_GPIO_ResetOutputPin(ENC_CSn_GPIO_Port, ENC_CSn_Pin);
 8000fd0:	2140      	movs	r1, #64	@ 0x40
 8000fd2:	483e      	ldr	r0, [pc, #248]	@ (80010cc <MX_GPIO_Init+0x140>)
 8000fd4:	f7ff ffcc 	bl	8000f70 <LL_GPIO_ResetOutputPin>

  /**/
  LL_GPIO_ResetOutputPin(IMU_CS_GPIO_Port, IMU_CS_Pin);
 8000fd8:	f44f 7180 	mov.w	r1, #256	@ 0x100
 8000fdc:	f04f 4090 	mov.w	r0, #1207959552	@ 0x48000000
 8000fe0:	f7ff ffc6 	bl	8000f70 <LL_GPIO_ResetOutputPin>

  /**/
  LL_SYSCFG_SetEXTISource(LL_SYSCFG_EXTI_PORTC, LL_SYSCFG_EXTI_LINE13);
 8000fe4:	493a      	ldr	r1, [pc, #232]	@ (80010d0 <MX_GPIO_Init+0x144>)
 8000fe6:	2002      	movs	r0, #2
 8000fe8:	f7ff ff12 	bl	8000e10 <LL_SYSCFG_SetEXTISource>

  /**/
  EXTI_InitStruct.Line_0_31 = LL_EXTI_LINE_13;
 8000fec:	f44f 5300 	mov.w	r3, #8192	@ 0x2000
 8000ff0:	61fb      	str	r3, [r7, #28]
  EXTI_InitStruct.Line_32_63 = LL_EXTI_LINE_NONE;
 8000ff2:	2300      	movs	r3, #0
 8000ff4:	623b      	str	r3, [r7, #32]
  EXTI_InitStruct.LineCommand = ENABLE;
 8000ff6:	2301      	movs	r3, #1
 8000ff8:	f887 3024 	strb.w	r3, [r7, #36]	@ 0x24
  EXTI_InitStruct.Mode = LL_EXTI_MODE_IT;
 8000ffc:	2300      	movs	r3, #0
 8000ffe:	f887 3025 	strb.w	r3, [r7, #37]	@ 0x25
  EXTI_InitStruct.Trigger = LL_EXTI_TRIGGER_FALLING;
 8001002:	2302      	movs	r3, #2
 8001004:	f887 3026 	strb.w	r3, [r7, #38]	@ 0x26
  LL_EXTI_Init(&EXTI_InitStruct);
 8001008:	f107 031c 	add.w	r3, r7, #28
 800100c:	4618      	mov	r0, r3
 800100e:	f005 f9ab 	bl	8006368 <LL_EXTI_Init>

  /**/
  LL_GPIO_SetPinPull(B1_GPIO_Port, B1_Pin, LL_GPIO_PULL_NO);
 8001012:	2200      	movs	r2, #0
 8001014:	f44f 5100 	mov.w	r1, #8192	@ 0x2000
 8001018:	482c      	ldr	r0, [pc, #176]	@ (80010cc <MX_GPIO_Init+0x140>)
 800101a:	f7ff ff6c 	bl	8000ef6 <LL_GPIO_SetPinPull>

  /**/
  LL_GPIO_SetPinMode(B1_GPIO_Port, B1_Pin, LL_GPIO_MODE_INPUT);
 800101e:	2200      	movs	r2, #0
 8001020:	f44f 5100 	mov.w	r1, #8192	@ 0x2000
 8001024:	4829      	ldr	r0, [pc, #164]	@ (80010cc <MX_GPIO_Init+0x140>)
 8001026:	f7ff ff29 	bl	8000e7c <LL_GPIO_SetPinMode>

  /**/
  GPIO_InitStruct.Pin = OSCOPE_Pin|ENC_CLK_Pin;
 800102a:	f44f 6308 	mov.w	r3, #2176	@ 0x880
 800102e:	607b      	str	r3, [r7, #4]
  GPIO_InitStruct.Mode = LL_GPIO_MODE_OUTPUT;
 8001030:	2301      	movs	r3, #1
 8001032:	60bb      	str	r3, [r7, #8]
  GPIO_InitStruct.Speed = LL_GPIO_SPEED_FREQ_LOW;
 8001034:	2300      	movs	r3, #0
 8001036:	60fb      	str	r3, [r7, #12]
  GPIO_InitStruct.OutputType = LL_GPIO_OUTPUT_PUSHPULL;
 8001038:	2300      	movs	r3, #0
 800103a:	613b      	str	r3, [r7, #16]
  GPIO_InitStruct.Pull = LL_GPIO_PULL_NO;
 800103c:	2300      	movs	r3, #0
 800103e:	617b      	str	r3, [r7, #20]
  LL_GPIO_Init(GPIOB, &GPIO_InitStruct);
 8001040:	1d3b      	adds	r3, r7, #4
 8001042:	4619      	mov	r1, r3
 8001044:	4820      	ldr	r0, [pc, #128]	@ (80010c8 <MX_GPIO_Init+0x13c>)
 8001046:	f005 fbce 	bl	80067e6 <LL_GPIO_Init>

  /**/
  GPIO_InitStruct.Pin = SPI2_CS_Pin;
 800104a:	f44f 5380 	mov.w	r3, #4096	@ 0x1000
 800104e:	607b      	str	r3, [r7, #4]
  GPIO_InitStruct.Mode = LL_GPIO_MODE_OUTPUT;
 8001050:	2301      	movs	r3, #1
 8001052:	60bb      	str	r3, [r7, #8]
  GPIO_InitStruct.Speed = LL_GPIO_SPEED_FREQ_VERY_HIGH;
 8001054:	2303      	movs	r3, #3
 8001056:	60fb      	str	r3, [r7, #12]
  GPIO_InitStruct.OutputType = LL_GPIO_OUTPUT_PUSHPULL;
 8001058:	2300      	movs	r3, #0
 800105a:	613b      	str	r3, [r7, #16]
  GPIO_InitStruct.Pull = LL_GPIO_PULL_NO;
 800105c:	2300      	movs	r3, #0
 800105e:	617b      	str	r3, [r7, #20]
  LL_GPIO_Init(SPI2_CS_GPIO_Port, &GPIO_InitStruct);
 8001060:	1d3b      	adds	r3, r7, #4
 8001062:	4619      	mov	r1, r3
 8001064:	4818      	ldr	r0, [pc, #96]	@ (80010c8 <MX_GPIO_Init+0x13c>)
 8001066:	f005 fbbe 	bl	80067e6 <LL_GPIO_Init>

  /**/
  GPIO_InitStruct.Pin = ENC_CSn_Pin;
 800106a:	2340      	movs	r3, #64	@ 0x40
 800106c:	607b      	str	r3, [r7, #4]
  GPIO_InitStruct.Mode = LL_GPIO_MODE_OUTPUT;
 800106e:	2301      	movs	r3, #1
 8001070:	60bb      	str	r3, [r7, #8]
  GPIO_InitStruct.Speed = LL_GPIO_SPEED_FREQ_LOW;
 8001072:	2300      	movs	r3, #0
 8001074:	60fb      	str	r3, [r7, #12]
  GPIO_InitStruct.OutputType = LL_GPIO_OUTPUT_PUSHPULL;
 8001076:	2300      	movs	r3, #0
 8001078:	613b      	str	r3, [r7, #16]
  GPIO_InitStruct.Pull = LL_GPIO_PULL_NO;
 800107a:	2300      	movs	r3, #0
 800107c:	617b      	str	r3, [r7, #20]
  LL_GPIO_Init(ENC_CSn_GPIO_Port, &GPIO_InitStruct);
 800107e:	1d3b      	adds	r3, r7, #4
 8001080:	4619      	mov	r1, r3
 8001082:	4812      	ldr	r0, [pc, #72]	@ (80010cc <MX_GPIO_Init+0x140>)
 8001084:	f005 fbaf 	bl	80067e6 <LL_GPIO_Init>

  /**/
  GPIO_InitStruct.Pin = ENC_DO_Pin;
 8001088:	2380      	movs	r3, #128	@ 0x80
 800108a:	607b      	str	r3, [r7, #4]
  GPIO_InitStruct.Mode = LL_GPIO_MODE_INPUT;
 800108c:	2300      	movs	r3, #0
 800108e:	60bb      	str	r3, [r7, #8]
  GPIO_InitStruct.Pull = LL_GPIO_PULL_NO;
 8001090:	2300      	movs	r3, #0
 8001092:	617b      	str	r3, [r7, #20]
  LL_GPIO_Init(ENC_DO_GPIO_Port, &GPIO_InitStruct);
 8001094:	1d3b      	adds	r3, r7, #4
 8001096:	4619      	mov	r1, r3
 8001098:	480c      	ldr	r0, [pc, #48]	@ (80010cc <MX_GPIO_Init+0x140>)
 800109a:	f005 fba4 	bl	80067e6 <LL_GPIO_Init>

  /**/
  GPIO_InitStruct.Pin = IMU_CS_Pin;
 800109e:	f44f 7380 	mov.w	r3, #256	@ 0x100
 80010a2:	607b      	str	r3, [r7, #4]
  GPIO_InitStruct.Mode = LL_GPIO_MODE_OUTPUT;
 80010a4:	2301      	movs	r3, #1
 80010a6:	60bb      	str	r3, [r7, #8]
  GPIO_InitStruct.Speed = LL_GPIO_SPEED_FREQ_LOW;
 80010a8:	2300      	movs	r3, #0
 80010aa:	60fb      	str	r3, [r7, #12]
  GPIO_InitStruct.OutputType = LL_GPIO_OUTPUT_PUSHPULL;
 80010ac:	2300      	movs	r3, #0
 80010ae:	613b      	str	r3, [r7, #16]
  GPIO_InitStruct.Pull = LL_GPIO_PULL_NO;
 80010b0:	2300      	movs	r3, #0
 80010b2:	617b      	str	r3, [r7, #20]
  LL_GPIO_Init(IMU_CS_GPIO_Port, &GPIO_InitStruct);
 80010b4:	1d3b      	adds	r3, r7, #4
 80010b6:	4619      	mov	r1, r3
 80010b8:	f04f 4090 	mov.w	r0, #1207959552	@ 0x48000000
 80010bc:	f005 fb93 	bl	80067e6 <LL_GPIO_Init>

}
 80010c0:	bf00      	nop
 80010c2:	3728      	adds	r7, #40	@ 0x28
 80010c4:	46bd      	mov	sp, r7
 80010c6:	bd80      	pop	{r7, pc}
 80010c8:	48000400 	.word	0x48000400
 80010cc:	48000800 	.word	0x48000800
 80010d0:	00f00003 	.word	0x00f00003

080010d4 <__NVIC_GetPriorityGrouping>:
  \brief   Get Priority Grouping
  \details Reads the priority grouping field from the NVIC Interrupt Controller.
  \return                Priority grouping field (SCB->AIRCR [10:8] PRIGROUP field).
 */
__STATIC_INLINE uint32_t __NVIC_GetPriorityGrouping(void)
{
 80010d4:	b480      	push	{r7}
 80010d6:	af00      	add	r7, sp, #0
  return ((uint32_t)((SCB->AIRCR & SCB_AIRCR_PRIGROUP_Msk) >> SCB_AIRCR_PRIGROUP_Pos));
 80010d8:	4b04      	ldr	r3, [pc, #16]	@ (80010ec <__NVIC_GetPriorityGrouping+0x18>)
 80010da:	68db      	ldr	r3, [r3, #12]
 80010dc:	0a1b      	lsrs	r3, r3, #8
 80010de:	f003 0307 	and.w	r3, r3, #7
}
 80010e2:	4618      	mov	r0, r3
 80010e4:	46bd      	mov	sp, r7
 80010e6:	f85d 7b04 	ldr.w	r7, [sp], #4
 80010ea:	4770      	bx	lr
 80010ec:	e000ed00 	.word	0xe000ed00

080010f0 <__NVIC_EnableIRQ>:
  \details Enables a device specific interrupt in the NVIC interrupt controller.
  \param [in]      IRQn  Device specific interrupt number.
  \note    IRQn must not be negative.
 */
__STATIC_INLINE void __NVIC_EnableIRQ(IRQn_Type IRQn)
{
 80010f0:	b480      	push	{r7}
 80010f2:	b083      	sub	sp, #12
 80010f4:	af00      	add	r7, sp, #0
 80010f6:	4603      	mov	r3, r0
 80010f8:	71fb      	strb	r3, [r7, #7]
  if ((int32_t)(IRQn) >= 0)
 80010fa:	f997 3007 	ldrsb.w	r3, [r7, #7]
 80010fe:	2b00      	cmp	r3, #0
 8001100:	db0b      	blt.n	800111a <__NVIC_EnableIRQ+0x2a>
  {
    __COMPILER_BARRIER();
    NVIC->ISER[(((uint32_t)IRQn) >> 5UL)] = (uint32_t)(1UL << (((uint32_t)IRQn) & 0x1FUL));
 8001102:	79fb      	ldrb	r3, [r7, #7]
 8001104:	f003 021f 	and.w	r2, r3, #31
 8001108:	4907      	ldr	r1, [pc, #28]	@ (8001128 <__NVIC_EnableIRQ+0x38>)
 800110a:	f997 3007 	ldrsb.w	r3, [r7, #7]
 800110e:	095b      	lsrs	r3, r3, #5
 8001110:	2001      	movs	r0, #1
 8001112:	fa00 f202 	lsl.w	r2, r0, r2
 8001116:	f841 2023 	str.w	r2, [r1, r3, lsl #2]
    __COMPILER_BARRIER();
  }
}
 800111a:	bf00      	nop
 800111c:	370c      	adds	r7, #12
 800111e:	46bd      	mov	sp, r7
 8001120:	f85d 7b04 	ldr.w	r7, [sp], #4
 8001124:	4770      	bx	lr
 8001126:	bf00      	nop
 8001128:	e000e100 	.word	0xe000e100

0800112c <__NVIC_SetPriority>:
  \param [in]      IRQn  Interrupt number.
  \param [in]  priority  Priority to set.
  \note    The priority cannot be set for every processor exception.
 */
__STATIC_INLINE void __NVIC_SetPriority(IRQn_Type IRQn, uint32_t priority)
{
 800112c:	b480      	push	{r7}
 800112e:	b083      	sub	sp, #12
 8001130:	af00      	add	r7, sp, #0
 8001132:	4603      	mov	r3, r0
 8001134:	6039      	str	r1, [r7, #0]
 8001136:	71fb      	strb	r3, [r7, #7]
  if ((int32_t)(IRQn) >= 0)
 8001138:	f997 3007 	ldrsb.w	r3, [r7, #7]
 800113c:	2b00      	cmp	r3, #0
 800113e:	db0a      	blt.n	8001156 <__NVIC_SetPriority+0x2a>
  {
    NVIC->IP[((uint32_t)IRQn)]               = (uint8_t)((priority << (8U - __NVIC_PRIO_BITS)) & (uint32_t)0xFFUL);
 8001140:	683b      	ldr	r3, [r7, #0]
 8001142:	b2da      	uxtb	r2, r3
 8001144:	490c      	ldr	r1, [pc, #48]	@ (8001178 <__NVIC_SetPriority+0x4c>)
 8001146:	f997 3007 	ldrsb.w	r3, [r7, #7]
 800114a:	0112      	lsls	r2, r2, #4
 800114c:	b2d2      	uxtb	r2, r2
 800114e:	440b      	add	r3, r1
 8001150:	f883 2300 	strb.w	r2, [r3, #768]	@ 0x300
  }
  else
  {
    SCB->SHP[(((uint32_t)IRQn) & 0xFUL)-4UL] = (uint8_t)((priority << (8U - __NVIC_PRIO_BITS)) & (uint32_t)0xFFUL);
  }
}
 8001154:	e00a      	b.n	800116c <__NVIC_SetPriority+0x40>
    SCB->SHP[(((uint32_t)IRQn) & 0xFUL)-4UL] = (uint8_t)((priority << (8U - __NVIC_PRIO_BITS)) & (uint32_t)0xFFUL);
 8001156:	683b      	ldr	r3, [r7, #0]
 8001158:	b2da      	uxtb	r2, r3
 800115a:	4908      	ldr	r1, [pc, #32]	@ (800117c <__NVIC_SetPriority+0x50>)
 800115c:	79fb      	ldrb	r3, [r7, #7]
 800115e:	f003 030f 	and.w	r3, r3, #15
 8001162:	3b04      	subs	r3, #4
 8001164:	0112      	lsls	r2, r2, #4
 8001166:	b2d2      	uxtb	r2, r2
 8001168:	440b      	add	r3, r1
 800116a:	761a      	strb	r2, [r3, #24]
}
 800116c:	bf00      	nop
 800116e:	370c      	adds	r7, #12
 8001170:	46bd      	mov	sp, r7
 8001172:	f85d 7b04 	ldr.w	r7, [sp], #4
 8001176:	4770      	bx	lr
 8001178:	e000e100 	.word	0xe000e100
 800117c:	e000ed00 	.word	0xe000ed00

08001180 <NVIC_EncodePriority>:
  \param [in]   PreemptPriority  Preemptive priority value (starting from 0).
  \param [in]       SubPriority  Subpriority value (starting from 0).
  \return                        Encoded priority. Value can be used in the function \ref NVIC_SetPriority().
 */
__STATIC_INLINE uint32_t NVIC_EncodePriority (uint32_t PriorityGroup, uint32_t PreemptPriority, uint32_t SubPriority)
{
 8001180:	b480      	push	{r7}
 8001182:	b089      	sub	sp, #36	@ 0x24
 8001184:	af00      	add	r7, sp, #0
 8001186:	60f8      	str	r0, [r7, #12]
 8001188:	60b9      	str	r1, [r7, #8]
 800118a:	607a      	str	r2, [r7, #4]
  uint32_t PriorityGroupTmp = (PriorityGroup & (uint32_t)0x07UL);   /* only values 0..7 are used          */
 800118c:	68fb      	ldr	r3, [r7, #12]
 800118e:	f003 0307 	and.w	r3, r3, #7
 8001192:	61fb      	str	r3, [r7, #28]
  uint32_t PreemptPriorityBits;
  uint32_t SubPriorityBits;

  PreemptPriorityBits = ((7UL - PriorityGroupTmp) > (uint32_t)(__NVIC_PRIO_BITS)) ? (uint32_t)(__NVIC_PRIO_BITS) : (uint32_t)(7UL - PriorityGroupTmp);
 8001194:	69fb      	ldr	r3, [r7, #28]
 8001196:	f1c3 0307 	rsb	r3, r3, #7
 800119a:	2b04      	cmp	r3, #4
 800119c:	bf28      	it	cs
 800119e:	2304      	movcs	r3, #4
 80011a0:	61bb      	str	r3, [r7, #24]
  SubPriorityBits     = ((PriorityGroupTmp + (uint32_t)(__NVIC_PRIO_BITS)) < (uint32_t)7UL) ? (uint32_t)0UL : (uint32_t)((PriorityGroupTmp - 7UL) + (uint32_t)(__NVIC_PRIO_BITS));
 80011a2:	69fb      	ldr	r3, [r7, #28]
 80011a4:	3304      	adds	r3, #4
 80011a6:	2b06      	cmp	r3, #6
 80011a8:	d902      	bls.n	80011b0 <NVIC_EncodePriority+0x30>
 80011aa:	69fb      	ldr	r3, [r7, #28]
 80011ac:	3b03      	subs	r3, #3
 80011ae:	e000      	b.n	80011b2 <NVIC_EncodePriority+0x32>
 80011b0:	2300      	movs	r3, #0
 80011b2:	617b      	str	r3, [r7, #20]

  return (
           ((PreemptPriority & (uint32_t)((1UL << (PreemptPriorityBits)) - 1UL)) << SubPriorityBits) |
 80011b4:	f04f 32ff 	mov.w	r2, #4294967295
 80011b8:	69bb      	ldr	r3, [r7, #24]
 80011ba:	fa02 f303 	lsl.w	r3, r2, r3
 80011be:	43da      	mvns	r2, r3
 80011c0:	68bb      	ldr	r3, [r7, #8]
 80011c2:	401a      	ands	r2, r3
 80011c4:	697b      	ldr	r3, [r7, #20]
 80011c6:	409a      	lsls	r2, r3
           ((SubPriority     & (uint32_t)((1UL << (SubPriorityBits    )) - 1UL)))
 80011c8:	f04f 31ff 	mov.w	r1, #4294967295
 80011cc:	697b      	ldr	r3, [r7, #20]
 80011ce:	fa01 f303 	lsl.w	r3, r1, r3
 80011d2:	43d9      	mvns	r1, r3
 80011d4:	687b      	ldr	r3, [r7, #4]
 80011d6:	400b      	ands	r3, r1
           ((PreemptPriority & (uint32_t)((1UL << (PreemptPriorityBits)) - 1UL)) << SubPriorityBits) |
 80011d8:	4313      	orrs	r3, r2
         );
}
 80011da:	4618      	mov	r0, r3
 80011dc:	3724      	adds	r7, #36	@ 0x24
 80011de:	46bd      	mov	sp, r7
 80011e0:	f85d 7b04 	ldr.w	r7, [sp], #4
 80011e4:	4770      	bx	lr

080011e6 <LL_LPTIM_SetUpdateMode>:
  *         @arg @ref LL_LPTIM_UPDATE_MODE_IMMEDIATE
  *         @arg @ref LL_LPTIM_UPDATE_MODE_ENDOFPERIOD
  * @retval None
  */
__STATIC_INLINE void LL_LPTIM_SetUpdateMode(LPTIM_TypeDef *LPTIMx, uint32_t UpdateMode)
{
 80011e6:	b480      	push	{r7}
 80011e8:	b083      	sub	sp, #12
 80011ea:	af00      	add	r7, sp, #0
 80011ec:	6078      	str	r0, [r7, #4]
 80011ee:	6039      	str	r1, [r7, #0]
  MODIFY_REG(LPTIMx->CFGR, LPTIM_CFGR_PRELOAD, UpdateMode);
 80011f0:	687b      	ldr	r3, [r7, #4]
 80011f2:	68db      	ldr	r3, [r3, #12]
 80011f4:	f423 0280 	bic.w	r2, r3, #4194304	@ 0x400000
 80011f8:	683b      	ldr	r3, [r7, #0]
 80011fa:	431a      	orrs	r2, r3
 80011fc:	687b      	ldr	r3, [r7, #4]
 80011fe:	60da      	str	r2, [r3, #12]
}
 8001200:	bf00      	nop
 8001202:	370c      	adds	r7, #12
 8001204:	46bd      	mov	sp, r7
 8001206:	f85d 7b04 	ldr.w	r7, [sp], #4
 800120a:	4770      	bx	lr

0800120c <LL_LPTIM_SetCounterMode>:
  *         @arg @ref LL_LPTIM_COUNTER_MODE_INTERNAL
  *         @arg @ref LL_LPTIM_COUNTER_MODE_EXTERNAL
  * @retval None
  */
__STATIC_INLINE void LL_LPTIM_SetCounterMode(LPTIM_TypeDef *LPTIMx, uint32_t CounterMode)
{
 800120c:	b480      	push	{r7}
 800120e:	b083      	sub	sp, #12
 8001210:	af00      	add	r7, sp, #0
 8001212:	6078      	str	r0, [r7, #4]
 8001214:	6039      	str	r1, [r7, #0]
  MODIFY_REG(LPTIMx->CFGR, LPTIM_CFGR_COUNTMODE, CounterMode);
 8001216:	687b      	ldr	r3, [r7, #4]
 8001218:	68db      	ldr	r3, [r3, #12]
 800121a:	f423 0200 	bic.w	r2, r3, #8388608	@ 0x800000
 800121e:	683b      	ldr	r3, [r7, #0]
 8001220:	431a      	orrs	r2, r3
 8001222:	687b      	ldr	r3, [r7, #4]
 8001224:	60da      	str	r2, [r3, #12]
}
 8001226:	bf00      	nop
 8001228:	370c      	adds	r7, #12
 800122a:	46bd      	mov	sp, r7
 800122c:	f85d 7b04 	ldr.w	r7, [sp], #4
 8001230:	4770      	bx	lr

08001232 <LL_LPTIM_SetPolarity>:
  *         @arg @ref LL_LPTIM_OUTPUT_POLARITY_REGULAR
  *         @arg @ref LL_LPTIM_OUTPUT_POLARITY_INVERSE
  * @retval None
  */
__STATIC_INLINE void LL_LPTIM_SetPolarity(LPTIM_TypeDef *LPTIMx, uint32_t Polarity)
{
 8001232:	b480      	push	{r7}
 8001234:	b083      	sub	sp, #12
 8001236:	af00      	add	r7, sp, #0
 8001238:	6078      	str	r0, [r7, #4]
 800123a:	6039      	str	r1, [r7, #0]
  MODIFY_REG(LPTIMx->CFGR, LPTIM_CFGR_WAVPOL, Polarity);
 800123c:	687b      	ldr	r3, [r7, #4]
 800123e:	68db      	ldr	r3, [r3, #12]
 8001240:	f423 1200 	bic.w	r2, r3, #2097152	@ 0x200000
 8001244:	683b      	ldr	r3, [r7, #0]
 8001246:	431a      	orrs	r2, r3
 8001248:	687b      	ldr	r3, [r7, #4]
 800124a:	60da      	str	r2, [r3, #12]
}
 800124c:	bf00      	nop
 800124e:	370c      	adds	r7, #12
 8001250:	46bd      	mov	sp, r7
 8001252:	f85d 7b04 	ldr.w	r7, [sp], #4
 8001256:	4770      	bx	lr

08001258 <LL_LPTIM_SetPrescaler>:
  *         @arg @ref LL_LPTIM_PRESCALER_DIV64
  *         @arg @ref LL_LPTIM_PRESCALER_DIV128
  * @retval None
  */
__STATIC_INLINE void LL_LPTIM_SetPrescaler(LPTIM_TypeDef *LPTIMx, uint32_t Prescaler)
{
 8001258:	b480      	push	{r7}
 800125a:	b083      	sub	sp, #12
 800125c:	af00      	add	r7, sp, #0
 800125e:	6078      	str	r0, [r7, #4]
 8001260:	6039      	str	r1, [r7, #0]
  MODIFY_REG(LPTIMx->CFGR, LPTIM_CFGR_PRESC, Prescaler);
 8001262:	687b      	ldr	r3, [r7, #4]
 8001264:	68db      	ldr	r3, [r3, #12]
 8001266:	f423 6260 	bic.w	r2, r3, #3584	@ 0xe00
 800126a:	683b      	ldr	r3, [r7, #0]
 800126c:	431a      	orrs	r2, r3
 800126e:	687b      	ldr	r3, [r7, #4]
 8001270:	60da      	str	r2, [r3, #12]
}
 8001272:	bf00      	nop
 8001274:	370c      	adds	r7, #12
 8001276:	46bd      	mov	sp, r7
 8001278:	f85d 7b04 	ldr.w	r7, [sp], #4
 800127c:	4770      	bx	lr

0800127e <LL_LPTIM_SetInput1Src>:
  *         @arg @ref LL_LPTIM_INPUT1_SRC_COMP2
  *         @arg @ref LL_LPTIM_INPUT1_SRC_COMP1_COMP2
  * @retval None
  */
__STATIC_INLINE void LL_LPTIM_SetInput1Src(LPTIM_TypeDef *LPTIMx, uint32_t Src)
{
 800127e:	b480      	push	{r7}
 8001280:	b083      	sub	sp, #12
 8001282:	af00      	add	r7, sp, #0
 8001284:	6078      	str	r0, [r7, #4]
 8001286:	6039      	str	r1, [r7, #0]
  MODIFY_REG(LPTIMx->OR, LPTIM_OR_OR, Src);
 8001288:	687b      	ldr	r3, [r7, #4]
 800128a:	6a1b      	ldr	r3, [r3, #32]
 800128c:	f023 0203 	bic.w	r2, r3, #3
 8001290:	683b      	ldr	r3, [r7, #0]
 8001292:	431a      	orrs	r2, r3
 8001294:	687b      	ldr	r3, [r7, #4]
 8001296:	621a      	str	r2, [r3, #32]
}
 8001298:	bf00      	nop
 800129a:	370c      	adds	r7, #12
 800129c:	46bd      	mov	sp, r7
 800129e:	f85d 7b04 	ldr.w	r7, [sp], #4
 80012a2:	4770      	bx	lr

080012a4 <LL_LPTIM_TrigSw>:
  * @rmtoll CFGR         TRIGEN        LL_LPTIM_TrigSw
  * @param  LPTIMx Low-Power Timer instance
  * @retval None
  */
__STATIC_INLINE void LL_LPTIM_TrigSw(LPTIM_TypeDef *LPTIMx)
{
 80012a4:	b480      	push	{r7}
 80012a6:	b083      	sub	sp, #12
 80012a8:	af00      	add	r7, sp, #0
 80012aa:	6078      	str	r0, [r7, #4]
  CLEAR_BIT(LPTIMx->CFGR, LPTIM_CFGR_TRIGEN);
 80012ac:	687b      	ldr	r3, [r7, #4]
 80012ae:	68db      	ldr	r3, [r3, #12]
 80012b0:	f423 22c0 	bic.w	r2, r3, #393216	@ 0x60000
 80012b4:	687b      	ldr	r3, [r7, #4]
 80012b6:	60da      	str	r2, [r3, #12]
}
 80012b8:	bf00      	nop
 80012ba:	370c      	adds	r7, #12
 80012bc:	46bd      	mov	sp, r7
 80012be:	f85d 7b04 	ldr.w	r7, [sp], #4
 80012c2:	4770      	bx	lr

080012c4 <LL_LPTIM_SetClockSource>:
  *         @arg @ref LL_LPTIM_CLK_SOURCE_INTERNAL
  *         @arg @ref LL_LPTIM_CLK_SOURCE_EXTERNAL
  * @retval None
  */
__STATIC_INLINE void LL_LPTIM_SetClockSource(LPTIM_TypeDef *LPTIMx, uint32_t ClockSource)
{
 80012c4:	b480      	push	{r7}
 80012c6:	b083      	sub	sp, #12
 80012c8:	af00      	add	r7, sp, #0
 80012ca:	6078      	str	r0, [r7, #4]
 80012cc:	6039      	str	r1, [r7, #0]
  MODIFY_REG(LPTIMx->CFGR, LPTIM_CFGR_CKSEL, ClockSource);
 80012ce:	687b      	ldr	r3, [r7, #4]
 80012d0:	68db      	ldr	r3, [r3, #12]
 80012d2:	f023 0201 	bic.w	r2, r3, #1
 80012d6:	683b      	ldr	r3, [r7, #0]
 80012d8:	431a      	orrs	r2, r3
 80012da:	687b      	ldr	r3, [r7, #4]
 80012dc:	60da      	str	r2, [r3, #12]
}
 80012de:	bf00      	nop
 80012e0:	370c      	adds	r7, #12
 80012e2:	46bd      	mov	sp, r7
 80012e4:	f85d 7b04 	ldr.w	r7, [sp], #4
 80012e8:	4770      	bx	lr
	...

080012ec <LL_RCC_SetLPTIMClockSource>:
{
 80012ec:	b480      	push	{r7}
 80012ee:	b083      	sub	sp, #12
 80012f0:	af00      	add	r7, sp, #0
 80012f2:	6078      	str	r0, [r7, #4]
  MODIFY_REG(RCC->CCIPR, (LPTIMxSource & 0xFFFF0000U), (LPTIMxSource << 16U));
 80012f4:	4b09      	ldr	r3, [pc, #36]	@ (800131c <LL_RCC_SetLPTIMClockSource+0x30>)
 80012f6:	f8d3 2088 	ldr.w	r2, [r3, #136]	@ 0x88
 80012fa:	687b      	ldr	r3, [r7, #4]
 80012fc:	0c1b      	lsrs	r3, r3, #16
 80012fe:	041b      	lsls	r3, r3, #16
 8001300:	43db      	mvns	r3, r3
 8001302:	401a      	ands	r2, r3
 8001304:	687b      	ldr	r3, [r7, #4]
 8001306:	041b      	lsls	r3, r3, #16
 8001308:	4904      	ldr	r1, [pc, #16]	@ (800131c <LL_RCC_SetLPTIMClockSource+0x30>)
 800130a:	4313      	orrs	r3, r2
 800130c:	f8c1 3088 	str.w	r3, [r1, #136]	@ 0x88
}
 8001310:	bf00      	nop
 8001312:	370c      	adds	r7, #12
 8001314:	46bd      	mov	sp, r7
 8001316:	f85d 7b04 	ldr.w	r7, [sp], #4
 800131a:	4770      	bx	lr
 800131c:	40021000 	.word	0x40021000

08001320 <LL_APB1_GRP2_EnableClock>:
  *
  *         (*) value not defined in all devices.
  * @retval None
*/
__STATIC_INLINE void LL_APB1_GRP2_EnableClock(uint32_t Periphs)
{
 8001320:	b480      	push	{r7}
 8001322:	b085      	sub	sp, #20
 8001324:	af00      	add	r7, sp, #0
 8001326:	6078      	str	r0, [r7, #4]
  __IO uint32_t tmpreg;
  SET_BIT(RCC->APB1ENR2, Periphs);
 8001328:	4b08      	ldr	r3, [pc, #32]	@ (800134c <LL_APB1_GRP2_EnableClock+0x2c>)
 800132a:	6dda      	ldr	r2, [r3, #92]	@ 0x5c
 800132c:	4907      	ldr	r1, [pc, #28]	@ (800134c <LL_APB1_GRP2_EnableClock+0x2c>)
 800132e:	687b      	ldr	r3, [r7, #4]
 8001330:	4313      	orrs	r3, r2
 8001332:	65cb      	str	r3, [r1, #92]	@ 0x5c
  /* Delay after an RCC peripheral clock enabling */
  tmpreg = READ_BIT(RCC->APB1ENR2, Periphs);
 8001334:	4b05      	ldr	r3, [pc, #20]	@ (800134c <LL_APB1_GRP2_EnableClock+0x2c>)
 8001336:	6dda      	ldr	r2, [r3, #92]	@ 0x5c
 8001338:	687b      	ldr	r3, [r7, #4]
 800133a:	4013      	ands	r3, r2
 800133c:	60fb      	str	r3, [r7, #12]
  (void)tmpreg;
 800133e:	68fb      	ldr	r3, [r7, #12]
}
 8001340:	bf00      	nop
 8001342:	3714      	adds	r7, #20
 8001344:	46bd      	mov	sp, r7
 8001346:	f85d 7b04 	ldr.w	r7, [sp], #4
 800134a:	4770      	bx	lr
 800134c:	40021000 	.word	0x40021000

08001350 <MX_LPTIM2_Init>:

/* USER CODE END 0 */

/* LPTIM2 init function */
void MX_LPTIM2_Init(void)
{
 8001350:	b580      	push	{r7, lr}
 8001352:	af00      	add	r7, sp, #0

  /* USER CODE BEGIN LPTIM2_Init 0 */

  /* USER CODE END LPTIM2_Init 0 */

  LL_RCC_SetLPTIMClockSource(LL_RCC_LPTIM2_CLKSOURCE_LSE);
 8001354:	f04f 1030 	mov.w	r0, #3145776	@ 0x300030
 8001358:	f7ff ffc8 	bl	80012ec <LL_RCC_SetLPTIMClockSource>

  /* Peripheral clock enable */
  LL_APB1_GRP2_EnableClock(LL_APB1_GRP2_PERIPH_LPTIM2);
 800135c:	2020      	movs	r0, #32
 800135e:	f7ff ffdf 	bl	8001320 <LL_APB1_GRP2_EnableClock>

  /* LPTIM2 interrupt Init */
  NVIC_SetPriority(LPTIM2_IRQn, NVIC_EncodePriority(NVIC_GetPriorityGrouping(),0, 0));
 8001362:	f7ff feb7 	bl	80010d4 <__NVIC_GetPriorityGrouping>
 8001366:	4603      	mov	r3, r0
 8001368:	2200      	movs	r2, #0
 800136a:	2100      	movs	r1, #0
 800136c:	4618      	mov	r0, r3
 800136e:	f7ff ff07 	bl	8001180 <NVIC_EncodePriority>
 8001372:	4603      	mov	r3, r0
 8001374:	4619      	mov	r1, r3
 8001376:	2042      	movs	r0, #66	@ 0x42
 8001378:	f7ff fed8 	bl	800112c <__NVIC_SetPriority>
  NVIC_EnableIRQ(LPTIM2_IRQn);
 800137c:	2042      	movs	r0, #66	@ 0x42
 800137e:	f7ff feb7 	bl	80010f0 <__NVIC_EnableIRQ>

  /* USER CODE BEGIN LPTIM2_Init 1 */

  /* USER CODE END LPTIM2_Init 1 */
  LL_LPTIM_SetClockSource(LPTIM2, LL_LPTIM_CLK_SOURCE_INTERNAL);
 8001382:	2100      	movs	r1, #0
 8001384:	480d      	ldr	r0, [pc, #52]	@ (80013bc <MX_LPTIM2_Init+0x6c>)
 8001386:	f7ff ff9d 	bl	80012c4 <LL_LPTIM_SetClockSource>
  LL_LPTIM_SetPrescaler(LPTIM2, LL_LPTIM_PRESCALER_DIV1);
 800138a:	2100      	movs	r1, #0
 800138c:	480b      	ldr	r0, [pc, #44]	@ (80013bc <MX_LPTIM2_Init+0x6c>)
 800138e:	f7ff ff63 	bl	8001258 <LL_LPTIM_SetPrescaler>
  LL_LPTIM_SetPolarity(LPTIM2, LL_LPTIM_OUTPUT_POLARITY_REGULAR);
 8001392:	2100      	movs	r1, #0
 8001394:	4809      	ldr	r0, [pc, #36]	@ (80013bc <MX_LPTIM2_Init+0x6c>)
 8001396:	f7ff ff4c 	bl	8001232 <LL_LPTIM_SetPolarity>
  LL_LPTIM_SetUpdateMode(LPTIM2, LL_LPTIM_UPDATE_MODE_IMMEDIATE);
 800139a:	2100      	movs	r1, #0
 800139c:	4807      	ldr	r0, [pc, #28]	@ (80013bc <MX_LPTIM2_Init+0x6c>)
 800139e:	f7ff ff22 	bl	80011e6 <LL_LPTIM_SetUpdateMode>
  LL_LPTIM_SetCounterMode(LPTIM2, LL_LPTIM_COUNTER_MODE_INTERNAL);
 80013a2:	2100      	movs	r1, #0
 80013a4:	4805      	ldr	r0, [pc, #20]	@ (80013bc <MX_LPTIM2_Init+0x6c>)
 80013a6:	f7ff ff31 	bl	800120c <LL_LPTIM_SetCounterMode>
  LL_LPTIM_TrigSw(LPTIM2);
 80013aa:	4804      	ldr	r0, [pc, #16]	@ (80013bc <MX_LPTIM2_Init+0x6c>)
 80013ac:	f7ff ff7a 	bl	80012a4 <LL_LPTIM_TrigSw>
  LL_LPTIM_SetInput1Src(LPTIM2, LL_LPTIM_INPUT1_SRC_GPIO);
 80013b0:	2100      	movs	r1, #0
 80013b2:	4802      	ldr	r0, [pc, #8]	@ (80013bc <MX_LPTIM2_Init+0x6c>)
 80013b4:	f7ff ff63 	bl	800127e <LL_LPTIM_SetInput1Src>
  /* USER CODE BEGIN LPTIM2_Init 2 */

  /* USER CODE END LPTIM2_Init 2 */

}
 80013b8:	bf00      	nop
 80013ba:	bd80      	pop	{r7, pc}
 80013bc:	40009400 	.word	0x40009400

080013c0 <__NVIC_SetPriorityGrouping>:
{
 80013c0:	b480      	push	{r7}
 80013c2:	b085      	sub	sp, #20
 80013c4:	af00      	add	r7, sp, #0
 80013c6:	6078      	str	r0, [r7, #4]
  uint32_t PriorityGroupTmp = (PriorityGroup & (uint32_t)0x07UL);             /* only values 0..7 are used          */
 80013c8:	687b      	ldr	r3, [r7, #4]
 80013ca:	f003 0307 	and.w	r3, r3, #7
 80013ce:	60fb      	str	r3, [r7, #12]
  reg_value  =  SCB->AIRCR;                                                   /* read old register configuration    */
 80013d0:	4b0c      	ldr	r3, [pc, #48]	@ (8001404 <__NVIC_SetPriorityGrouping+0x44>)
 80013d2:	68db      	ldr	r3, [r3, #12]
 80013d4:	60bb      	str	r3, [r7, #8]
  reg_value &= ~((uint32_t)(SCB_AIRCR_VECTKEY_Msk | SCB_AIRCR_PRIGROUP_Msk)); /* clear bits to change               */
 80013d6:	68ba      	ldr	r2, [r7, #8]
 80013d8:	f64f 03ff 	movw	r3, #63743	@ 0xf8ff
 80013dc:	4013      	ands	r3, r2
 80013de:	60bb      	str	r3, [r7, #8]
                (PriorityGroupTmp << SCB_AIRCR_PRIGROUP_Pos)  );              /* Insert write key and priority group */
 80013e0:	68fb      	ldr	r3, [r7, #12]
 80013e2:	021a      	lsls	r2, r3, #8
                ((uint32_t)0x5FAUL << SCB_AIRCR_VECTKEY_Pos) |
 80013e4:	68bb      	ldr	r3, [r7, #8]
 80013e6:	4313      	orrs	r3, r2
  reg_value  =  (reg_value                                   |
 80013e8:	f043 63bf 	orr.w	r3, r3, #100139008	@ 0x5f80000
 80013ec:	f443 3300 	orr.w	r3, r3, #131072	@ 0x20000
 80013f0:	60bb      	str	r3, [r7, #8]
  SCB->AIRCR =  reg_value;
 80013f2:	4a04      	ldr	r2, [pc, #16]	@ (8001404 <__NVIC_SetPriorityGrouping+0x44>)
 80013f4:	68bb      	ldr	r3, [r7, #8]
 80013f6:	60d3      	str	r3, [r2, #12]
}
 80013f8:	bf00      	nop
 80013fa:	3714      	adds	r7, #20
 80013fc:	46bd      	mov	sp, r7
 80013fe:	f85d 7b04 	ldr.w	r7, [sp], #4
 8001402:	4770      	bx	lr
 8001404:	e000ed00 	.word	0xe000ed00

08001408 <LL_ADC_Enable>:
  * @rmtoll CR       ADEN           LL_ADC_Enable
  * @param  ADCx ADC instance
  * @retval None
  */
__STATIC_INLINE void LL_ADC_Enable(ADC_TypeDef *ADCx)
{
 8001408:	b480      	push	{r7}
 800140a:	b083      	sub	sp, #12
 800140c:	af00      	add	r7, sp, #0
 800140e:	6078      	str	r0, [r7, #4]
  /* Note: Write register with some additional bits forced to state reset     */
  /*       instead of modifying only the selected bit for this function,      */
  /*       to not interfere with bits with HW property "rs".                  */
  MODIFY_REG(ADCx->CR,
 8001410:	687b      	ldr	r3, [r7, #4]
 8001412:	689b      	ldr	r3, [r3, #8]
 8001414:	f023 4300 	bic.w	r3, r3, #2147483648	@ 0x80000000
 8001418:	f023 033f 	bic.w	r3, r3, #63	@ 0x3f
 800141c:	f043 0201 	orr.w	r2, r3, #1
 8001420:	687b      	ldr	r3, [r7, #4]
 8001422:	609a      	str	r2, [r3, #8]
             ADC_CR_BITS_PROPERTY_RS,
             ADC_CR_ADEN);
}
 8001424:	bf00      	nop
 8001426:	370c      	adds	r7, #12
 8001428:	46bd      	mov	sp, r7
 800142a:	f85d 7b04 	ldr.w	r7, [sp], #4
 800142e:	4770      	bx	lr

08001430 <LL_LPTIM_Enable>:
{
 8001430:	b480      	push	{r7}
 8001432:	b083      	sub	sp, #12
 8001434:	af00      	add	r7, sp, #0
 8001436:	6078      	str	r0, [r7, #4]
  SET_BIT(LPTIMx->CR, LPTIM_CR_ENABLE);
 8001438:	687b      	ldr	r3, [r7, #4]
 800143a:	691b      	ldr	r3, [r3, #16]
 800143c:	f043 0201 	orr.w	r2, r3, #1
 8001440:	687b      	ldr	r3, [r7, #4]
 8001442:	611a      	str	r2, [r3, #16]
}
 8001444:	bf00      	nop
 8001446:	370c      	adds	r7, #12
 8001448:	46bd      	mov	sp, r7
 800144a:	f85d 7b04 	ldr.w	r7, [sp], #4
 800144e:	4770      	bx	lr

08001450 <LL_LPTIM_StartCounter>:
{
 8001450:	b480      	push	{r7}
 8001452:	b083      	sub	sp, #12
 8001454:	af00      	add	r7, sp, #0
 8001456:	6078      	str	r0, [r7, #4]
 8001458:	6039      	str	r1, [r7, #0]
  MODIFY_REG(LPTIMx->CR, LPTIM_CR_CNTSTRT | LPTIM_CR_SNGSTRT, OperatingMode);
 800145a:	687b      	ldr	r3, [r7, #4]
 800145c:	691b      	ldr	r3, [r3, #16]
 800145e:	f023 0206 	bic.w	r2, r3, #6
 8001462:	683b      	ldr	r3, [r7, #0]
 8001464:	431a      	orrs	r2, r3
 8001466:	687b      	ldr	r3, [r7, #4]
 8001468:	611a      	str	r2, [r3, #16]
}
 800146a:	bf00      	nop
 800146c:	370c      	adds	r7, #12
 800146e:	46bd      	mov	sp, r7
 8001470:	f85d 7b04 	ldr.w	r7, [sp], #4
 8001474:	4770      	bx	lr

08001476 <LL_LPTIM_SetAutoReload>:
{
 8001476:	b480      	push	{r7}
 8001478:	b083      	sub	sp, #12
 800147a:	af00      	add	r7, sp, #0
 800147c:	6078      	str	r0, [r7, #4]
 800147e:	6039      	str	r1, [r7, #0]
  MODIFY_REG(LPTIMx->ARR, LPTIM_ARR_ARR, AutoReload);
 8001480:	687b      	ldr	r3, [r7, #4]
 8001482:	699b      	ldr	r3, [r3, #24]
 8001484:	0c1b      	lsrs	r3, r3, #16
 8001486:	041b      	lsls	r3, r3, #16
 8001488:	683a      	ldr	r2, [r7, #0]
 800148a:	431a      	orrs	r2, r3
 800148c:	687b      	ldr	r3, [r7, #4]
 800148e:	619a      	str	r2, [r3, #24]
}
 8001490:	bf00      	nop
 8001492:	370c      	adds	r7, #12
 8001494:	46bd      	mov	sp, r7
 8001496:	f85d 7b04 	ldr.w	r7, [sp], #4
 800149a:	4770      	bx	lr

0800149c <LL_LPTIM_EnableIT_ARRM>:
  * @rmtoll IER          ARRMIE        LL_LPTIM_EnableIT_ARRM
  * @param  LPTIMx Low-Power Timer instance
  * @retval None
  */
__STATIC_INLINE void LL_LPTIM_EnableIT_ARRM(LPTIM_TypeDef *LPTIMx)
{
 800149c:	b480      	push	{r7}
 800149e:	b083      	sub	sp, #12
 80014a0:	af00      	add	r7, sp, #0
 80014a2:	6078      	str	r0, [r7, #4]
  SET_BIT(LPTIMx->IER, LPTIM_IER_ARRMIE);
 80014a4:	687b      	ldr	r3, [r7, #4]
 80014a6:	689b      	ldr	r3, [r3, #8]
 80014a8:	f043 0202 	orr.w	r2, r3, #2
 80014ac:	687b      	ldr	r3, [r7, #4]
 80014ae:	609a      	str	r2, [r3, #8]
}
 80014b0:	bf00      	nop
 80014b2:	370c      	adds	r7, #12
 80014b4:	46bd      	mov	sp, r7
 80014b6:	f85d 7b04 	ldr.w	r7, [sp], #4
 80014ba:	4770      	bx	lr

080014bc <LL_RCC_LSE_Enable>:
{
 80014bc:	b480      	push	{r7}
 80014be:	af00      	add	r7, sp, #0
  SET_BIT(RCC->BDCR, RCC_BDCR_LSEON);
 80014c0:	4b06      	ldr	r3, [pc, #24]	@ (80014dc <LL_RCC_LSE_Enable+0x20>)
 80014c2:	f8d3 3090 	ldr.w	r3, [r3, #144]	@ 0x90
 80014c6:	4a05      	ldr	r2, [pc, #20]	@ (80014dc <LL_RCC_LSE_Enable+0x20>)
 80014c8:	f043 0301 	orr.w	r3, r3, #1
 80014cc:	f8c2 3090 	str.w	r3, [r2, #144]	@ 0x90
}
 80014d0:	bf00      	nop
 80014d2:	46bd      	mov	sp, r7
 80014d4:	f85d 7b04 	ldr.w	r7, [sp], #4
 80014d8:	4770      	bx	lr
 80014da:	bf00      	nop
 80014dc:	40021000 	.word	0x40021000

080014e0 <LL_RCC_LSE_SetDriveCapability>:
{
 80014e0:	b480      	push	{r7}
 80014e2:	b083      	sub	sp, #12
 80014e4:	af00      	add	r7, sp, #0
 80014e6:	6078      	str	r0, [r7, #4]
  MODIFY_REG(RCC->BDCR, RCC_BDCR_LSEDRV, LSEDrive);
 80014e8:	4b07      	ldr	r3, [pc, #28]	@ (8001508 <LL_RCC_LSE_SetDriveCapability+0x28>)
 80014ea:	f8d3 3090 	ldr.w	r3, [r3, #144]	@ 0x90
 80014ee:	f023 0218 	bic.w	r2, r3, #24
 80014f2:	4905      	ldr	r1, [pc, #20]	@ (8001508 <LL_RCC_LSE_SetDriveCapability+0x28>)
 80014f4:	687b      	ldr	r3, [r7, #4]
 80014f6:	4313      	orrs	r3, r2
 80014f8:	f8c1 3090 	str.w	r3, [r1, #144]	@ 0x90
}
 80014fc:	bf00      	nop
 80014fe:	370c      	adds	r7, #12
 8001500:	46bd      	mov	sp, r7
 8001502:	f85d 7b04 	ldr.w	r7, [sp], #4
 8001506:	4770      	bx	lr
 8001508:	40021000 	.word	0x40021000

0800150c <LL_RCC_LSE_IsReady>:
{
 800150c:	b480      	push	{r7}
 800150e:	af00      	add	r7, sp, #0
  return ((READ_BIT(RCC->BDCR, RCC_BDCR_LSERDY) == RCC_BDCR_LSERDY) ? 1UL : 0UL);
 8001510:	4b07      	ldr	r3, [pc, #28]	@ (8001530 <LL_RCC_LSE_IsReady+0x24>)
 8001512:	f8d3 3090 	ldr.w	r3, [r3, #144]	@ 0x90
 8001516:	f003 0302 	and.w	r3, r3, #2
 800151a:	2b02      	cmp	r3, #2
 800151c:	d101      	bne.n	8001522 <LL_RCC_LSE_IsReady+0x16>
 800151e:	2301      	movs	r3, #1
 8001520:	e000      	b.n	8001524 <LL_RCC_LSE_IsReady+0x18>
 8001522:	2300      	movs	r3, #0
}
 8001524:	4618      	mov	r0, r3
 8001526:	46bd      	mov	sp, r7
 8001528:	f85d 7b04 	ldr.w	r7, [sp], #4
 800152c:	4770      	bx	lr
 800152e:	bf00      	nop
 8001530:	40021000 	.word	0x40021000

08001534 <LL_RCC_MSI_Enable>:
{
 8001534:	b480      	push	{r7}
 8001536:	af00      	add	r7, sp, #0
  SET_BIT(RCC->CR, RCC_CR_MSION);
 8001538:	4b05      	ldr	r3, [pc, #20]	@ (8001550 <LL_RCC_MSI_Enable+0x1c>)
 800153a:	681b      	ldr	r3, [r3, #0]
 800153c:	4a04      	ldr	r2, [pc, #16]	@ (8001550 <LL_RCC_MSI_Enable+0x1c>)
 800153e:	f043 0301 	orr.w	r3, r3, #1
 8001542:	6013      	str	r3, [r2, #0]
}
 8001544:	bf00      	nop
 8001546:	46bd      	mov	sp, r7
 8001548:	f85d 7b04 	ldr.w	r7, [sp], #4
 800154c:	4770      	bx	lr
 800154e:	bf00      	nop
 8001550:	40021000 	.word	0x40021000

08001554 <LL_RCC_MSI_IsReady>:
{
 8001554:	b480      	push	{r7}
 8001556:	af00      	add	r7, sp, #0
  return ((READ_BIT(RCC->CR, RCC_CR_MSIRDY) == RCC_CR_MSIRDY) ? 1UL : 0UL);
 8001558:	4b06      	ldr	r3, [pc, #24]	@ (8001574 <LL_RCC_MSI_IsReady+0x20>)
 800155a:	681b      	ldr	r3, [r3, #0]
 800155c:	f003 0302 	and.w	r3, r3, #2
 8001560:	2b02      	cmp	r3, #2
 8001562:	d101      	bne.n	8001568 <LL_RCC_MSI_IsReady+0x14>
 8001564:	2301      	movs	r3, #1
 8001566:	e000      	b.n	800156a <LL_RCC_MSI_IsReady+0x16>
 8001568:	2300      	movs	r3, #0
}
 800156a:	4618      	mov	r0, r3
 800156c:	46bd      	mov	sp, r7
 800156e:	f85d 7b04 	ldr.w	r7, [sp], #4
 8001572:	4770      	bx	lr
 8001574:	40021000 	.word	0x40021000

08001578 <LL_RCC_MSI_EnablePLLMode>:
{
 8001578:	b480      	push	{r7}
 800157a:	af00      	add	r7, sp, #0
  SET_BIT(RCC->CR, RCC_CR_MSIPLLEN);
 800157c:	4b05      	ldr	r3, [pc, #20]	@ (8001594 <LL_RCC_MSI_EnablePLLMode+0x1c>)
 800157e:	681b      	ldr	r3, [r3, #0]
 8001580:	4a04      	ldr	r2, [pc, #16]	@ (8001594 <LL_RCC_MSI_EnablePLLMode+0x1c>)
 8001582:	f043 0304 	orr.w	r3, r3, #4
 8001586:	6013      	str	r3, [r2, #0]
}
 8001588:	bf00      	nop
 800158a:	46bd      	mov	sp, r7
 800158c:	f85d 7b04 	ldr.w	r7, [sp], #4
 8001590:	4770      	bx	lr
 8001592:	bf00      	nop
 8001594:	40021000 	.word	0x40021000

08001598 <LL_RCC_MSI_EnableRangeSelection>:
{
 8001598:	b480      	push	{r7}
 800159a:	af00      	add	r7, sp, #0
  SET_BIT(RCC->CR, RCC_CR_MSIRGSEL);
 800159c:	4b05      	ldr	r3, [pc, #20]	@ (80015b4 <LL_RCC_MSI_EnableRangeSelection+0x1c>)
 800159e:	681b      	ldr	r3, [r3, #0]
 80015a0:	4a04      	ldr	r2, [pc, #16]	@ (80015b4 <LL_RCC_MSI_EnableRangeSelection+0x1c>)
 80015a2:	f043 0308 	orr.w	r3, r3, #8
 80015a6:	6013      	str	r3, [r2, #0]
}
 80015a8:	bf00      	nop
 80015aa:	46bd      	mov	sp, r7
 80015ac:	f85d 7b04 	ldr.w	r7, [sp], #4
 80015b0:	4770      	bx	lr
 80015b2:	bf00      	nop
 80015b4:	40021000 	.word	0x40021000

080015b8 <LL_RCC_MSI_SetRange>:
{
 80015b8:	b480      	push	{r7}
 80015ba:	b083      	sub	sp, #12
 80015bc:	af00      	add	r7, sp, #0
 80015be:	6078      	str	r0, [r7, #4]
  MODIFY_REG(RCC->CR, RCC_CR_MSIRANGE, Range);
 80015c0:	4b06      	ldr	r3, [pc, #24]	@ (80015dc <LL_RCC_MSI_SetRange+0x24>)
 80015c2:	681b      	ldr	r3, [r3, #0]
 80015c4:	f023 02f0 	bic.w	r2, r3, #240	@ 0xf0
 80015c8:	4904      	ldr	r1, [pc, #16]	@ (80015dc <LL_RCC_MSI_SetRange+0x24>)
 80015ca:	687b      	ldr	r3, [r7, #4]
 80015cc:	4313      	orrs	r3, r2
 80015ce:	600b      	str	r3, [r1, #0]
}
 80015d0:	bf00      	nop
 80015d2:	370c      	adds	r7, #12
 80015d4:	46bd      	mov	sp, r7
 80015d6:	f85d 7b04 	ldr.w	r7, [sp], #4
 80015da:	4770      	bx	lr
 80015dc:	40021000 	.word	0x40021000

080015e0 <LL_RCC_MSI_SetCalibTrimming>:
{
 80015e0:	b480      	push	{r7}
 80015e2:	b083      	sub	sp, #12
 80015e4:	af00      	add	r7, sp, #0
 80015e6:	6078      	str	r0, [r7, #4]
  MODIFY_REG(RCC->ICSCR, RCC_ICSCR_MSITRIM, Value << RCC_ICSCR_MSITRIM_Pos);
 80015e8:	4b07      	ldr	r3, [pc, #28]	@ (8001608 <LL_RCC_MSI_SetCalibTrimming+0x28>)
 80015ea:	685b      	ldr	r3, [r3, #4]
 80015ec:	f423 427f 	bic.w	r2, r3, #65280	@ 0xff00
 80015f0:	687b      	ldr	r3, [r7, #4]
 80015f2:	021b      	lsls	r3, r3, #8
 80015f4:	4904      	ldr	r1, [pc, #16]	@ (8001608 <LL_RCC_MSI_SetCalibTrimming+0x28>)
 80015f6:	4313      	orrs	r3, r2
 80015f8:	604b      	str	r3, [r1, #4]
}
 80015fa:	bf00      	nop
 80015fc:	370c      	adds	r7, #12
 80015fe:	46bd      	mov	sp, r7
 8001600:	f85d 7b04 	ldr.w	r7, [sp], #4
 8001604:	4770      	bx	lr
 8001606:	bf00      	nop
 8001608:	40021000 	.word	0x40021000

0800160c <LL_RCC_SetSysClkSource>:
{
 800160c:	b480      	push	{r7}
 800160e:	b083      	sub	sp, #12
 8001610:	af00      	add	r7, sp, #0
 8001612:	6078      	str	r0, [r7, #4]
  MODIFY_REG(RCC->CFGR, RCC_CFGR_SW, Source);
 8001614:	4b06      	ldr	r3, [pc, #24]	@ (8001630 <LL_RCC_SetSysClkSource+0x24>)
 8001616:	689b      	ldr	r3, [r3, #8]
 8001618:	f023 0203 	bic.w	r2, r3, #3
 800161c:	4904      	ldr	r1, [pc, #16]	@ (8001630 <LL_RCC_SetSysClkSource+0x24>)
 800161e:	687b      	ldr	r3, [r7, #4]
 8001620:	4313      	orrs	r3, r2
 8001622:	608b      	str	r3, [r1, #8]
}
 8001624:	bf00      	nop
 8001626:	370c      	adds	r7, #12
 8001628:	46bd      	mov	sp, r7
 800162a:	f85d 7b04 	ldr.w	r7, [sp], #4
 800162e:	4770      	bx	lr
 8001630:	40021000 	.word	0x40021000

08001634 <LL_RCC_GetSysClkSource>:
{
 8001634:	b480      	push	{r7}
 8001636:	af00      	add	r7, sp, #0
  return (uint32_t)(READ_BIT(RCC->CFGR, RCC_CFGR_SWS));
 8001638:	4b04      	ldr	r3, [pc, #16]	@ (800164c <LL_RCC_GetSysClkSource+0x18>)
 800163a:	689b      	ldr	r3, [r3, #8]
 800163c:	f003 030c 	and.w	r3, r3, #12
}
 8001640:	4618      	mov	r0, r3
 8001642:	46bd      	mov	sp, r7
 8001644:	f85d 7b04 	ldr.w	r7, [sp], #4
 8001648:	4770      	bx	lr
 800164a:	bf00      	nop
 800164c:	40021000 	.word	0x40021000

08001650 <LL_RCC_SetAHBPrescaler>:
{
 8001650:	b480      	push	{r7}
 8001652:	b083      	sub	sp, #12
 8001654:	af00      	add	r7, sp, #0
 8001656:	6078      	str	r0, [r7, #4]
  MODIFY_REG(RCC->CFGR, RCC_CFGR_HPRE, Prescaler);
 8001658:	4b06      	ldr	r3, [pc, #24]	@ (8001674 <LL_RCC_SetAHBPrescaler+0x24>)
 800165a:	689b      	ldr	r3, [r3, #8]
 800165c:	f023 02f0 	bic.w	r2, r3, #240	@ 0xf0
 8001660:	4904      	ldr	r1, [pc, #16]	@ (8001674 <LL_RCC_SetAHBPrescaler+0x24>)
 8001662:	687b      	ldr	r3, [r7, #4]
 8001664:	4313      	orrs	r3, r2
 8001666:	608b      	str	r3, [r1, #8]
}
 8001668:	bf00      	nop
 800166a:	370c      	adds	r7, #12
 800166c:	46bd      	mov	sp, r7
 800166e:	f85d 7b04 	ldr.w	r7, [sp], #4
 8001672:	4770      	bx	lr
 8001674:	40021000 	.word	0x40021000

08001678 <LL_RCC_SetAPB1Prescaler>:
{
 8001678:	b480      	push	{r7}
 800167a:	b083      	sub	sp, #12
 800167c:	af00      	add	r7, sp, #0
 800167e:	6078      	str	r0, [r7, #4]
  MODIFY_REG(RCC->CFGR, RCC_CFGR_PPRE1, Prescaler);
 8001680:	4b06      	ldr	r3, [pc, #24]	@ (800169c <LL_RCC_SetAPB1Prescaler+0x24>)
 8001682:	689b      	ldr	r3, [r3, #8]
 8001684:	f423 62e0 	bic.w	r2, r3, #1792	@ 0x700
 8001688:	4904      	ldr	r1, [pc, #16]	@ (800169c <LL_RCC_SetAPB1Prescaler+0x24>)
 800168a:	687b      	ldr	r3, [r7, #4]
 800168c:	4313      	orrs	r3, r2
 800168e:	608b      	str	r3, [r1, #8]
}
 8001690:	bf00      	nop
 8001692:	370c      	adds	r7, #12
 8001694:	46bd      	mov	sp, r7
 8001696:	f85d 7b04 	ldr.w	r7, [sp], #4
 800169a:	4770      	bx	lr
 800169c:	40021000 	.word	0x40021000

080016a0 <LL_RCC_SetAPB2Prescaler>:
{
 80016a0:	b480      	push	{r7}
 80016a2:	b083      	sub	sp, #12
 80016a4:	af00      	add	r7, sp, #0
 80016a6:	6078      	str	r0, [r7, #4]
  MODIFY_REG(RCC->CFGR, RCC_CFGR_PPRE2, Prescaler);
 80016a8:	4b06      	ldr	r3, [pc, #24]	@ (80016c4 <LL_RCC_SetAPB2Prescaler+0x24>)
 80016aa:	689b      	ldr	r3, [r3, #8]
 80016ac:	f423 5260 	bic.w	r2, r3, #14336	@ 0x3800
 80016b0:	4904      	ldr	r1, [pc, #16]	@ (80016c4 <LL_RCC_SetAPB2Prescaler+0x24>)
 80016b2:	687b      	ldr	r3, [r7, #4]
 80016b4:	4313      	orrs	r3, r2
 80016b6:	608b      	str	r3, [r1, #8]
}
 80016b8:	bf00      	nop
 80016ba:	370c      	adds	r7, #12
 80016bc:	46bd      	mov	sp, r7
 80016be:	f85d 7b04 	ldr.w	r7, [sp], #4
 80016c2:	4770      	bx	lr
 80016c4:	40021000 	.word	0x40021000

080016c8 <LL_RCC_PLL_Enable>:
  * @brief  Enable PLL
  * @rmtoll CR           PLLON         LL_RCC_PLL_Enable
  * @retval None
  */
__STATIC_INLINE void LL_RCC_PLL_Enable(void)
{
 80016c8:	b480      	push	{r7}
 80016ca:	af00      	add	r7, sp, #0
  SET_BIT(RCC->CR, RCC_CR_PLLON);
 80016cc:	4b05      	ldr	r3, [pc, #20]	@ (80016e4 <LL_RCC_PLL_Enable+0x1c>)
 80016ce:	681b      	ldr	r3, [r3, #0]
 80016d0:	4a04      	ldr	r2, [pc, #16]	@ (80016e4 <LL_RCC_PLL_Enable+0x1c>)
 80016d2:	f043 7380 	orr.w	r3, r3, #16777216	@ 0x1000000
 80016d6:	6013      	str	r3, [r2, #0]
}
 80016d8:	bf00      	nop
 80016da:	46bd      	mov	sp, r7
 80016dc:	f85d 7b04 	ldr.w	r7, [sp], #4
 80016e0:	4770      	bx	lr
 80016e2:	bf00      	nop
 80016e4:	40021000 	.word	0x40021000

080016e8 <LL_RCC_PLL_IsReady>:
  * @brief  Check if PLL Ready
  * @rmtoll CR           PLLRDY        LL_RCC_PLL_IsReady
  * @retval State of bit (1 or 0).
  */
__STATIC_INLINE uint32_t LL_RCC_PLL_IsReady(void)
{
 80016e8:	b480      	push	{r7}
 80016ea:	af00      	add	r7, sp, #0
  return ((READ_BIT(RCC->CR, RCC_CR_PLLRDY) == RCC_CR_PLLRDY) ? 1UL : 0UL);
 80016ec:	4b07      	ldr	r3, [pc, #28]	@ (800170c <LL_RCC_PLL_IsReady+0x24>)
 80016ee:	681b      	ldr	r3, [r3, #0]
 80016f0:	f003 7300 	and.w	r3, r3, #33554432	@ 0x2000000
 80016f4:	f1b3 7f00 	cmp.w	r3, #33554432	@ 0x2000000
 80016f8:	d101      	bne.n	80016fe <LL_RCC_PLL_IsReady+0x16>
 80016fa:	2301      	movs	r3, #1
 80016fc:	e000      	b.n	8001700 <LL_RCC_PLL_IsReady+0x18>
 80016fe:	2300      	movs	r3, #0
}
 8001700:	4618      	mov	r0, r3
 8001702:	46bd      	mov	sp, r7
 8001704:	f85d 7b04 	ldr.w	r7, [sp], #4
 8001708:	4770      	bx	lr
 800170a:	bf00      	nop
 800170c:	40021000 	.word	0x40021000

08001710 <LL_RCC_PLL_ConfigDomain_SYS>:
  *         @arg @ref LL_RCC_PLLR_DIV_6
  *         @arg @ref LL_RCC_PLLR_DIV_8
  * @retval None
  */
__STATIC_INLINE void LL_RCC_PLL_ConfigDomain_SYS(uint32_t Source, uint32_t PLLM, uint32_t PLLN, uint32_t PLLR)
{
 8001710:	b480      	push	{r7}
 8001712:	b085      	sub	sp, #20
 8001714:	af00      	add	r7, sp, #0
 8001716:	60f8      	str	r0, [r7, #12]
 8001718:	60b9      	str	r1, [r7, #8]
 800171a:	607a      	str	r2, [r7, #4]
 800171c:	603b      	str	r3, [r7, #0]
  MODIFY_REG(RCC->PLLCFGR, RCC_PLLCFGR_PLLSRC | RCC_PLLCFGR_PLLM | RCC_PLLCFGR_PLLN | RCC_PLLCFGR_PLLR,
 800171e:	4b0a      	ldr	r3, [pc, #40]	@ (8001748 <LL_RCC_PLL_ConfigDomain_SYS+0x38>)
 8001720:	68da      	ldr	r2, [r3, #12]
 8001722:	4b0a      	ldr	r3, [pc, #40]	@ (800174c <LL_RCC_PLL_ConfigDomain_SYS+0x3c>)
 8001724:	4013      	ands	r3, r2
 8001726:	68f9      	ldr	r1, [r7, #12]
 8001728:	68ba      	ldr	r2, [r7, #8]
 800172a:	4311      	orrs	r1, r2
 800172c:	687a      	ldr	r2, [r7, #4]
 800172e:	0212      	lsls	r2, r2, #8
 8001730:	4311      	orrs	r1, r2
 8001732:	683a      	ldr	r2, [r7, #0]
 8001734:	430a      	orrs	r2, r1
 8001736:	4904      	ldr	r1, [pc, #16]	@ (8001748 <LL_RCC_PLL_ConfigDomain_SYS+0x38>)
 8001738:	4313      	orrs	r3, r2
 800173a:	60cb      	str	r3, [r1, #12]
             Source | PLLM | (PLLN << RCC_PLLCFGR_PLLN_Pos) | PLLR);
}
 800173c:	bf00      	nop
 800173e:	3714      	adds	r7, #20
 8001740:	46bd      	mov	sp, r7
 8001742:	f85d 7b04 	ldr.w	r7, [sp], #4
 8001746:	4770      	bx	lr
 8001748:	40021000 	.word	0x40021000
 800174c:	f9ff808c 	.word	0xf9ff808c

08001750 <LL_RCC_PLL_EnableDomain_SYS>:
  * @brief  Enable PLL output mapped on SYSCLK domain
  * @rmtoll PLLCFGR      PLLREN        LL_RCC_PLL_EnableDomain_SYS
  * @retval None
  */
__STATIC_INLINE void LL_RCC_PLL_EnableDomain_SYS(void)
{
 8001750:	b480      	push	{r7}
 8001752:	af00      	add	r7, sp, #0
  SET_BIT(RCC->PLLCFGR, RCC_PLLCFGR_PLLREN);
 8001754:	4b05      	ldr	r3, [pc, #20]	@ (800176c <LL_RCC_PLL_EnableDomain_SYS+0x1c>)
 8001756:	68db      	ldr	r3, [r3, #12]
 8001758:	4a04      	ldr	r2, [pc, #16]	@ (800176c <LL_RCC_PLL_EnableDomain_SYS+0x1c>)
 800175a:	f043 7380 	orr.w	r3, r3, #16777216	@ 0x1000000
 800175e:	60d3      	str	r3, [r2, #12]
}
 8001760:	bf00      	nop
 8001762:	46bd      	mov	sp, r7
 8001764:	f85d 7b04 	ldr.w	r7, [sp], #4
 8001768:	4770      	bx	lr
 800176a:	bf00      	nop
 800176c:	40021000 	.word	0x40021000

08001770 <LL_APB1_GRP1_EnableClock>:
{
 8001770:	b480      	push	{r7}
 8001772:	b085      	sub	sp, #20
 8001774:	af00      	add	r7, sp, #0
 8001776:	6078      	str	r0, [r7, #4]
  SET_BIT(RCC->APB1ENR1, Periphs);
 8001778:	4b08      	ldr	r3, [pc, #32]	@ (800179c <LL_APB1_GRP1_EnableClock+0x2c>)
 800177a:	6d9a      	ldr	r2, [r3, #88]	@ 0x58
 800177c:	4907      	ldr	r1, [pc, #28]	@ (800179c <LL_APB1_GRP1_EnableClock+0x2c>)
 800177e:	687b      	ldr	r3, [r7, #4]
 8001780:	4313      	orrs	r3, r2
 8001782:	658b      	str	r3, [r1, #88]	@ 0x58
  tmpreg = READ_BIT(RCC->APB1ENR1, Periphs);
 8001784:	4b05      	ldr	r3, [pc, #20]	@ (800179c <LL_APB1_GRP1_EnableClock+0x2c>)
 8001786:	6d9a      	ldr	r2, [r3, #88]	@ 0x58
 8001788:	687b      	ldr	r3, [r7, #4]
 800178a:	4013      	ands	r3, r2
 800178c:	60fb      	str	r3, [r7, #12]
  (void)tmpreg;
 800178e:	68fb      	ldr	r3, [r7, #12]
}
 8001790:	bf00      	nop
 8001792:	3714      	adds	r7, #20
 8001794:	46bd      	mov	sp, r7
 8001796:	f85d 7b04 	ldr.w	r7, [sp], #4
 800179a:	4770      	bx	lr
 800179c:	40021000 	.word	0x40021000

080017a0 <LL_APB2_GRP1_EnableClock>:
  *
  *         (*) value not defined in all devices.
  * @retval None
*/
__STATIC_INLINE void LL_APB2_GRP1_EnableClock(uint32_t Periphs)
{
 80017a0:	b480      	push	{r7}
 80017a2:	b085      	sub	sp, #20
 80017a4:	af00      	add	r7, sp, #0
 80017a6:	6078      	str	r0, [r7, #4]
  __IO uint32_t tmpreg;
  SET_BIT(RCC->APB2ENR, Periphs);
 80017a8:	4b08      	ldr	r3, [pc, #32]	@ (80017cc <LL_APB2_GRP1_EnableClock+0x2c>)
 80017aa:	6e1a      	ldr	r2, [r3, #96]	@ 0x60
 80017ac:	4907      	ldr	r1, [pc, #28]	@ (80017cc <LL_APB2_GRP1_EnableClock+0x2c>)
 80017ae:	687b      	ldr	r3, [r7, #4]
 80017b0:	4313      	orrs	r3, r2
 80017b2:	660b      	str	r3, [r1, #96]	@ 0x60
  /* Delay after an RCC peripheral clock enabling */
  tmpreg = READ_BIT(RCC->APB2ENR, Periphs);
 80017b4:	4b05      	ldr	r3, [pc, #20]	@ (80017cc <LL_APB2_GRP1_EnableClock+0x2c>)
 80017b6:	6e1a      	ldr	r2, [r3, #96]	@ 0x60
 80017b8:	687b      	ldr	r3, [r7, #4]
 80017ba:	4013      	ands	r3, r2
 80017bc:	60fb      	str	r3, [r7, #12]
  (void)tmpreg;
 80017be:	68fb      	ldr	r3, [r7, #12]
}
 80017c0:	bf00      	nop
 80017c2:	3714      	adds	r7, #20
 80017c4:	46bd      	mov	sp, r7
 80017c6:	f85d 7b04 	ldr.w	r7, [sp], #4
 80017ca:	4770      	bx	lr
 80017cc:	40021000 	.word	0x40021000

080017d0 <LL_FLASH_SetLatency>:
  *
  *         (*) value not defined in all devices.
  * @retval None
  */
__STATIC_INLINE void LL_FLASH_SetLatency(uint32_t Latency)
{
 80017d0:	b480      	push	{r7}
 80017d2:	b083      	sub	sp, #12
 80017d4:	af00      	add	r7, sp, #0
 80017d6:	6078      	str	r0, [r7, #4]
  MODIFY_REG(FLASH->ACR, FLASH_ACR_LATENCY, Latency);
 80017d8:	4b06      	ldr	r3, [pc, #24]	@ (80017f4 <LL_FLASH_SetLatency+0x24>)
 80017da:	681b      	ldr	r3, [r3, #0]
 80017dc:	f023 0207 	bic.w	r2, r3, #7
 80017e0:	4904      	ldr	r1, [pc, #16]	@ (80017f4 <LL_FLASH_SetLatency+0x24>)
 80017e2:	687b      	ldr	r3, [r7, #4]
 80017e4:	4313      	orrs	r3, r2
 80017e6:	600b      	str	r3, [r1, #0]
}
 80017e8:	bf00      	nop
 80017ea:	370c      	adds	r7, #12
 80017ec:	46bd      	mov	sp, r7
 80017ee:	f85d 7b04 	ldr.w	r7, [sp], #4
 80017f2:	4770      	bx	lr
 80017f4:	40022000 	.word	0x40022000

080017f8 <LL_FLASH_GetLatency>:
  *         @arg @ref LL_FLASH_LATENCY_15 (*)
  *
  *         (*) value not defined in all devices.
  */
__STATIC_INLINE uint32_t LL_FLASH_GetLatency(void)
{
 80017f8:	b480      	push	{r7}
 80017fa:	af00      	add	r7, sp, #0
  return (uint32_t)(READ_BIT(FLASH->ACR, FLASH_ACR_LATENCY));
 80017fc:	4b04      	ldr	r3, [pc, #16]	@ (8001810 <LL_FLASH_GetLatency+0x18>)
 80017fe:	681b      	ldr	r3, [r3, #0]
 8001800:	f003 0307 	and.w	r3, r3, #7
}
 8001804:	4618      	mov	r0, r3
 8001806:	46bd      	mov	sp, r7
 8001808:	f85d 7b04 	ldr.w	r7, [sp], #4
 800180c:	4770      	bx	lr
 800180e:	bf00      	nop
 8001810:	40022000 	.word	0x40022000

08001814 <LL_SYSTICK_EnableIT>:
  * @brief  Enable SysTick exception request
  * @rmtoll STK_CTRL     TICKINT       LL_SYSTICK_EnableIT
  * @retval None
  */
__STATIC_INLINE void LL_SYSTICK_EnableIT(void)
{
 8001814:	b480      	push	{r7}
 8001816:	af00      	add	r7, sp, #0
  SET_BIT(SysTick->CTRL, SysTick_CTRL_TICKINT_Msk);
 8001818:	4b05      	ldr	r3, [pc, #20]	@ (8001830 <LL_SYSTICK_EnableIT+0x1c>)
 800181a:	681b      	ldr	r3, [r3, #0]
 800181c:	4a04      	ldr	r2, [pc, #16]	@ (8001830 <LL_SYSTICK_EnableIT+0x1c>)
 800181e:	f043 0302 	orr.w	r3, r3, #2
 8001822:	6013      	str	r3, [r2, #0]
}
 8001824:	bf00      	nop
 8001826:	46bd      	mov	sp, r7
 8001828:	f85d 7b04 	ldr.w	r7, [sp], #4
 800182c:	4770      	bx	lr
 800182e:	bf00      	nop
 8001830:	e000e010 	.word	0xe000e010

08001834 <LL_PWR_SetRegulVoltageScaling>:
  *         @arg @ref LL_PWR_REGU_VOLTAGE_SCALE1
  *         @arg @ref LL_PWR_REGU_VOLTAGE_SCALE2
  * @retval None
  */
__STATIC_INLINE void LL_PWR_SetRegulVoltageScaling(uint32_t VoltageScaling)
{
 8001834:	b480      	push	{r7}
 8001836:	b083      	sub	sp, #12
 8001838:	af00      	add	r7, sp, #0
 800183a:	6078      	str	r0, [r7, #4]
  MODIFY_REG(PWR->CR1, PWR_CR1_VOS, VoltageScaling);
 800183c:	4b06      	ldr	r3, [pc, #24]	@ (8001858 <LL_PWR_SetRegulVoltageScaling+0x24>)
 800183e:	681b      	ldr	r3, [r3, #0]
 8001840:	f423 62c0 	bic.w	r2, r3, #1536	@ 0x600
 8001844:	4904      	ldr	r1, [pc, #16]	@ (8001858 <LL_PWR_SetRegulVoltageScaling+0x24>)
 8001846:	687b      	ldr	r3, [r7, #4]
 8001848:	4313      	orrs	r3, r2
 800184a:	600b      	str	r3, [r1, #0]
}
 800184c:	bf00      	nop
 800184e:	370c      	adds	r7, #12
 8001850:	46bd      	mov	sp, r7
 8001852:	f85d 7b04 	ldr.w	r7, [sp], #4
 8001856:	4770      	bx	lr
 8001858:	40007000 	.word	0x40007000

0800185c <LL_PWR_EnableBkUpAccess>:
  * @brief  Enable access to the backup domain
  * @rmtoll CR1          DBP           LL_PWR_EnableBkUpAccess
  * @retval None
  */
__STATIC_INLINE void LL_PWR_EnableBkUpAccess(void)
{
 800185c:	b480      	push	{r7}
 800185e:	af00      	add	r7, sp, #0
  SET_BIT(PWR->CR1, PWR_CR1_DBP);
 8001860:	4b05      	ldr	r3, [pc, #20]	@ (8001878 <LL_PWR_EnableBkUpAccess+0x1c>)
 8001862:	681b      	ldr	r3, [r3, #0]
 8001864:	4a04      	ldr	r2, [pc, #16]	@ (8001878 <LL_PWR_EnableBkUpAccess+0x1c>)
 8001866:	f443 7380 	orr.w	r3, r3, #256	@ 0x100
 800186a:	6013      	str	r3, [r2, #0]
}
 800186c:	bf00      	nop
 800186e:	46bd      	mov	sp, r7
 8001870:	f85d 7b04 	ldr.w	r7, [sp], #4
 8001874:	4770      	bx	lr
 8001876:	bf00      	nop
 8001878:	40007000 	.word	0x40007000

0800187c <LL_SPI_Enable>:
  * @rmtoll CR1          SPE           LL_SPI_Enable
  * @param  SPIx SPI Instance
  * @retval None
  */
__STATIC_INLINE void LL_SPI_Enable(SPI_TypeDef *SPIx)
{
 800187c:	b480      	push	{r7}
 800187e:	b083      	sub	sp, #12
 8001880:	af00      	add	r7, sp, #0
 8001882:	6078      	str	r0, [r7, #4]
  SET_BIT(SPIx->CR1, SPI_CR1_SPE);
 8001884:	687b      	ldr	r3, [r7, #4]
 8001886:	681b      	ldr	r3, [r3, #0]
 8001888:	f043 0240 	orr.w	r2, r3, #64	@ 0x40
 800188c:	687b      	ldr	r3, [r7, #4]
 800188e:	601a      	str	r2, [r3, #0]
}
 8001890:	bf00      	nop
 8001892:	370c      	adds	r7, #12
 8001894:	46bd      	mov	sp, r7
 8001896:	f85d 7b04 	ldr.w	r7, [sp], #4
 800189a:	4770      	bx	lr

0800189c <main>:
/**
  * @brief  The application entry point.
  * @retval int
  */
int main(void)
{
 800189c:	b580      	push	{r7, lr}
 800189e:	b086      	sub	sp, #24
 80018a0:	af00      	add	r7, sp, #0
  /* USER CODE END 1 */

  /* MCU Configuration--------------------------------------------------------*/

  /* Reset of all peripherals, Initializes the Flash interface and the Systick. */
  LL_APB2_GRP1_EnableClock(LL_APB2_GRP1_PERIPH_SYSCFG);
 80018a2:	2001      	movs	r0, #1
 80018a4:	f7ff ff7c 	bl	80017a0 <LL_APB2_GRP1_EnableClock>
  LL_APB1_GRP1_EnableClock(LL_APB1_GRP1_PERIPH_PWR);
 80018a8:	f04f 5080 	mov.w	r0, #268435456	@ 0x10000000
 80018ac:	f7ff ff60 	bl	8001770 <LL_APB1_GRP1_EnableClock>

  /* System interrupt init*/
  NVIC_SetPriorityGrouping(NVIC_PRIORITYGROUP_4);
 80018b0:	2003      	movs	r0, #3
 80018b2:	f7ff fd85 	bl	80013c0 <__NVIC_SetPriorityGrouping>
  /* USER CODE BEGIN Init */

  /* USER CODE END Init */

  /* Configure the system clock */
  SystemClock_Config();
 80018b6:	f000 f871 	bl	800199c <SystemClock_Config>
  /* USER CODE BEGIN SysInit */

  /* USER CODE END SysInit */

  /* Initialize all configured peripherals */
  MX_GPIO_Init();
 80018ba:	f7ff fb67 	bl	8000f8c <MX_GPIO_Init>
  MX_USART2_UART_Init();
 80018be:	f001 fad5 	bl	8002e6c <MX_USART2_UART_Init>
  MX_SPI1_Init();
 80018c2:	f001 f86d 	bl	80029a0 <MX_SPI1_Init>
  MX_LPTIM2_Init();
 80018c6:	f7ff fd43 	bl	8001350 <MX_LPTIM2_Init>
  MX_SPI2_Init();
 80018ca:	f001 f8bf 	bl	8002a4c <MX_SPI2_Init>
  MX_ADC2_Init();
 80018ce:	f7ff f9e3 	bl	8000c98 <MX_ADC2_Init>
  MX_ADC1_Init();
 80018d2:	f7ff f93b 	bl	8000b4c <MX_ADC1_Init>
/*******************************************************************************
* USER DEFINITIONS
*******************************************************************************/

	AS5145B_Init_t enc;
	enc.CSn_GPIOx	= ENC_CSn_GPIO_Port;
 80018d6:	4b28      	ldr	r3, [pc, #160]	@ (8001978 <main+0xdc>)
 80018d8:	603b      	str	r3, [r7, #0]
	enc.CSn_Pin		= ENC_CSn_Pin;
 80018da:	2340      	movs	r3, #64	@ 0x40
 80018dc:	81bb      	strh	r3, [r7, #12]
	enc.CLK_GPIOx	= ENC_CLK_GPIO_Port;
 80018de:	4b27      	ldr	r3, [pc, #156]	@ (800197c <main+0xe0>)
 80018e0:	607b      	str	r3, [r7, #4]
	enc.CLK_Pin		= ENC_CLK_Pin;
 80018e2:	2380      	movs	r3, #128	@ 0x80
 80018e4:	81fb      	strh	r3, [r7, #14]
	enc.DO_GPIOx	= ENC_DO_GPIO_Port;
 80018e6:	4b24      	ldr	r3, [pc, #144]	@ (8001978 <main+0xdc>)
 80018e8:	60bb      	str	r3, [r7, #8]
	enc.DO_Pin		= ENC_DO_Pin;
 80018ea:	2380      	movs	r3, #128	@ 0x80
 80018ec:	823b      	strh	r3, [r7, #16]
/*******************************************************************************
* USER INITIALIZATIONS
*******************************************************************************/

	// Enable Systick interrupt
	LL_SYSTICK_EnableIT();
 80018ee:	f7ff ff91 	bl	8001814 <LL_SYSTICK_EnableIT>

	// Start LPTIM2 interrupt
	LL_LPTIM_Enable(LPTIM2);
 80018f2:	4823      	ldr	r0, [pc, #140]	@ (8001980 <main+0xe4>)
 80018f4:	f7ff fd9c 	bl	8001430 <LL_LPTIM_Enable>
	LL_LPTIM_EnableIT_ARRM(LPTIM2);
 80018f8:	4821      	ldr	r0, [pc, #132]	@ (8001980 <main+0xe4>)
 80018fa:	f7ff fdcf 	bl	800149c <LL_LPTIM_EnableIT_ARRM>
	LL_LPTIM_SetAutoReload( LPTIM2, LPTIM2_PERIOD );
 80018fe:	213f      	movs	r1, #63	@ 0x3f
 8001900:	481f      	ldr	r0, [pc, #124]	@ (8001980 <main+0xe4>)
 8001902:	f7ff fdb8 	bl	8001476 <LL_LPTIM_SetAutoReload>
	LL_LPTIM_StartCounter( LPTIM2, LL_LPTIM_OPERATING_MODE_CONTINUOUS );
 8001906:	2104      	movs	r1, #4
 8001908:	481d      	ldr	r0, [pc, #116]	@ (8001980 <main+0xe4>)
 800190a:	f7ff fda1 	bl	8001450 <LL_LPTIM_StartCounter>

	// Enable peripherals
	LL_SPI_Enable(SPI1);
 800190e:	481d      	ldr	r0, [pc, #116]	@ (8001984 <main+0xe8>)
 8001910:	f7ff ffb4 	bl	800187c <LL_SPI_Enable>
	LL_SPI_Enable(SPI2);
 8001914:	481c      	ldr	r0, [pc, #112]	@ (8001988 <main+0xec>)
 8001916:	f7ff ffb1 	bl	800187c <LL_SPI_Enable>
	LL_ADC_Enable(ADC1);
 800191a:	481c      	ldr	r0, [pc, #112]	@ (800198c <main+0xf0>)
 800191c:	f7ff fd74 	bl	8001408 <LL_ADC_Enable>
	LL_ADC_Enable(ADC2);
 8001920:	481b      	ldr	r0, [pc, #108]	@ (8001990 <main+0xf4>)
 8001922:	f7ff fd71 	bl	8001408 <LL_ADC_Enable>

	// Initialize devices
	CAN_configure();
 8001926:	f001 ff21 	bl	800376c <CAN_configure>
	EPOS4_SetCSTMode(CAN_ID);
 800192a:	4b1a      	ldr	r3, [pc, #104]	@ (8001994 <main+0xf8>)
 800192c:	881b      	ldrh	r3, [r3, #0]
 800192e:	4618      	mov	r0, r3
 8001930:	f001 fc4b 	bl	80031ca <EPOS4_SetCSTMode>
	AS5145B_Init(&enc);
 8001934:	463b      	mov	r3, r7
 8001936:	4618      	mov	r0, r3
 8001938:	f001 fb46 	bl	8002fc8 <AS5145B_Init>
	systick_app_timer_module_init();
 800193c:	f001 fa1a 	bl	8002d74 <systick_app_timer_module_init>
	mpu9255_init(5);
 8001940:	2005      	movs	r0, #5
 8001942:	f004 fa8f 	bl	8005e64 <mpu9255_init>
	readTimer_event_handler();
 8001946:	f004 f965 	bl	8005c14 <readTimer_event_handler>

	// Remove spikes from beginning
	for ( uint16_t i = 0; i < 1000; i++ );
 800194a:	2300      	movs	r3, #0
 800194c:	82fb      	strh	r3, [r7, #22]
 800194e:	e002      	b.n	8001956 <main+0xba>
 8001950:	8afb      	ldrh	r3, [r7, #22]
 8001952:	3301      	adds	r3, #1
 8001954:	82fb      	strh	r3, [r7, #22]
 8001956:	8afb      	ldrh	r3, [r7, #22]
 8001958:	f5b3 7f7a 	cmp.w	r3, #1000	@ 0x3e8
 800195c:	d3f8      	bcc.n	8001950 <main+0xb4>

/*******************************************************************************
* TEST PROGRAMS
*******************************************************************************/

	RequireTestProgram(ReadOnly);
 800195e:	2001      	movs	r0, #1
 8001960:	f000 f924 	bl	8001bac <RequireTestProgram>
* USER MAIN LOOP
*******************************************************************************/

  while (1)
  {
	  if (isProsthesisControlRequired)
 8001964:	4b0c      	ldr	r3, [pc, #48]	@ (8001998 <main+0xfc>)
 8001966:	781b      	ldrb	r3, [r3, #0]
 8001968:	2b00      	cmp	r3, #0
 800196a:	d0fb      	beq.n	8001964 <main+0xc8>
	  {
		  RunProsthesisControl();
 800196c:	f000 f8f2 	bl	8001b54 <RunProsthesisControl>
		  isProsthesisControlRequired = 0;
 8001970:	4b09      	ldr	r3, [pc, #36]	@ (8001998 <main+0xfc>)
 8001972:	2200      	movs	r2, #0
 8001974:	701a      	strb	r2, [r3, #0]
	  if (isProsthesisControlRequired)
 8001976:	e7f5      	b.n	8001964 <main+0xc8>
 8001978:	48000800 	.word	0x48000800
 800197c:	48000400 	.word	0x48000400
 8001980:	40009400 	.word	0x40009400
 8001984:	40013000 	.word	0x40013000
 8001988:	40003800 	.word	0x40003800
 800198c:	50040000 	.word	0x50040000
 8001990:	50040100 	.word	0x50040100
 8001994:	20000000 	.word	0x20000000
 8001998:	20000064 	.word	0x20000064

0800199c <SystemClock_Config>:
/**
  * @brief System Clock Configuration
  * @retval None
  */
void SystemClock_Config(void)
{
 800199c:	b580      	push	{r7, lr}
 800199e:	af00      	add	r7, sp, #0
  LL_FLASH_SetLatency(LL_FLASH_LATENCY_4);
 80019a0:	2004      	movs	r0, #4
 80019a2:	f7ff ff15 	bl	80017d0 <LL_FLASH_SetLatency>
  while(LL_FLASH_GetLatency()!= LL_FLASH_LATENCY_4)
 80019a6:	bf00      	nop
 80019a8:	f7ff ff26 	bl	80017f8 <LL_FLASH_GetLatency>
 80019ac:	4603      	mov	r3, r0
 80019ae:	2b04      	cmp	r3, #4
 80019b0:	d1fa      	bne.n	80019a8 <SystemClock_Config+0xc>
  {
  }
  LL_PWR_SetRegulVoltageScaling(LL_PWR_REGU_VOLTAGE_SCALE1);
 80019b2:	f44f 7000 	mov.w	r0, #512	@ 0x200
 80019b6:	f7ff ff3d 	bl	8001834 <LL_PWR_SetRegulVoltageScaling>
  LL_RCC_MSI_Enable();
 80019ba:	f7ff fdbb 	bl	8001534 <LL_RCC_MSI_Enable>

   /* Wait till MSI is ready */
  while(LL_RCC_MSI_IsReady() != 1)
 80019be:	bf00      	nop
 80019c0:	f7ff fdc8 	bl	8001554 <LL_RCC_MSI_IsReady>
 80019c4:	4603      	mov	r3, r0
 80019c6:	2b01      	cmp	r3, #1
 80019c8:	d1fa      	bne.n	80019c0 <SystemClock_Config+0x24>
  {

  }
  LL_RCC_MSI_EnableRangeSelection();
 80019ca:	f7ff fde5 	bl	8001598 <LL_RCC_MSI_EnableRangeSelection>
  LL_RCC_MSI_SetRange(LL_RCC_MSIRANGE_11);
 80019ce:	20b0      	movs	r0, #176	@ 0xb0
 80019d0:	f7ff fdf2 	bl	80015b8 <LL_RCC_MSI_SetRange>
  LL_RCC_MSI_SetCalibTrimming(0);
 80019d4:	2000      	movs	r0, #0
 80019d6:	f7ff fe03 	bl	80015e0 <LL_RCC_MSI_SetCalibTrimming>
  LL_PWR_EnableBkUpAccess();
 80019da:	f7ff ff3f 	bl	800185c <LL_PWR_EnableBkUpAccess>
  LL_RCC_LSE_SetDriveCapability(LL_RCC_LSEDRIVE_LOW);
 80019de:	2000      	movs	r0, #0
 80019e0:	f7ff fd7e 	bl	80014e0 <LL_RCC_LSE_SetDriveCapability>
  LL_RCC_LSE_Enable();
 80019e4:	f7ff fd6a 	bl	80014bc <LL_RCC_LSE_Enable>

   /* Wait till LSE is ready */
  while(LL_RCC_LSE_IsReady() != 1)
 80019e8:	bf00      	nop
 80019ea:	f7ff fd8f 	bl	800150c <LL_RCC_LSE_IsReady>
 80019ee:	4603      	mov	r3, r0
 80019f0:	2b01      	cmp	r3, #1
 80019f2:	d1fa      	bne.n	80019ea <SystemClock_Config+0x4e>
  {

  }
  LL_RCC_MSI_EnablePLLMode();
 80019f4:	f7ff fdc0 	bl	8001578 <LL_RCC_MSI_EnablePLLMode>
  LL_RCC_PLL_ConfigDomain_SYS(LL_RCC_PLLSOURCE_MSI, LL_RCC_PLLM_DIV_6, 40, LL_RCC_PLLR_DIV_4);
 80019f8:	f04f 7300 	mov.w	r3, #33554432	@ 0x2000000
 80019fc:	2228      	movs	r2, #40	@ 0x28
 80019fe:	2150      	movs	r1, #80	@ 0x50
 8001a00:	2001      	movs	r0, #1
 8001a02:	f7ff fe85 	bl	8001710 <LL_RCC_PLL_ConfigDomain_SYS>
  LL_RCC_PLL_EnableDomain_SYS();
 8001a06:	f7ff fea3 	bl	8001750 <LL_RCC_PLL_EnableDomain_SYS>
  LL_RCC_PLL_Enable();
 8001a0a:	f7ff fe5d 	bl	80016c8 <LL_RCC_PLL_Enable>

   /* Wait till PLL is ready */
  while(LL_RCC_PLL_IsReady() != 1)
 8001a0e:	bf00      	nop
 8001a10:	f7ff fe6a 	bl	80016e8 <LL_RCC_PLL_IsReady>
 8001a14:	4603      	mov	r3, r0
 8001a16:	2b01      	cmp	r3, #1
 8001a18:	d1fa      	bne.n	8001a10 <SystemClock_Config+0x74>
  {

  }
  LL_RCC_SetSysClkSource(LL_RCC_SYS_CLKSOURCE_PLL);
 8001a1a:	2003      	movs	r0, #3
 8001a1c:	f7ff fdf6 	bl	800160c <LL_RCC_SetSysClkSource>

   /* Wait till System clock is ready */
  while(LL_RCC_GetSysClkSource() != LL_RCC_SYS_CLKSOURCE_STATUS_PLL)
 8001a20:	bf00      	nop
 8001a22:	f7ff fe07 	bl	8001634 <LL_RCC_GetSysClkSource>
 8001a26:	4603      	mov	r3, r0
 8001a28:	2b0c      	cmp	r3, #12
 8001a2a:	d1fa      	bne.n	8001a22 <SystemClock_Config+0x86>
  {

  }
  LL_RCC_SetAHBPrescaler(LL_RCC_SYSCLK_DIV_1);
 8001a2c:	2000      	movs	r0, #0
 8001a2e:	f7ff fe0f 	bl	8001650 <LL_RCC_SetAHBPrescaler>
  LL_RCC_SetAPB1Prescaler(LL_RCC_APB1_DIV_2);
 8001a32:	f44f 6080 	mov.w	r0, #1024	@ 0x400
 8001a36:	f7ff fe1f 	bl	8001678 <LL_RCC_SetAPB1Prescaler>
  LL_RCC_SetAPB2Prescaler(LL_RCC_APB2_DIV_2);
 8001a3a:	f44f 5000 	mov.w	r0, #8192	@ 0x2000
 8001a3e:	f7ff fe2f 	bl	80016a0 <LL_RCC_SetAPB2Prescaler>

  LL_Init1msTick(80000000);
 8001a42:	4804      	ldr	r0, [pc, #16]	@ (8001a54 <SystemClock_Config+0xb8>)
 8001a44:	f005 fc90 	bl	8007368 <LL_Init1msTick>

  LL_SetSystemCoreClock(80000000);
 8001a48:	4802      	ldr	r0, [pc, #8]	@ (8001a54 <SystemClock_Config+0xb8>)
 8001a4a:	f005 fcc3 	bl	80073d4 <LL_SetSystemCoreClock>
}
 8001a4e:	bf00      	nop
 8001a50:	bd80      	pop	{r7, pc}
 8001a52:	bf00      	nop
 8001a54:	04c4b400 	.word	0x04c4b400

08001a58 <LL_GPIO_SetOutputPin>:
{
 8001a58:	b480      	push	{r7}
 8001a5a:	b083      	sub	sp, #12
 8001a5c:	af00      	add	r7, sp, #0
 8001a5e:	6078      	str	r0, [r7, #4]
 8001a60:	6039      	str	r1, [r7, #0]
  WRITE_REG(GPIOx->BSRR, PinMask);
 8001a62:	687b      	ldr	r3, [r7, #4]
 8001a64:	683a      	ldr	r2, [r7, #0]
 8001a66:	619a      	str	r2, [r3, #24]
}
 8001a68:	bf00      	nop
 8001a6a:	370c      	adds	r7, #12
 8001a6c:	46bd      	mov	sp, r7
 8001a6e:	f85d 7b04 	ldr.w	r7, [sp], #4
 8001a72:	4770      	bx	lr

08001a74 <LL_GPIO_ResetOutputPin>:
{
 8001a74:	b480      	push	{r7}
 8001a76:	b083      	sub	sp, #12
 8001a78:	af00      	add	r7, sp, #0
 8001a7a:	6078      	str	r0, [r7, #4]
 8001a7c:	6039      	str	r1, [r7, #0]
  WRITE_REG(GPIOx->BRR, PinMask);
 8001a7e:	687b      	ldr	r3, [r7, #4]
 8001a80:	683a      	ldr	r2, [r7, #0]
 8001a82:	629a      	str	r2, [r3, #40]	@ 0x28
}
 8001a84:	bf00      	nop
 8001a86:	370c      	adds	r7, #12
 8001a88:	46bd      	mov	sp, r7
 8001a8a:	f85d 7b04 	ldr.w	r7, [sp], #4
 8001a8e:	4770      	bx	lr

08001a90 <LL_ADC_REG_StartConversion>:
  * @rmtoll CR       ADSTART        LL_ADC_REG_StartConversion
  * @param  ADCx ADC instance
  * @retval None
  */
__STATIC_INLINE void LL_ADC_REG_StartConversion(ADC_TypeDef *ADCx)
{
 8001a90:	b480      	push	{r7}
 8001a92:	b083      	sub	sp, #12
 8001a94:	af00      	add	r7, sp, #0
 8001a96:	6078      	str	r0, [r7, #4]
  /* Note: Write register with some additional bits forced to state reset     */
  /*       instead of modifying only the selected bit for this function,      */
  /*       to not interfere with bits with HW property "rs".                  */
  MODIFY_REG(ADCx->CR,
 8001a98:	687b      	ldr	r3, [r7, #4]
 8001a9a:	689b      	ldr	r3, [r3, #8]
 8001a9c:	f023 4300 	bic.w	r3, r3, #2147483648	@ 0x80000000
 8001aa0:	f023 033f 	bic.w	r3, r3, #63	@ 0x3f
 8001aa4:	f043 0204 	orr.w	r2, r3, #4
 8001aa8:	687b      	ldr	r3, [r7, #4]
 8001aaa:	609a      	str	r2, [r3, #8]
             ADC_CR_BITS_PROPERTY_RS,
             ADC_CR_ADSTART);
}
 8001aac:	bf00      	nop
 8001aae:	370c      	adds	r7, #12
 8001ab0:	46bd      	mov	sp, r7
 8001ab2:	f85d 7b04 	ldr.w	r7, [sp], #4
 8001ab6:	4770      	bx	lr

08001ab8 <LL_ADC_REG_ReadConversionData12>:
  * @rmtoll DR       RDATA          LL_ADC_REG_ReadConversionData12
  * @param  ADCx ADC instance
  * @retval Value between Min_Data=0x000 and Max_Data=0xFFF
  */
__STATIC_INLINE uint16_t LL_ADC_REG_ReadConversionData12(ADC_TypeDef *ADCx)
{
 8001ab8:	b480      	push	{r7}
 8001aba:	b083      	sub	sp, #12
 8001abc:	af00      	add	r7, sp, #0
 8001abe:	6078      	str	r0, [r7, #4]
  return (uint16_t)(READ_BIT(ADCx->DR, ADC_DR_RDATA));
 8001ac0:	687b      	ldr	r3, [r7, #4]
 8001ac2:	6c1b      	ldr	r3, [r3, #64]	@ 0x40
 8001ac4:	b29b      	uxth	r3, r3
}
 8001ac6:	4618      	mov	r0, r3
 8001ac8:	370c      	adds	r7, #12
 8001aca:	46bd      	mov	sp, r7
 8001acc:	f85d 7b04 	ldr.w	r7, [sp], #4
 8001ad0:	4770      	bx	lr

08001ad2 <LL_ADC_IsActiveFlag_EOC>:
  * @rmtoll ISR      EOC            LL_ADC_IsActiveFlag_EOC
  * @param  ADCx ADC instance
  * @retval State of bit (1 or 0).
  */
__STATIC_INLINE uint32_t LL_ADC_IsActiveFlag_EOC(ADC_TypeDef *ADCx)
{
 8001ad2:	b480      	push	{r7}
 8001ad4:	b083      	sub	sp, #12
 8001ad6:	af00      	add	r7, sp, #0
 8001ad8:	6078      	str	r0, [r7, #4]
  return ((READ_BIT(ADCx->ISR, ADC_ISR_EOC) == (ADC_ISR_EOC)) ? 1UL : 0UL);
 8001ada:	687b      	ldr	r3, [r7, #4]
 8001adc:	681b      	ldr	r3, [r3, #0]
 8001ade:	f003 0304 	and.w	r3, r3, #4
 8001ae2:	2b04      	cmp	r3, #4
 8001ae4:	d101      	bne.n	8001aea <LL_ADC_IsActiveFlag_EOC+0x18>
 8001ae6:	2301      	movs	r3, #1
 8001ae8:	e000      	b.n	8001aec <LL_ADC_IsActiveFlag_EOC+0x1a>
 8001aea:	2300      	movs	r3, #0
}
 8001aec:	4618      	mov	r0, r3
 8001aee:	370c      	adds	r7, #12
 8001af0:	46bd      	mov	sp, r7
 8001af2:	f85d 7b04 	ldr.w	r7, [sp], #4
 8001af6:	4770      	bx	lr

08001af8 <LL_ADC_ClearFlag_EOC>:
  * @rmtoll ISR      EOC            LL_ADC_ClearFlag_EOC
  * @param  ADCx ADC instance
  * @retval None
  */
__STATIC_INLINE void LL_ADC_ClearFlag_EOC(ADC_TypeDef *ADCx)
{
 8001af8:	b480      	push	{r7}
 8001afa:	b083      	sub	sp, #12
 8001afc:	af00      	add	r7, sp, #0
 8001afe:	6078      	str	r0, [r7, #4]
  WRITE_REG(ADCx->ISR, LL_ADC_FLAG_EOC);
 8001b00:	687b      	ldr	r3, [r7, #4]
 8001b02:	2204      	movs	r2, #4
 8001b04:	601a      	str	r2, [r3, #0]
}
 8001b06:	bf00      	nop
 8001b08:	370c      	adds	r7, #12
 8001b0a:	46bd      	mov	sp, r7
 8001b0c:	f85d 7b04 	ldr.w	r7, [sp], #4
 8001b10:	4770      	bx	lr

08001b12 <LL_SPI_ReceiveData8>:
  * @rmtoll DR           DR            LL_SPI_ReceiveData8
  * @param  SPIx SPI Instance
  * @retval RxData Value between Min_Data=0x00 and Max_Data=0xFF
  */
__STATIC_INLINE uint8_t LL_SPI_ReceiveData8(SPI_TypeDef *SPIx)
{
 8001b12:	b480      	push	{r7}
 8001b14:	b083      	sub	sp, #12
 8001b16:	af00      	add	r7, sp, #0
 8001b18:	6078      	str	r0, [r7, #4]
  return (*((__IO uint8_t *)&SPIx->DR));
 8001b1a:	687b      	ldr	r3, [r7, #4]
 8001b1c:	330c      	adds	r3, #12
 8001b1e:	781b      	ldrb	r3, [r3, #0]
 8001b20:	b2db      	uxtb	r3, r3
}
 8001b22:	4618      	mov	r0, r3
 8001b24:	370c      	adds	r7, #12
 8001b26:	46bd      	mov	sp, r7
 8001b28:	f85d 7b04 	ldr.w	r7, [sp], #4
 8001b2c:	4770      	bx	lr

08001b2e <LL_SPI_TransmitData8>:
  * @param  SPIx SPI Instance
  * @param  TxData Value between Min_Data=0x00 and Max_Data=0xFF
  * @retval None
  */
__STATIC_INLINE void LL_SPI_TransmitData8(SPI_TypeDef *SPIx, uint8_t TxData)
{
 8001b2e:	b480      	push	{r7}
 8001b30:	b085      	sub	sp, #20
 8001b32:	af00      	add	r7, sp, #0
 8001b34:	6078      	str	r0, [r7, #4]
 8001b36:	460b      	mov	r3, r1
 8001b38:	70fb      	strb	r3, [r7, #3]
#if defined (__GNUC__)
  __IO uint8_t *spidr = ((__IO uint8_t *)&SPIx->DR);
 8001b3a:	687b      	ldr	r3, [r7, #4]
 8001b3c:	330c      	adds	r3, #12
 8001b3e:	60fb      	str	r3, [r7, #12]
  *spidr = TxData;
 8001b40:	68fb      	ldr	r3, [r7, #12]
 8001b42:	78fa      	ldrb	r2, [r7, #3]
 8001b44:	701a      	strb	r2, [r3, #0]
#else
  *((__IO uint8_t *)&SPIx->DR) = TxData;
#endif /* __GNUC__ */
}
 8001b46:	bf00      	nop
 8001b48:	3714      	adds	r7, #20
 8001b4a:	46bd      	mov	sp, r7
 8001b4c:	f85d 7b04 	ldr.w	r7, [sp], #4
 8001b50:	4770      	bx	lr
	...

08001b54 <RunProsthesisControl>:
/*******************************************************************************
* PUBLIC FUNCTIONS
*******************************************************************************/

void RunProsthesisControl (void)
{
 8001b54:	b580      	push	{r7, lr}
 8001b56:	af00      	add	r7, sp, #0
	GetInputs();
 8001b58:	f000 f842 	bl	8001be0 <GetInputs>
	ProcessInputs();
 8001b5c:	f000 f8d6 	bl	8001d0c <ProcessInputs>

	// If test program is required, run test program
	// Otherwise continue prosthesis control
	if (isTestProgramRequired)
 8001b60:	4b0f      	ldr	r3, [pc, #60]	@ (8001ba0 <RunProsthesisControl+0x4c>)
 8001b62:	781b      	ldrb	r3, [r3, #0]
 8001b64:	2b00      	cmp	r3, #0
 8001b66:	d002      	beq.n	8001b6e <RunProsthesisControl+0x1a>
	{
		RunTestProgram();
 8001b68:	f000 fcc4 	bl	80024f4 <RunTestProgram>
 8001b6c:	e003      	b.n	8001b76 <RunProsthesisControl+0x22>
	}
	else
	{
		RunStateMachine();
 8001b6e:	f000 fc47 	bl	8002400 <RunStateMachine>
		RunImpedanceControl();
 8001b72:	f000 fc61 	bl	8002438 <RunImpedanceControl>
	}

	// Check for first or second executions, needed for derivatives, filters, etc.
	if (isFirst)
 8001b76:	4b0b      	ldr	r3, [pc, #44]	@ (8001ba4 <RunProsthesisControl+0x50>)
 8001b78:	781b      	ldrb	r3, [r3, #0]
 8001b7a:	2b00      	cmp	r3, #0
 8001b7c:	d006      	beq.n	8001b8c <RunProsthesisControl+0x38>
	{
		isFirst = 0;
 8001b7e:	4b09      	ldr	r3, [pc, #36]	@ (8001ba4 <RunProsthesisControl+0x50>)
 8001b80:	2200      	movs	r2, #0
 8001b82:	701a      	strb	r2, [r3, #0]
		isSecond = 1;
 8001b84:	4b08      	ldr	r3, [pc, #32]	@ (8001ba8 <RunProsthesisControl+0x54>)
 8001b86:	2201      	movs	r2, #1
 8001b88:	701a      	strb	r2, [r3, #0]
	}
	else if (isSecond)
	{
		isSecond = 0;
	}
}
 8001b8a:	e006      	b.n	8001b9a <RunProsthesisControl+0x46>
	else if (isSecond)
 8001b8c:	4b06      	ldr	r3, [pc, #24]	@ (8001ba8 <RunProsthesisControl+0x54>)
 8001b8e:	781b      	ldrb	r3, [r3, #0]
 8001b90:	2b00      	cmp	r3, #0
 8001b92:	d002      	beq.n	8001b9a <RunProsthesisControl+0x46>
		isSecond = 0;
 8001b94:	4b04      	ldr	r3, [pc, #16]	@ (8001ba8 <RunProsthesisControl+0x54>)
 8001b96:	2200      	movs	r2, #0
 8001b98:	701a      	strb	r2, [r3, #0]
}
 8001b9a:	bf00      	nop
 8001b9c:	bd80      	pop	{r7, pc}
 8001b9e:	bf00      	nop
 8001ba0:	20000075 	.word	0x20000075
 8001ba4:	20000008 	.word	0x20000008
 8001ba8:	20000074 	.word	0x20000074

08001bac <RequireTestProgram>:

void RequireTestProgram ( enum TestPrograms_e option )
{
 8001bac:	b480      	push	{r7}
 8001bae:	b083      	sub	sp, #12
 8001bb0:	af00      	add	r7, sp, #0
 8001bb2:	4603      	mov	r3, r0
 8001bb4:	71fb      	strb	r3, [r7, #7]
	testProgram = option;
 8001bb6:	4a08      	ldr	r2, [pc, #32]	@ (8001bd8 <RequireTestProgram+0x2c>)
 8001bb8:	79fb      	ldrb	r3, [r7, #7]
 8001bba:	7013      	strb	r3, [r2, #0]

	if ( testProgram != None )
 8001bbc:	4b06      	ldr	r3, [pc, #24]	@ (8001bd8 <RequireTestProgram+0x2c>)
 8001bbe:	781b      	ldrb	r3, [r3, #0]
 8001bc0:	2b00      	cmp	r3, #0
 8001bc2:	d002      	beq.n	8001bca <RequireTestProgram+0x1e>
		isTestProgramRequired = 1;
 8001bc4:	4b05      	ldr	r3, [pc, #20]	@ (8001bdc <RequireTestProgram+0x30>)
 8001bc6:	2201      	movs	r2, #1
 8001bc8:	701a      	strb	r2, [r3, #0]
}
 8001bca:	bf00      	nop
 8001bcc:	370c      	adds	r7, #12
 8001bce:	46bd      	mov	sp, r7
 8001bd0:	f85d 7b04 	ldr.w	r7, [sp], #4
 8001bd4:	4770      	bx	lr
 8001bd6:	bf00      	nop
 8001bd8:	20000065 	.word	0x20000065
 8001bdc:	20000075 	.word	0x20000075

08001be0 <GetInputs>:
/*******************************************************************************
* PRIVATE FUNCTIONS
*******************************************************************************/

static void GetInputs (void)
{
 8001be0:	b5b0      	push	{r4, r5, r7, lr}
 8001be2:	b08e      	sub	sp, #56	@ 0x38
 8001be4:	af00      	add	r7, sp, #0
	float encBias_deg = 1325.0f * 360.0f/4096.0f;	// Bias found using RunTestProgram below
 8001be6:	4b33      	ldr	r3, [pc, #204]	@ (8001cb4 <GetInputs+0xd4>)
 8001be8:	637b      	str	r3, [r7, #52]	@ 0x34

	CM_jointAngle_deg[0] = AS5145B_ReadPosition_Deg() - encBias_deg;
 8001bea:	f001 faaf 	bl	800314c <AS5145B_ReadPosition_Deg>
 8001bee:	eeb0 7a40 	vmov.f32	s14, s0
 8001bf2:	edd7 7a0d 	vldr	s15, [r7, #52]	@ 0x34
 8001bf6:	ee77 7a67 	vsub.f32	s15, s14, s15
 8001bfa:	4b2f      	ldr	r3, [pc, #188]	@ (8001cb8 <GetInputs+0xd8>)
 8001bfc:	edc3 7a00 	vstr	s15, [r3]
	CM_loadCell_bot[0] = ReadLoadCell(ADC2);
 8001c00:	482e      	ldr	r0, [pc, #184]	@ (8001cbc <GetInputs+0xdc>)
 8001c02:	f000 f867 	bl	8001cd4 <ReadLoadCell>
 8001c06:	4603      	mov	r3, r0
 8001c08:	461a      	mov	r2, r3
 8001c0a:	4b2d      	ldr	r3, [pc, #180]	@ (8001cc0 <GetInputs+0xe0>)
 8001c0c:	801a      	strh	r2, [r3, #0]
	CM_loadCell_top[0] = ReadLoadCell(ADC1);
 8001c0e:	482d      	ldr	r0, [pc, #180]	@ (8001cc4 <GetInputs+0xe4>)
 8001c10:	f000 f860 	bl	8001cd4 <ReadLoadCell>
 8001c14:	4603      	mov	r3, r0
 8001c16:	461a      	mov	r2, r3
 8001c18:	4b2b      	ldr	r3, [pc, #172]	@ (8001cc8 <GetInputs+0xe8>)
 8001c1a:	801a      	strh	r2, [r3, #0]
	imu_data = IMU_read();
 8001c1c:	4c2b      	ldr	r4, [pc, #172]	@ (8001ccc <GetInputs+0xec>)
 8001c1e:	463b      	mov	r3, r7
 8001c20:	4618      	mov	r0, r3
 8001c22:	f000 fcfd 	bl	8002620 <IMU_read>
 8001c26:	4625      	mov	r5, r4
 8001c28:	463c      	mov	r4, r7
 8001c2a:	cc0f      	ldmia	r4!, {r0, r1, r2, r3}
 8001c2c:	c50f      	stmia	r5!, {r0, r1, r2, r3}
 8001c2e:	cc0f      	ldmia	r4!, {r0, r1, r2, r3}
 8001c30:	c50f      	stmia	r5!, {r0, r1, r2, r3}
 8001c32:	e894 000f 	ldmia.w	r4, {r0, r1, r2, r3}
 8001c36:	e885 000f 	stmia.w	r5, {r0, r1, r2, r3}

	// DMP??
	mpu9255_process();
 8001c3a:	f004 f8a9 	bl	8005d90 <mpu9255_process>
	dmp_data_t *dmp_data = mpu9255_getLast();
 8001c3e:	f004 f877 	bl	8005d30 <mpu9255_getLast>
 8001c42:	6338      	str	r0, [r7, #48]	@ 0x30
	if (dmp_data->sensors != 0) {
 8001c44:	6b3b      	ldr	r3, [r7, #48]	@ 0x30
 8001c46:	f9b3 3020 	ldrsh.w	r3, [r3, #32]
 8001c4a:	2b00      	cmp	r3, #0
 8001c4c:	d02d      	beq.n	8001caa <GetInputs+0xca>
		CM_dmp_data.ax_g = dmp_data->acceleration.data.x;
 8001c4e:	6b3b      	ldr	r3, [r7, #48]	@ 0x30
 8001c50:	f9b3 2000 	ldrsh.w	r2, [r3]
 8001c54:	4b1e      	ldr	r3, [pc, #120]	@ (8001cd0 <GetInputs+0xf0>)
 8001c56:	801a      	strh	r2, [r3, #0]
		CM_dmp_data.ay_g = dmp_data->acceleration.data.y;
 8001c58:	6b3b      	ldr	r3, [r7, #48]	@ 0x30
 8001c5a:	f9b3 2002 	ldrsh.w	r2, [r3, #2]
 8001c5e:	4b1c      	ldr	r3, [pc, #112]	@ (8001cd0 <GetInputs+0xf0>)
 8001c60:	805a      	strh	r2, [r3, #2]
		CM_dmp_data.az_g = dmp_data->acceleration.data.z;
 8001c62:	6b3b      	ldr	r3, [r7, #48]	@ 0x30
 8001c64:	f9b3 2004 	ldrsh.w	r2, [r3, #4]
 8001c68:	4b19      	ldr	r3, [pc, #100]	@ (8001cd0 <GetInputs+0xf0>)
 8001c6a:	809a      	strh	r2, [r3, #4]
		CM_dmp_data.gx_dps = dmp_data->gyro.data.x;
 8001c6c:	6b3b      	ldr	r3, [r7, #48]	@ 0x30
 8001c6e:	f9b3 2006 	ldrsh.w	r2, [r3, #6]
 8001c72:	4b17      	ldr	r3, [pc, #92]	@ (8001cd0 <GetInputs+0xf0>)
 8001c74:	80da      	strh	r2, [r3, #6]
		CM_dmp_data.gy_dps = dmp_data->gyro.data.y;
 8001c76:	6b3b      	ldr	r3, [r7, #48]	@ 0x30
 8001c78:	f9b3 2008 	ldrsh.w	r2, [r3, #8]
 8001c7c:	4b14      	ldr	r3, [pc, #80]	@ (8001cd0 <GetInputs+0xf0>)
 8001c7e:	811a      	strh	r2, [r3, #8]
		CM_dmp_data.gz_dps = dmp_data->gyro.data.z;
 8001c80:	6b3b      	ldr	r3, [r7, #48]	@ 0x30
 8001c82:	f9b3 200a 	ldrsh.w	r2, [r3, #10]
 8001c86:	4b12      	ldr	r3, [pc, #72]	@ (8001cd0 <GetInputs+0xf0>)
 8001c88:	815a      	strh	r2, [r3, #10]
		CM_dmp_data.qw = dmp_data->quaternarion.data.w;
 8001c8a:	6b3b      	ldr	r3, [r7, #48]	@ 0x30
 8001c8c:	68db      	ldr	r3, [r3, #12]
 8001c8e:	4a10      	ldr	r2, [pc, #64]	@ (8001cd0 <GetInputs+0xf0>)
 8001c90:	60d3      	str	r3, [r2, #12]
		CM_dmp_data.qx = dmp_data->quaternarion.data.x;
 8001c92:	6b3b      	ldr	r3, [r7, #48]	@ 0x30
 8001c94:	691b      	ldr	r3, [r3, #16]
 8001c96:	4a0e      	ldr	r2, [pc, #56]	@ (8001cd0 <GetInputs+0xf0>)
 8001c98:	6113      	str	r3, [r2, #16]
		CM_dmp_data.qy = dmp_data->quaternarion.data.y;
 8001c9a:	6b3b      	ldr	r3, [r7, #48]	@ 0x30
 8001c9c:	695b      	ldr	r3, [r3, #20]
 8001c9e:	4a0c      	ldr	r2, [pc, #48]	@ (8001cd0 <GetInputs+0xf0>)
 8001ca0:	6153      	str	r3, [r2, #20]
		CM_dmp_data.qz = dmp_data->quaternarion.data.z;
 8001ca2:	6b3b      	ldr	r3, [r7, #48]	@ 0x30
 8001ca4:	699b      	ldr	r3, [r3, #24]
 8001ca6:	4a0a      	ldr	r2, [pc, #40]	@ (8001cd0 <GetInputs+0xf0>)
 8001ca8:	6193      	str	r3, [r2, #24]
	}
}
 8001caa:	bf00      	nop
 8001cac:	3738      	adds	r7, #56	@ 0x38
 8001cae:	46bd      	mov	sp, r7
 8001cb0:	bdb0      	pop	{r4, r5, r7, pc}
 8001cb2:	bf00      	nop
 8001cb4:	42e8e900 	.word	0x42e8e900
 8001cb8:	20000078 	.word	0x20000078
 8001cbc:	50040100 	.word	0x50040100
 8001cc0:	2000008c 	.word	0x2000008c
 8001cc4:	50040000 	.word	0x50040000
 8001cc8:	20000094 	.word	0x20000094
 8001ccc:	200000b0 	.word	0x200000b0
 8001cd0:	20000110 	.word	0x20000110

08001cd4 <ReadLoadCell>:

static uint16_t ReadLoadCell ( ADC_TypeDef *ADCx )
{
 8001cd4:	b580      	push	{r7, lr}
 8001cd6:	b084      	sub	sp, #16
 8001cd8:	af00      	add	r7, sp, #0
 8001cda:	6078      	str	r0, [r7, #4]
	LL_ADC_REG_StartConversion(ADCx);
 8001cdc:	6878      	ldr	r0, [r7, #4]
 8001cde:	f7ff fed7 	bl	8001a90 <LL_ADC_REG_StartConversion>
	while ( !LL_ADC_IsActiveFlag_EOC(ADCx) );
 8001ce2:	bf00      	nop
 8001ce4:	6878      	ldr	r0, [r7, #4]
 8001ce6:	f7ff fef4 	bl	8001ad2 <LL_ADC_IsActiveFlag_EOC>
 8001cea:	4603      	mov	r3, r0
 8001cec:	2b00      	cmp	r3, #0
 8001cee:	d0f9      	beq.n	8001ce4 <ReadLoadCell+0x10>
	LL_ADC_ClearFlag_EOC(ADCx);								// remove this??
 8001cf0:	6878      	ldr	r0, [r7, #4]
 8001cf2:	f7ff ff01 	bl	8001af8 <LL_ADC_ClearFlag_EOC>
	uint16_t val = LL_ADC_REG_ReadConversionData12(ADCx);	// Change resolution??
 8001cf6:	6878      	ldr	r0, [r7, #4]
 8001cf8:	f7ff fede 	bl	8001ab8 <LL_ADC_REG_ReadConversionData12>
 8001cfc:	4603      	mov	r3, r0
 8001cfe:	81fb      	strh	r3, [r7, #14]
	return val;
 8001d00:	89fb      	ldrh	r3, [r7, #14]
}
 8001d02:	4618      	mov	r0, r3
 8001d04:	3710      	adds	r7, #16
 8001d06:	46bd      	mov	sp, r7
 8001d08:	bd80      	pop	{r7, pc}
	...

08001d0c <ProcessInputs>:

static void ProcessInputs (void)
{
 8001d0c:	b580      	push	{r7, lr}
 8001d0e:	b082      	sub	sp, #8
 8001d10:	af00      	add	r7, sp, #0
	float tau = 1 / ( 2 * 3.1416f * 10 );	// Time constant for practical differentiator (fc = 10 Hz)
 8001d12:	4bab      	ldr	r3, [pc, #684]	@ (8001fc0 <ProcessInputs+0x2b4>)
 8001d14:	607b      	str	r3, [r7, #4]

	// Derivative of angle and filtering of load cells
	// No derivative of angle (angular speed) on first execution
	// No filtering of load cells on first or second execution
	if (isFirst)
 8001d16:	4bab      	ldr	r3, [pc, #684]	@ (8001fc4 <ProcessInputs+0x2b8>)
 8001d18:	781b      	ldrb	r3, [r3, #0]
 8001d1a:	2b00      	cmp	r3, #0
 8001d1c:	d020      	beq.n	8001d60 <ProcessInputs+0x54>
	{
		CM_jointSpeed_dps = 0;
 8001d1e:	4baa      	ldr	r3, [pc, #680]	@ (8001fc8 <ProcessInputs+0x2bc>)
 8001d20:	f04f 0200 	mov.w	r2, #0
 8001d24:	601a      	str	r2, [r3, #0]

		// Shift values in arrays
		CM_jointAngle_deg[1] = CM_jointAngle_deg[0];
 8001d26:	4ba9      	ldr	r3, [pc, #676]	@ (8001fcc <ProcessInputs+0x2c0>)
 8001d28:	681b      	ldr	r3, [r3, #0]
 8001d2a:	4aa8      	ldr	r2, [pc, #672]	@ (8001fcc <ProcessInputs+0x2c0>)
 8001d2c:	6053      	str	r3, [r2, #4]
		CM_loadCell_bot[2] = CM_loadCell_bot[0];
 8001d2e:	4ba8      	ldr	r3, [pc, #672]	@ (8001fd0 <ProcessInputs+0x2c4>)
 8001d30:	881a      	ldrh	r2, [r3, #0]
 8001d32:	4ba7      	ldr	r3, [pc, #668]	@ (8001fd0 <ProcessInputs+0x2c4>)
 8001d34:	809a      	strh	r2, [r3, #4]
		CM_loadCell_top[2] = CM_loadCell_top[0];
 8001d36:	4ba7      	ldr	r3, [pc, #668]	@ (8001fd4 <ProcessInputs+0x2c8>)
 8001d38:	881a      	ldrh	r2, [r3, #0]
 8001d3a:	4ba6      	ldr	r3, [pc, #664]	@ (8001fd4 <ProcessInputs+0x2c8>)
 8001d3c:	809a      	strh	r2, [r3, #4]
		CM_loadCell_bot_filtered[0] = CM_loadCell_bot[0];
 8001d3e:	4ba4      	ldr	r3, [pc, #656]	@ (8001fd0 <ProcessInputs+0x2c4>)
 8001d40:	881a      	ldrh	r2, [r3, #0]
 8001d42:	4ba5      	ldr	r3, [pc, #660]	@ (8001fd8 <ProcessInputs+0x2cc>)
 8001d44:	801a      	strh	r2, [r3, #0]
		CM_loadCell_top_filtered[0] = CM_loadCell_top[0];
 8001d46:	4ba3      	ldr	r3, [pc, #652]	@ (8001fd4 <ProcessInputs+0x2c8>)
 8001d48:	881a      	ldrh	r2, [r3, #0]
 8001d4a:	4ba4      	ldr	r3, [pc, #656]	@ (8001fdc <ProcessInputs+0x2d0>)
 8001d4c:	801a      	strh	r2, [r3, #0]
		CM_loadCell_bot_filtered[2] = CM_loadCell_bot_filtered[0];
 8001d4e:	4ba2      	ldr	r3, [pc, #648]	@ (8001fd8 <ProcessInputs+0x2cc>)
 8001d50:	881a      	ldrh	r2, [r3, #0]
 8001d52:	4ba1      	ldr	r3, [pc, #644]	@ (8001fd8 <ProcessInputs+0x2cc>)
 8001d54:	809a      	strh	r2, [r3, #4]
		CM_loadCell_top_filtered[2] = CM_loadCell_top_filtered[0];
 8001d56:	4ba1      	ldr	r3, [pc, #644]	@ (8001fdc <ProcessInputs+0x2d0>)
 8001d58:	881a      	ldrh	r2, [r3, #0]
 8001d5a:	4ba0      	ldr	r3, [pc, #640]	@ (8001fdc <ProcessInputs+0x2d0>)
 8001d5c:	809a      	strh	r2, [r3, #4]
 8001d5e:	e126      	b.n	8001fae <ProcessInputs+0x2a2>
	}
	else if (isSecond)
 8001d60:	4b9f      	ldr	r3, [pc, #636]	@ (8001fe0 <ProcessInputs+0x2d4>)
 8001d62:	781b      	ldrb	r3, [r3, #0]
 8001d64:	2b00      	cmp	r3, #0
 8001d66:	d044      	beq.n	8001df2 <ProcessInputs+0xe6>
	{
		// Practical differentiator (bilinear transformation used)
		CM_jointSpeed_dps = ( 2*( CM_jointAngle_deg[0] - CM_jointAngle_deg[1] ) + ( 2*tau - dt )*CM_jointSpeed_dps ) / ( dt + 2*tau );
 8001d68:	4b98      	ldr	r3, [pc, #608]	@ (8001fcc <ProcessInputs+0x2c0>)
 8001d6a:	ed93 7a00 	vldr	s14, [r3]
 8001d6e:	4b97      	ldr	r3, [pc, #604]	@ (8001fcc <ProcessInputs+0x2c0>)
 8001d70:	edd3 7a01 	vldr	s15, [r3, #4]
 8001d74:	ee77 7a67 	vsub.f32	s15, s14, s15
 8001d78:	ee37 7aa7 	vadd.f32	s14, s15, s15
 8001d7c:	edd7 7a01 	vldr	s15, [r7, #4]
 8001d80:	ee77 6aa7 	vadd.f32	s13, s15, s15
 8001d84:	4b97      	ldr	r3, [pc, #604]	@ (8001fe4 <ProcessInputs+0x2d8>)
 8001d86:	edd3 7a00 	vldr	s15, [r3]
 8001d8a:	ee76 6ae7 	vsub.f32	s13, s13, s15
 8001d8e:	4b8e      	ldr	r3, [pc, #568]	@ (8001fc8 <ProcessInputs+0x2bc>)
 8001d90:	edd3 7a00 	vldr	s15, [r3]
 8001d94:	ee66 7aa7 	vmul.f32	s15, s13, s15
 8001d98:	ee77 6a27 	vadd.f32	s13, s14, s15
 8001d9c:	edd7 7a01 	vldr	s15, [r7, #4]
 8001da0:	ee37 7aa7 	vadd.f32	s14, s15, s15
 8001da4:	4b8f      	ldr	r3, [pc, #572]	@ (8001fe4 <ProcessInputs+0x2d8>)
 8001da6:	edd3 7a00 	vldr	s15, [r3]
 8001daa:	ee37 7a27 	vadd.f32	s14, s14, s15
 8001dae:	eec6 7a87 	vdiv.f32	s15, s13, s14
 8001db2:	4b85      	ldr	r3, [pc, #532]	@ (8001fc8 <ProcessInputs+0x2bc>)
 8001db4:	edc3 7a00 	vstr	s15, [r3]

		// Shift values in arrays
		CM_jointAngle_deg[1] = CM_jointAngle_deg[0];
 8001db8:	4b84      	ldr	r3, [pc, #528]	@ (8001fcc <ProcessInputs+0x2c0>)
 8001dba:	681b      	ldr	r3, [r3, #0]
 8001dbc:	4a83      	ldr	r2, [pc, #524]	@ (8001fcc <ProcessInputs+0x2c0>)
 8001dbe:	6053      	str	r3, [r2, #4]
		CM_loadCell_bot[1] = CM_loadCell_bot[0];
 8001dc0:	4b83      	ldr	r3, [pc, #524]	@ (8001fd0 <ProcessInputs+0x2c4>)
 8001dc2:	881a      	ldrh	r2, [r3, #0]
 8001dc4:	4b82      	ldr	r3, [pc, #520]	@ (8001fd0 <ProcessInputs+0x2c4>)
 8001dc6:	805a      	strh	r2, [r3, #2]
		CM_loadCell_top[1] = CM_loadCell_top[0];
 8001dc8:	4b82      	ldr	r3, [pc, #520]	@ (8001fd4 <ProcessInputs+0x2c8>)
 8001dca:	881a      	ldrh	r2, [r3, #0]
 8001dcc:	4b81      	ldr	r3, [pc, #516]	@ (8001fd4 <ProcessInputs+0x2c8>)
 8001dce:	805a      	strh	r2, [r3, #2]
		CM_loadCell_bot_filtered[0] = CM_loadCell_bot[0];
 8001dd0:	4b7f      	ldr	r3, [pc, #508]	@ (8001fd0 <ProcessInputs+0x2c4>)
 8001dd2:	881a      	ldrh	r2, [r3, #0]
 8001dd4:	4b80      	ldr	r3, [pc, #512]	@ (8001fd8 <ProcessInputs+0x2cc>)
 8001dd6:	801a      	strh	r2, [r3, #0]
		CM_loadCell_top_filtered[0] = CM_loadCell_top[0];
 8001dd8:	4b7e      	ldr	r3, [pc, #504]	@ (8001fd4 <ProcessInputs+0x2c8>)
 8001dda:	881a      	ldrh	r2, [r3, #0]
 8001ddc:	4b7f      	ldr	r3, [pc, #508]	@ (8001fdc <ProcessInputs+0x2d0>)
 8001dde:	801a      	strh	r2, [r3, #0]
		CM_loadCell_bot_filtered[1] = CM_loadCell_bot_filtered[0];
 8001de0:	4b7d      	ldr	r3, [pc, #500]	@ (8001fd8 <ProcessInputs+0x2cc>)
 8001de2:	881a      	ldrh	r2, [r3, #0]
 8001de4:	4b7c      	ldr	r3, [pc, #496]	@ (8001fd8 <ProcessInputs+0x2cc>)
 8001de6:	805a      	strh	r2, [r3, #2]
		CM_loadCell_top_filtered[1] = CM_loadCell_top_filtered[0];
 8001de8:	4b7c      	ldr	r3, [pc, #496]	@ (8001fdc <ProcessInputs+0x2d0>)
 8001dea:	881a      	ldrh	r2, [r3, #0]
 8001dec:	4b7b      	ldr	r3, [pc, #492]	@ (8001fdc <ProcessInputs+0x2d0>)
 8001dee:	805a      	strh	r2, [r3, #2]
 8001df0:	e0dd      	b.n	8001fae <ProcessInputs+0x2a2>
	}
	else
	{
		// Practical differentiator (bilinear transformation used)
		CM_jointSpeed_dps = ( 2*( CM_jointAngle_deg[0] - CM_jointAngle_deg[1] ) + ( 2*tau - dt )*CM_jointSpeed_dps ) / ( dt + 2*tau );
 8001df2:	4b76      	ldr	r3, [pc, #472]	@ (8001fcc <ProcessInputs+0x2c0>)
 8001df4:	ed93 7a00 	vldr	s14, [r3]
 8001df8:	4b74      	ldr	r3, [pc, #464]	@ (8001fcc <ProcessInputs+0x2c0>)
 8001dfa:	edd3 7a01 	vldr	s15, [r3, #4]
 8001dfe:	ee77 7a67 	vsub.f32	s15, s14, s15
 8001e02:	ee37 7aa7 	vadd.f32	s14, s15, s15
 8001e06:	edd7 7a01 	vldr	s15, [r7, #4]
 8001e0a:	ee77 6aa7 	vadd.f32	s13, s15, s15
 8001e0e:	4b75      	ldr	r3, [pc, #468]	@ (8001fe4 <ProcessInputs+0x2d8>)
 8001e10:	edd3 7a00 	vldr	s15, [r3]
 8001e14:	ee76 6ae7 	vsub.f32	s13, s13, s15
 8001e18:	4b6b      	ldr	r3, [pc, #428]	@ (8001fc8 <ProcessInputs+0x2bc>)
 8001e1a:	edd3 7a00 	vldr	s15, [r3]
 8001e1e:	ee66 7aa7 	vmul.f32	s15, s13, s15
 8001e22:	ee77 6a27 	vadd.f32	s13, s14, s15
 8001e26:	edd7 7a01 	vldr	s15, [r7, #4]
 8001e2a:	ee37 7aa7 	vadd.f32	s14, s15, s15
 8001e2e:	4b6d      	ldr	r3, [pc, #436]	@ (8001fe4 <ProcessInputs+0x2d8>)
 8001e30:	edd3 7a00 	vldr	s15, [r3]
 8001e34:	ee37 7a27 	vadd.f32	s14, s14, s15
 8001e38:	eec6 7a87 	vdiv.f32	s15, s13, s14
 8001e3c:	4b62      	ldr	r3, [pc, #392]	@ (8001fc8 <ProcessInputs+0x2bc>)
 8001e3e:	edc3 7a00 	vstr	s15, [r3]

		// 2nd order low-pass Butterworth (fc = 20 Hz)
		CM_loadCell_bot_filtered[0] =   1.6556f * CM_loadCell_bot_filtered[1] - 0.7068f * CM_loadCell_bot_filtered[2]
 8001e42:	4b65      	ldr	r3, [pc, #404]	@ (8001fd8 <ProcessInputs+0x2cc>)
 8001e44:	885b      	ldrh	r3, [r3, #2]
 8001e46:	ee07 3a90 	vmov	s15, r3
 8001e4a:	eef8 7ae7 	vcvt.f32.s32	s15, s15
 8001e4e:	ed9f 7a66 	vldr	s14, [pc, #408]	@ 8001fe8 <ProcessInputs+0x2dc>
 8001e52:	ee27 7a87 	vmul.f32	s14, s15, s14
 8001e56:	4b60      	ldr	r3, [pc, #384]	@ (8001fd8 <ProcessInputs+0x2cc>)
 8001e58:	889b      	ldrh	r3, [r3, #4]
 8001e5a:	ee07 3a90 	vmov	s15, r3
 8001e5e:	eef8 7ae7 	vcvt.f32.s32	s15, s15
 8001e62:	eddf 6a62 	vldr	s13, [pc, #392]	@ 8001fec <ProcessInputs+0x2e0>
 8001e66:	ee67 7aa6 	vmul.f32	s15, s15, s13
 8001e6a:	ee37 7a67 	vsub.f32	s14, s14, s15
									  + 0.0128f * CM_loadCell_bot[0] + 0.0256f * CM_loadCell_bot[1] + 0.0128f * CM_loadCell_bot[2];
 8001e6e:	4b58      	ldr	r3, [pc, #352]	@ (8001fd0 <ProcessInputs+0x2c4>)
 8001e70:	881b      	ldrh	r3, [r3, #0]
 8001e72:	ee07 3a90 	vmov	s15, r3
 8001e76:	eef8 7ae7 	vcvt.f32.s32	s15, s15
 8001e7a:	eddf 6a5d 	vldr	s13, [pc, #372]	@ 8001ff0 <ProcessInputs+0x2e4>
 8001e7e:	ee67 7aa6 	vmul.f32	s15, s15, s13
 8001e82:	ee37 7a27 	vadd.f32	s14, s14, s15
 8001e86:	4b52      	ldr	r3, [pc, #328]	@ (8001fd0 <ProcessInputs+0x2c4>)
 8001e88:	885b      	ldrh	r3, [r3, #2]
 8001e8a:	ee07 3a90 	vmov	s15, r3
 8001e8e:	eef8 7ae7 	vcvt.f32.s32	s15, s15
 8001e92:	eddf 6a58 	vldr	s13, [pc, #352]	@ 8001ff4 <ProcessInputs+0x2e8>
 8001e96:	ee67 7aa6 	vmul.f32	s15, s15, s13
 8001e9a:	ee37 7a27 	vadd.f32	s14, s14, s15
 8001e9e:	4b4c      	ldr	r3, [pc, #304]	@ (8001fd0 <ProcessInputs+0x2c4>)
 8001ea0:	889b      	ldrh	r3, [r3, #4]
 8001ea2:	ee07 3a90 	vmov	s15, r3
 8001ea6:	eef8 7ae7 	vcvt.f32.s32	s15, s15
 8001eaa:	eddf 6a51 	vldr	s13, [pc, #324]	@ 8001ff0 <ProcessInputs+0x2e4>
 8001eae:	ee67 7aa6 	vmul.f32	s15, s15, s13
 8001eb2:	ee77 7a27 	vadd.f32	s15, s14, s15
		CM_loadCell_bot_filtered[0] =   1.6556f * CM_loadCell_bot_filtered[1] - 0.7068f * CM_loadCell_bot_filtered[2]
 8001eb6:	eefc 7ae7 	vcvt.u32.f32	s15, s15
 8001eba:	ee17 3a90 	vmov	r3, s15
 8001ebe:	b29a      	uxth	r2, r3
 8001ec0:	4b45      	ldr	r3, [pc, #276]	@ (8001fd8 <ProcessInputs+0x2cc>)
 8001ec2:	801a      	strh	r2, [r3, #0]
		CM_loadCell_top_filtered[0] =   1.6556f * CM_loadCell_top_filtered[1] - 0.7068f * CM_loadCell_top_filtered[2]
 8001ec4:	4b45      	ldr	r3, [pc, #276]	@ (8001fdc <ProcessInputs+0x2d0>)
 8001ec6:	885b      	ldrh	r3, [r3, #2]
 8001ec8:	ee07 3a90 	vmov	s15, r3
 8001ecc:	eef8 7ae7 	vcvt.f32.s32	s15, s15
 8001ed0:	ed9f 7a45 	vldr	s14, [pc, #276]	@ 8001fe8 <ProcessInputs+0x2dc>
 8001ed4:	ee27 7a87 	vmul.f32	s14, s15, s14
 8001ed8:	4b40      	ldr	r3, [pc, #256]	@ (8001fdc <ProcessInputs+0x2d0>)
 8001eda:	889b      	ldrh	r3, [r3, #4]
 8001edc:	ee07 3a90 	vmov	s15, r3
 8001ee0:	eef8 7ae7 	vcvt.f32.s32	s15, s15
 8001ee4:	eddf 6a41 	vldr	s13, [pc, #260]	@ 8001fec <ProcessInputs+0x2e0>
 8001ee8:	ee67 7aa6 	vmul.f32	s15, s15, s13
 8001eec:	ee37 7a67 	vsub.f32	s14, s14, s15
									  + 0.0128f * CM_loadCell_top[0] + 0.0256f * CM_loadCell_top[1] + 0.0128f * CM_loadCell_top[2];
 8001ef0:	4b38      	ldr	r3, [pc, #224]	@ (8001fd4 <ProcessInputs+0x2c8>)
 8001ef2:	881b      	ldrh	r3, [r3, #0]
 8001ef4:	ee07 3a90 	vmov	s15, r3
 8001ef8:	eef8 7ae7 	vcvt.f32.s32	s15, s15
 8001efc:	eddf 6a3c 	vldr	s13, [pc, #240]	@ 8001ff0 <ProcessInputs+0x2e4>
 8001f00:	ee67 7aa6 	vmul.f32	s15, s15, s13
 8001f04:	ee37 7a27 	vadd.f32	s14, s14, s15
 8001f08:	4b32      	ldr	r3, [pc, #200]	@ (8001fd4 <ProcessInputs+0x2c8>)
 8001f0a:	885b      	ldrh	r3, [r3, #2]
 8001f0c:	ee07 3a90 	vmov	s15, r3
 8001f10:	eef8 7ae7 	vcvt.f32.s32	s15, s15
 8001f14:	eddf 6a37 	vldr	s13, [pc, #220]	@ 8001ff4 <ProcessInputs+0x2e8>
 8001f18:	ee67 7aa6 	vmul.f32	s15, s15, s13
 8001f1c:	ee37 7a27 	vadd.f32	s14, s14, s15
 8001f20:	4b2c      	ldr	r3, [pc, #176]	@ (8001fd4 <ProcessInputs+0x2c8>)
 8001f22:	889b      	ldrh	r3, [r3, #4]
 8001f24:	ee07 3a90 	vmov	s15, r3
 8001f28:	eef8 7ae7 	vcvt.f32.s32	s15, s15
 8001f2c:	eddf 6a30 	vldr	s13, [pc, #192]	@ 8001ff0 <ProcessInputs+0x2e4>
 8001f30:	ee67 7aa6 	vmul.f32	s15, s15, s13
 8001f34:	ee77 7a27 	vadd.f32	s15, s14, s15
		CM_loadCell_top_filtered[0] =   1.6556f * CM_loadCell_top_filtered[1] - 0.7068f * CM_loadCell_top_filtered[2]
 8001f38:	eefc 7ae7 	vcvt.u32.f32	s15, s15
 8001f3c:	ee17 3a90 	vmov	r3, s15
 8001f40:	b29a      	uxth	r2, r3
 8001f42:	4b26      	ldr	r3, [pc, #152]	@ (8001fdc <ProcessInputs+0x2d0>)
 8001f44:	801a      	strh	r2, [r3, #0]

		// Shift values in arrays
		CM_jointAngle_deg[1] = CM_jointAngle_deg[0];
 8001f46:	4b21      	ldr	r3, [pc, #132]	@ (8001fcc <ProcessInputs+0x2c0>)
 8001f48:	681b      	ldr	r3, [r3, #0]
 8001f4a:	4a20      	ldr	r2, [pc, #128]	@ (8001fcc <ProcessInputs+0x2c0>)
 8001f4c:	6053      	str	r3, [r2, #4]
		CM_loadCell_bot[2] = CM_loadCell_bot[1];
 8001f4e:	4b20      	ldr	r3, [pc, #128]	@ (8001fd0 <ProcessInputs+0x2c4>)
 8001f50:	885a      	ldrh	r2, [r3, #2]
 8001f52:	4b1f      	ldr	r3, [pc, #124]	@ (8001fd0 <ProcessInputs+0x2c4>)
 8001f54:	809a      	strh	r2, [r3, #4]
		CM_loadCell_top[2] = CM_loadCell_top[1];
 8001f56:	4b1f      	ldr	r3, [pc, #124]	@ (8001fd4 <ProcessInputs+0x2c8>)
 8001f58:	885a      	ldrh	r2, [r3, #2]
 8001f5a:	4b1e      	ldr	r3, [pc, #120]	@ (8001fd4 <ProcessInputs+0x2c8>)
 8001f5c:	809a      	strh	r2, [r3, #4]
		CM_loadCell_bot[1] = CM_loadCell_bot[0];
 8001f5e:	4b1c      	ldr	r3, [pc, #112]	@ (8001fd0 <ProcessInputs+0x2c4>)
 8001f60:	881a      	ldrh	r2, [r3, #0]
 8001f62:	4b1b      	ldr	r3, [pc, #108]	@ (8001fd0 <ProcessInputs+0x2c4>)
 8001f64:	805a      	strh	r2, [r3, #2]
		CM_loadCell_top[1] = CM_loadCell_top[0];
 8001f66:	4b1b      	ldr	r3, [pc, #108]	@ (8001fd4 <ProcessInputs+0x2c8>)
 8001f68:	881a      	ldrh	r2, [r3, #0]
 8001f6a:	4b1a      	ldr	r3, [pc, #104]	@ (8001fd4 <ProcessInputs+0x2c8>)
 8001f6c:	805a      	strh	r2, [r3, #2]
		CM_loadCell_bot_filtered[2] = CM_loadCell_bot[1];
 8001f6e:	4b18      	ldr	r3, [pc, #96]	@ (8001fd0 <ProcessInputs+0x2c4>)
 8001f70:	885a      	ldrh	r2, [r3, #2]
 8001f72:	4b19      	ldr	r3, [pc, #100]	@ (8001fd8 <ProcessInputs+0x2cc>)
 8001f74:	809a      	strh	r2, [r3, #4]
		CM_loadCell_top_filtered[2] = CM_loadCell_top[1];
 8001f76:	4b17      	ldr	r3, [pc, #92]	@ (8001fd4 <ProcessInputs+0x2c8>)
 8001f78:	885a      	ldrh	r2, [r3, #2]
 8001f7a:	4b18      	ldr	r3, [pc, #96]	@ (8001fdc <ProcessInputs+0x2d0>)
 8001f7c:	809a      	strh	r2, [r3, #4]
		CM_loadCell_bot_filtered[2] = CM_loadCell_bot_filtered[1];
 8001f7e:	4b16      	ldr	r3, [pc, #88]	@ (8001fd8 <ProcessInputs+0x2cc>)
 8001f80:	885a      	ldrh	r2, [r3, #2]
 8001f82:	4b15      	ldr	r3, [pc, #84]	@ (8001fd8 <ProcessInputs+0x2cc>)
 8001f84:	809a      	strh	r2, [r3, #4]
		CM_loadCell_top_filtered[2] = CM_loadCell_top_filtered[1];
 8001f86:	4b15      	ldr	r3, [pc, #84]	@ (8001fdc <ProcessInputs+0x2d0>)
 8001f88:	885a      	ldrh	r2, [r3, #2]
 8001f8a:	4b14      	ldr	r3, [pc, #80]	@ (8001fdc <ProcessInputs+0x2d0>)
 8001f8c:	809a      	strh	r2, [r3, #4]
		CM_loadCell_bot_filtered[1] = CM_loadCell_bot[0];
 8001f8e:	4b10      	ldr	r3, [pc, #64]	@ (8001fd0 <ProcessInputs+0x2c4>)
 8001f90:	881a      	ldrh	r2, [r3, #0]
 8001f92:	4b11      	ldr	r3, [pc, #68]	@ (8001fd8 <ProcessInputs+0x2cc>)
 8001f94:	805a      	strh	r2, [r3, #2]
		CM_loadCell_top_filtered[1] = CM_loadCell_top[0];
 8001f96:	4b0f      	ldr	r3, [pc, #60]	@ (8001fd4 <ProcessInputs+0x2c8>)
 8001f98:	881a      	ldrh	r2, [r3, #0]
 8001f9a:	4b10      	ldr	r3, [pc, #64]	@ (8001fdc <ProcessInputs+0x2d0>)
 8001f9c:	805a      	strh	r2, [r3, #2]
		CM_loadCell_bot_filtered[1] = CM_loadCell_bot_filtered[0];
 8001f9e:	4b0e      	ldr	r3, [pc, #56]	@ (8001fd8 <ProcessInputs+0x2cc>)
 8001fa0:	881a      	ldrh	r2, [r3, #0]
 8001fa2:	4b0d      	ldr	r3, [pc, #52]	@ (8001fd8 <ProcessInputs+0x2cc>)
 8001fa4:	805a      	strh	r2, [r3, #2]
		CM_loadCell_top_filtered[1] = CM_loadCell_top_filtered[0];
 8001fa6:	4b0d      	ldr	r3, [pc, #52]	@ (8001fdc <ProcessInputs+0x2d0>)
 8001fa8:	881a      	ldrh	r2, [r3, #0]
 8001faa:	4b0c      	ldr	r3, [pc, #48]	@ (8001fdc <ProcessInputs+0x2d0>)
 8001fac:	805a      	strh	r2, [r3, #2]
	}

	CalibrateIMU();
 8001fae:	f000 f823 	bl	8001ff8 <CalibrateIMU>
	ComputeHipAngle();
 8001fb2:	f000 fa1d 	bl	80023f0 <ComputeHipAngle>
}
 8001fb6:	bf00      	nop
 8001fb8:	3708      	adds	r7, #8
 8001fba:	46bd      	mov	sp, r7
 8001fbc:	bd80      	pop	{r7, pc}
 8001fbe:	bf00      	nop
 8001fc0:	3c826122 	.word	0x3c826122
 8001fc4:	20000008 	.word	0x20000008
 8001fc8:	20000084 	.word	0x20000084
 8001fcc:	20000078 	.word	0x20000078
 8001fd0:	2000008c 	.word	0x2000008c
 8001fd4:	20000094 	.word	0x20000094
 8001fd8:	2000009c 	.word	0x2000009c
 8001fdc:	200000a4 	.word	0x200000a4
 8001fe0:	20000074 	.word	0x20000074
 8001fe4:	20000004 	.word	0x20000004
 8001fe8:	3fd3eab3 	.word	0x3fd3eab3
 8001fec:	3f34f0d8 	.word	0x3f34f0d8
 8001ff0:	3c51b717 	.word	0x3c51b717
 8001ff4:	3cd1b717 	.word	0x3cd1b717

08001ff8 <CalibrateIMU>:

static void CalibrateIMU (void)
{
 8001ff8:	e92d 4fb0 	stmdb	sp!, {r4, r5, r7, r8, r9, sl, fp, lr}
 8001ffc:	b0a2      	sub	sp, #136	@ 0x88
 8001ffe:	af00      	add	r7, sp, #0
	double axBias_g = 0;
 8002000:	f04f 0200 	mov.w	r2, #0
 8002004:	f04f 0300 	mov.w	r3, #0
 8002008:	e9c7 2320 	strd	r2, r3, [r7, #128]	@ 0x80
	double ayBias_g = 0;
 800200c:	f04f 0200 	mov.w	r2, #0
 8002010:	f04f 0300 	mov.w	r3, #0
 8002014:	e9c7 231e 	strd	r2, r3, [r7, #120]	@ 0x78
	double azBias_g = 0;
 8002018:	f04f 0200 	mov.w	r2, #0
 800201c:	f04f 0300 	mov.w	r3, #0
 8002020:	e9c7 231c 	strd	r2, r3, [r7, #112]	@ 0x70
	double gxBias_dps = -1.127268296;
 8002024:	a3cd      	add	r3, pc, #820	@ (adr r3, 800235c <CalibrateIMU+0x364>)
 8002026:	e9d3 2300 	ldrd	r2, r3, [r3]
 800202a:	e9c7 231a 	strd	r2, r3, [r7, #104]	@ 0x68
	double gyBias_dps = -0.402634146;
 800202e:	a3cd      	add	r3, pc, #820	@ (adr r3, 8002364 <CalibrateIMU+0x36c>)
 8002030:	e9d3 2300 	ldrd	r2, r3, [r3]
 8002034:	e9c7 2318 	strd	r2, r3, [r7, #96]	@ 0x60
	double gzBias_dps = 0.730534709;
 8002038:	a3cc      	add	r3, pc, #816	@ (adr r3, 800236c <CalibrateIMU+0x374>)
 800203a:	e9d3 2300 	ldrd	r2, r3, [r3]
 800203e:	e9c7 2316 	strd	r2, r3, [r7, #88]	@ 0x58
	double n = 1.00509896445316;	// Scaling factor (helps with normalization)
 8002042:	a3cc      	add	r3, pc, #816	@ (adr r3, 8002374 <CalibrateIMU+0x37c>)
 8002044:	e9d3 2300 	ldrd	r2, r3, [r3]
 8002048:	e9c7 2314 	strd	r2, r3, [r7, #80]	@ 0x50

	// Sine and cosine of Euler angles (1 = z angle, 2 = x' angle, 3 = z'' angle)
	double c1 = cos(0);
 800204c:	f04f 0200 	mov.w	r2, #0
 8002050:	4bbf      	ldr	r3, [pc, #764]	@ (8002350 <CalibrateIMU+0x358>)
 8002052:	e9c7 2312 	strd	r2, r3, [r7, #72]	@ 0x48
	double c2 = cos(0);
 8002056:	f04f 0200 	mov.w	r2, #0
 800205a:	4bbd      	ldr	r3, [pc, #756]	@ (8002350 <CalibrateIMU+0x358>)
 800205c:	e9c7 2310 	strd	r2, r3, [r7, #64]	@ 0x40
	double c3 = cos(0);
 8002060:	f04f 0200 	mov.w	r2, #0
 8002064:	4bba      	ldr	r3, [pc, #744]	@ (8002350 <CalibrateIMU+0x358>)
 8002066:	e9c7 230e 	strd	r2, r3, [r7, #56]	@ 0x38
	double s1 = sin(0);
 800206a:	f04f 0200 	mov.w	r2, #0
 800206e:	f04f 0300 	mov.w	r3, #0
 8002072:	e9c7 230c 	strd	r2, r3, [r7, #48]	@ 0x30
	double s2 = sin(0);
 8002076:	f04f 0200 	mov.w	r2, #0
 800207a:	f04f 0300 	mov.w	r3, #0
 800207e:	e9c7 230a 	strd	r2, r3, [r7, #40]	@ 0x28
	double s3 = sin(0);
 8002082:	f04f 0200 	mov.w	r2, #0
 8002086:	f04f 0300 	mov.w	r3, #0
 800208a:	e9c7 2308 	strd	r2, r3, [r7, #32]

	double ax_g = imu_data.ax_g;
 800208e:	4bb1      	ldr	r3, [pc, #708]	@ (8002354 <CalibrateIMU+0x35c>)
 8002090:	e9d3 2300 	ldrd	r2, r3, [r3]
 8002094:	e9c7 2306 	strd	r2, r3, [r7, #24]
	double ay_g = imu_data.ay_g;
 8002098:	4bae      	ldr	r3, [pc, #696]	@ (8002354 <CalibrateIMU+0x35c>)
 800209a:	e9d3 2302 	ldrd	r2, r3, [r3, #8]
 800209e:	e9c7 2304 	strd	r2, r3, [r7, #16]
	double az_g = imu_data.az_g;
 80020a2:	4bac      	ldr	r3, [pc, #688]	@ (8002354 <CalibrateIMU+0x35c>)
 80020a4:	e9d3 2304 	ldrd	r2, r3, [r3, #16]
 80020a8:	e9c7 2302 	strd	r2, r3, [r7, #8]

	// Rotate accelerometer and remove bias
	CM_imu_data.ax_g = n * ( ax_g*(c1*c3 - c2*s1*s3) + ay_g*(  -c3*s1 - c1*c2*s3) + az_g*( s2*s3) ) - axBias_g;
 80020ac:	e9d7 230e 	ldrd	r2, r3, [r7, #56]	@ 0x38
 80020b0:	e9d7 0112 	ldrd	r0, r1, [r7, #72]	@ 0x48
 80020b4:	f7fe fa44 	bl	8000540 <__aeabi_dmul>
 80020b8:	4602      	mov	r2, r0
 80020ba:	460b      	mov	r3, r1
 80020bc:	4690      	mov	r8, r2
 80020be:	4699      	mov	r9, r3
 80020c0:	e9d7 230c 	ldrd	r2, r3, [r7, #48]	@ 0x30
 80020c4:	e9d7 0110 	ldrd	r0, r1, [r7, #64]	@ 0x40
 80020c8:	f7fe fa3a 	bl	8000540 <__aeabi_dmul>
 80020cc:	4602      	mov	r2, r0
 80020ce:	460b      	mov	r3, r1
 80020d0:	4610      	mov	r0, r2
 80020d2:	4619      	mov	r1, r3
 80020d4:	e9d7 2308 	ldrd	r2, r3, [r7, #32]
 80020d8:	f7fe fa32 	bl	8000540 <__aeabi_dmul>
 80020dc:	4602      	mov	r2, r0
 80020de:	460b      	mov	r3, r1
 80020e0:	4640      	mov	r0, r8
 80020e2:	4649      	mov	r1, r9
 80020e4:	f7fe f874 	bl	80001d0 <__aeabi_dsub>
 80020e8:	4602      	mov	r2, r0
 80020ea:	460b      	mov	r3, r1
 80020ec:	4610      	mov	r0, r2
 80020ee:	4619      	mov	r1, r3
 80020f0:	e9d7 2306 	ldrd	r2, r3, [r7, #24]
 80020f4:	f7fe fa24 	bl	8000540 <__aeabi_dmul>
 80020f8:	4602      	mov	r2, r0
 80020fa:	460b      	mov	r3, r1
 80020fc:	4690      	mov	r8, r2
 80020fe:	4699      	mov	r9, r3
 8002100:	6bbb      	ldr	r3, [r7, #56]	@ 0x38
 8002102:	603b      	str	r3, [r7, #0]
 8002104:	6bfb      	ldr	r3, [r7, #60]	@ 0x3c
 8002106:	f083 4300 	eor.w	r3, r3, #2147483648	@ 0x80000000
 800210a:	607b      	str	r3, [r7, #4]
 800210c:	e9d7 230c 	ldrd	r2, r3, [r7, #48]	@ 0x30
 8002110:	e9d7 0100 	ldrd	r0, r1, [r7]
 8002114:	f7fe fa14 	bl	8000540 <__aeabi_dmul>
 8002118:	4602      	mov	r2, r0
 800211a:	460b      	mov	r3, r1
 800211c:	4692      	mov	sl, r2
 800211e:	469b      	mov	fp, r3
 8002120:	e9d7 2310 	ldrd	r2, r3, [r7, #64]	@ 0x40
 8002124:	e9d7 0112 	ldrd	r0, r1, [r7, #72]	@ 0x48
 8002128:	f7fe fa0a 	bl	8000540 <__aeabi_dmul>
 800212c:	4602      	mov	r2, r0
 800212e:	460b      	mov	r3, r1
 8002130:	4610      	mov	r0, r2
 8002132:	4619      	mov	r1, r3
 8002134:	e9d7 2308 	ldrd	r2, r3, [r7, #32]
 8002138:	f7fe fa02 	bl	8000540 <__aeabi_dmul>
 800213c:	4602      	mov	r2, r0
 800213e:	460b      	mov	r3, r1
 8002140:	4650      	mov	r0, sl
 8002142:	4659      	mov	r1, fp
 8002144:	f7fe f844 	bl	80001d0 <__aeabi_dsub>
 8002148:	4602      	mov	r2, r0
 800214a:	460b      	mov	r3, r1
 800214c:	4610      	mov	r0, r2
 800214e:	4619      	mov	r1, r3
 8002150:	e9d7 2304 	ldrd	r2, r3, [r7, #16]
 8002154:	f7fe f9f4 	bl	8000540 <__aeabi_dmul>
 8002158:	4602      	mov	r2, r0
 800215a:	460b      	mov	r3, r1
 800215c:	4640      	mov	r0, r8
 800215e:	4649      	mov	r1, r9
 8002160:	f7fe f838 	bl	80001d4 <__adddf3>
 8002164:	4602      	mov	r2, r0
 8002166:	460b      	mov	r3, r1
 8002168:	4690      	mov	r8, r2
 800216a:	4699      	mov	r9, r3
 800216c:	e9d7 2308 	ldrd	r2, r3, [r7, #32]
 8002170:	e9d7 010a 	ldrd	r0, r1, [r7, #40]	@ 0x28
 8002174:	f7fe f9e4 	bl	8000540 <__aeabi_dmul>
 8002178:	4602      	mov	r2, r0
 800217a:	460b      	mov	r3, r1
 800217c:	4610      	mov	r0, r2
 800217e:	4619      	mov	r1, r3
 8002180:	e9d7 2302 	ldrd	r2, r3, [r7, #8]
 8002184:	f7fe f9dc 	bl	8000540 <__aeabi_dmul>
 8002188:	4602      	mov	r2, r0
 800218a:	460b      	mov	r3, r1
 800218c:	4640      	mov	r0, r8
 800218e:	4649      	mov	r1, r9
 8002190:	f7fe f820 	bl	80001d4 <__adddf3>
 8002194:	4602      	mov	r2, r0
 8002196:	460b      	mov	r3, r1
 8002198:	4610      	mov	r0, r2
 800219a:	4619      	mov	r1, r3
 800219c:	e9d7 2314 	ldrd	r2, r3, [r7, #80]	@ 0x50
 80021a0:	f7fe f9ce 	bl	8000540 <__aeabi_dmul>
 80021a4:	4602      	mov	r2, r0
 80021a6:	460b      	mov	r3, r1
 80021a8:	4610      	mov	r0, r2
 80021aa:	4619      	mov	r1, r3
 80021ac:	e9d7 2320 	ldrd	r2, r3, [r7, #128]	@ 0x80
 80021b0:	f7fe f80e 	bl	80001d0 <__aeabi_dsub>
 80021b4:	4602      	mov	r2, r0
 80021b6:	460b      	mov	r3, r1
 80021b8:	4967      	ldr	r1, [pc, #412]	@ (8002358 <CalibrateIMU+0x360>)
 80021ba:	e9c1 2300 	strd	r2, r3, [r1]
	CM_imu_data.ay_g = n * ( ax_g*(c1*s3 + c2*c3*s1) + ay_g*(c1*c2*c3 - s1*s3   ) + az_g*(-c3*s2) ) - ayBias_g;
 80021be:	e9d7 2308 	ldrd	r2, r3, [r7, #32]
 80021c2:	e9d7 0112 	ldrd	r0, r1, [r7, #72]	@ 0x48
 80021c6:	f7fe f9bb 	bl	8000540 <__aeabi_dmul>
 80021ca:	4602      	mov	r2, r0
 80021cc:	460b      	mov	r3, r1
 80021ce:	4690      	mov	r8, r2
 80021d0:	4699      	mov	r9, r3
 80021d2:	e9d7 230e 	ldrd	r2, r3, [r7, #56]	@ 0x38
 80021d6:	e9d7 0110 	ldrd	r0, r1, [r7, #64]	@ 0x40
 80021da:	f7fe f9b1 	bl	8000540 <__aeabi_dmul>
 80021de:	4602      	mov	r2, r0
 80021e0:	460b      	mov	r3, r1
 80021e2:	4610      	mov	r0, r2
 80021e4:	4619      	mov	r1, r3
 80021e6:	e9d7 230c 	ldrd	r2, r3, [r7, #48]	@ 0x30
 80021ea:	f7fe f9a9 	bl	8000540 <__aeabi_dmul>
 80021ee:	4602      	mov	r2, r0
 80021f0:	460b      	mov	r3, r1
 80021f2:	4640      	mov	r0, r8
 80021f4:	4649      	mov	r1, r9
 80021f6:	f7fd ffed 	bl	80001d4 <__adddf3>
 80021fa:	4602      	mov	r2, r0
 80021fc:	460b      	mov	r3, r1
 80021fe:	4610      	mov	r0, r2
 8002200:	4619      	mov	r1, r3
 8002202:	e9d7 2306 	ldrd	r2, r3, [r7, #24]
 8002206:	f7fe f99b 	bl	8000540 <__aeabi_dmul>
 800220a:	4602      	mov	r2, r0
 800220c:	460b      	mov	r3, r1
 800220e:	4690      	mov	r8, r2
 8002210:	4699      	mov	r9, r3
 8002212:	e9d7 2310 	ldrd	r2, r3, [r7, #64]	@ 0x40
 8002216:	e9d7 0112 	ldrd	r0, r1, [r7, #72]	@ 0x48
 800221a:	f7fe f991 	bl	8000540 <__aeabi_dmul>
 800221e:	4602      	mov	r2, r0
 8002220:	460b      	mov	r3, r1
 8002222:	4610      	mov	r0, r2
 8002224:	4619      	mov	r1, r3
 8002226:	e9d7 230e 	ldrd	r2, r3, [r7, #56]	@ 0x38
 800222a:	f7fe f989 	bl	8000540 <__aeabi_dmul>
 800222e:	4602      	mov	r2, r0
 8002230:	460b      	mov	r3, r1
 8002232:	4692      	mov	sl, r2
 8002234:	469b      	mov	fp, r3
 8002236:	e9d7 2308 	ldrd	r2, r3, [r7, #32]
 800223a:	e9d7 010c 	ldrd	r0, r1, [r7, #48]	@ 0x30
 800223e:	f7fe f97f 	bl	8000540 <__aeabi_dmul>
 8002242:	4602      	mov	r2, r0
 8002244:	460b      	mov	r3, r1
 8002246:	4650      	mov	r0, sl
 8002248:	4659      	mov	r1, fp
 800224a:	f7fd ffc1 	bl	80001d0 <__aeabi_dsub>
 800224e:	4602      	mov	r2, r0
 8002250:	460b      	mov	r3, r1
 8002252:	4610      	mov	r0, r2
 8002254:	4619      	mov	r1, r3
 8002256:	e9d7 2304 	ldrd	r2, r3, [r7, #16]
 800225a:	f7fe f971 	bl	8000540 <__aeabi_dmul>
 800225e:	4602      	mov	r2, r0
 8002260:	460b      	mov	r3, r1
 8002262:	4640      	mov	r0, r8
 8002264:	4649      	mov	r1, r9
 8002266:	f7fd ffb5 	bl	80001d4 <__adddf3>
 800226a:	4602      	mov	r2, r0
 800226c:	460b      	mov	r3, r1
 800226e:	4690      	mov	r8, r2
 8002270:	4699      	mov	r9, r3
 8002272:	6bbc      	ldr	r4, [r7, #56]	@ 0x38
 8002274:	6bfb      	ldr	r3, [r7, #60]	@ 0x3c
 8002276:	f083 4500 	eor.w	r5, r3, #2147483648	@ 0x80000000
 800227a:	e9d7 230a 	ldrd	r2, r3, [r7, #40]	@ 0x28
 800227e:	4620      	mov	r0, r4
 8002280:	4629      	mov	r1, r5
 8002282:	f7fe f95d 	bl	8000540 <__aeabi_dmul>
 8002286:	4602      	mov	r2, r0
 8002288:	460b      	mov	r3, r1
 800228a:	4610      	mov	r0, r2
 800228c:	4619      	mov	r1, r3
 800228e:	e9d7 2302 	ldrd	r2, r3, [r7, #8]
 8002292:	f7fe f955 	bl	8000540 <__aeabi_dmul>
 8002296:	4602      	mov	r2, r0
 8002298:	460b      	mov	r3, r1
 800229a:	4640      	mov	r0, r8
 800229c:	4649      	mov	r1, r9
 800229e:	f7fd ff99 	bl	80001d4 <__adddf3>
 80022a2:	4602      	mov	r2, r0
 80022a4:	460b      	mov	r3, r1
 80022a6:	4610      	mov	r0, r2
 80022a8:	4619      	mov	r1, r3
 80022aa:	e9d7 2314 	ldrd	r2, r3, [r7, #80]	@ 0x50
 80022ae:	f7fe f947 	bl	8000540 <__aeabi_dmul>
 80022b2:	4602      	mov	r2, r0
 80022b4:	460b      	mov	r3, r1
 80022b6:	4610      	mov	r0, r2
 80022b8:	4619      	mov	r1, r3
 80022ba:	e9d7 231e 	ldrd	r2, r3, [r7, #120]	@ 0x78
 80022be:	f7fd ff87 	bl	80001d0 <__aeabi_dsub>
 80022c2:	4602      	mov	r2, r0
 80022c4:	460b      	mov	r3, r1
 80022c6:	4924      	ldr	r1, [pc, #144]	@ (8002358 <CalibrateIMU+0x360>)
 80022c8:	e9c1 2302 	strd	r2, r3, [r1, #8]
	CM_imu_data.az_g = n * ( ax_g*(        s1*s2   ) + ay_g*(           c1*s2   ) + az_g*( c2   ) ) - azBias_g;
 80022cc:	e9d7 230a 	ldrd	r2, r3, [r7, #40]	@ 0x28
 80022d0:	e9d7 010c 	ldrd	r0, r1, [r7, #48]	@ 0x30
 80022d4:	f7fe f934 	bl	8000540 <__aeabi_dmul>
 80022d8:	4602      	mov	r2, r0
 80022da:	460b      	mov	r3, r1
 80022dc:	4610      	mov	r0, r2
 80022de:	4619      	mov	r1, r3
 80022e0:	e9d7 2306 	ldrd	r2, r3, [r7, #24]
 80022e4:	f7fe f92c 	bl	8000540 <__aeabi_dmul>
 80022e8:	4602      	mov	r2, r0
 80022ea:	460b      	mov	r3, r1
 80022ec:	4614      	mov	r4, r2
 80022ee:	461d      	mov	r5, r3
 80022f0:	e9d7 230a 	ldrd	r2, r3, [r7, #40]	@ 0x28
 80022f4:	e9d7 0112 	ldrd	r0, r1, [r7, #72]	@ 0x48
 80022f8:	f7fe f922 	bl	8000540 <__aeabi_dmul>
 80022fc:	4602      	mov	r2, r0
 80022fe:	460b      	mov	r3, r1
 8002300:	4610      	mov	r0, r2
 8002302:	4619      	mov	r1, r3
 8002304:	e9d7 2304 	ldrd	r2, r3, [r7, #16]
 8002308:	f7fe f91a 	bl	8000540 <__aeabi_dmul>
 800230c:	4602      	mov	r2, r0
 800230e:	460b      	mov	r3, r1
 8002310:	4620      	mov	r0, r4
 8002312:	4629      	mov	r1, r5
 8002314:	f7fd ff5e 	bl	80001d4 <__adddf3>
 8002318:	4602      	mov	r2, r0
 800231a:	460b      	mov	r3, r1
 800231c:	4614      	mov	r4, r2
 800231e:	461d      	mov	r5, r3
 8002320:	e9d7 2310 	ldrd	r2, r3, [r7, #64]	@ 0x40
 8002324:	e9d7 0102 	ldrd	r0, r1, [r7, #8]
 8002328:	f7fe f90a 	bl	8000540 <__aeabi_dmul>
 800232c:	4602      	mov	r2, r0
 800232e:	460b      	mov	r3, r1
 8002330:	4620      	mov	r0, r4
 8002332:	4629      	mov	r1, r5
 8002334:	f7fd ff4e 	bl	80001d4 <__adddf3>
 8002338:	4602      	mov	r2, r0
 800233a:	460b      	mov	r3, r1
 800233c:	4610      	mov	r0, r2
 800233e:	4619      	mov	r1, r3
 8002340:	e9d7 2314 	ldrd	r2, r3, [r7, #80]	@ 0x50
 8002344:	f7fe f8fc 	bl	8000540 <__aeabi_dmul>
 8002348:	e018      	b.n	800237c <CalibrateIMU+0x384>
 800234a:	bf00      	nop
 800234c:	f3af 8000 	nop.w
 8002350:	3ff00000 	.word	0x3ff00000
 8002354:	200000b0 	.word	0x200000b0
 8002358:	200000e0 	.word	0x200000e0
 800235c:	7b1233ce 	.word	0x7b1233ce
 8002360:	bff2094a 	.word	0xbff2094a
 8002364:	0254aa38 	.word	0x0254aa38
 8002368:	bfd9c4c2 	.word	0xbfd9c4c2
 800236c:	5377ee9b 	.word	0x5377ee9b
 8002370:	3fe7608a 	.word	0x3fe7608a
 8002374:	a6d91ddb 	.word	0xa6d91ddb
 8002378:	3ff014e2 	.word	0x3ff014e2
 800237c:	4602      	mov	r2, r0
 800237e:	460b      	mov	r3, r1
 8002380:	4610      	mov	r0, r2
 8002382:	4619      	mov	r1, r3
 8002384:	e9d7 231c 	ldrd	r2, r3, [r7, #112]	@ 0x70
 8002388:	f7fd ff22 	bl	80001d0 <__aeabi_dsub>
 800238c:	4602      	mov	r2, r0
 800238e:	460b      	mov	r3, r1
 8002390:	4915      	ldr	r1, [pc, #84]	@ (80023e8 <CalibrateIMU+0x3f0>)
 8002392:	e9c1 2304 	strd	r2, r3, [r1, #16]

	// Remove bias from gyroscope
	CM_imu_data.gx_dps = imu_data.gx_dps - gxBias_dps;
 8002396:	4b15      	ldr	r3, [pc, #84]	@ (80023ec <CalibrateIMU+0x3f4>)
 8002398:	e9d3 0106 	ldrd	r0, r1, [r3, #24]
 800239c:	e9d7 231a 	ldrd	r2, r3, [r7, #104]	@ 0x68
 80023a0:	f7fd ff16 	bl	80001d0 <__aeabi_dsub>
 80023a4:	4602      	mov	r2, r0
 80023a6:	460b      	mov	r3, r1
 80023a8:	490f      	ldr	r1, [pc, #60]	@ (80023e8 <CalibrateIMU+0x3f0>)
 80023aa:	e9c1 2306 	strd	r2, r3, [r1, #24]
	CM_imu_data.gy_dps = imu_data.gy_dps - gyBias_dps;
 80023ae:	4b0f      	ldr	r3, [pc, #60]	@ (80023ec <CalibrateIMU+0x3f4>)
 80023b0:	e9d3 0108 	ldrd	r0, r1, [r3, #32]
 80023b4:	e9d7 2318 	ldrd	r2, r3, [r7, #96]	@ 0x60
 80023b8:	f7fd ff0a 	bl	80001d0 <__aeabi_dsub>
 80023bc:	4602      	mov	r2, r0
 80023be:	460b      	mov	r3, r1
 80023c0:	4909      	ldr	r1, [pc, #36]	@ (80023e8 <CalibrateIMU+0x3f0>)
 80023c2:	e9c1 2308 	strd	r2, r3, [r1, #32]
	CM_imu_data.gz_dps = imu_data.gz_dps - gzBias_dps;
 80023c6:	4b09      	ldr	r3, [pc, #36]	@ (80023ec <CalibrateIMU+0x3f4>)
 80023c8:	e9d3 010a 	ldrd	r0, r1, [r3, #40]	@ 0x28
 80023cc:	e9d7 2316 	ldrd	r2, r3, [r7, #88]	@ 0x58
 80023d0:	f7fd fefe 	bl	80001d0 <__aeabi_dsub>
 80023d4:	4602      	mov	r2, r0
 80023d6:	460b      	mov	r3, r1
 80023d8:	4903      	ldr	r1, [pc, #12]	@ (80023e8 <CalibrateIMU+0x3f0>)
 80023da:	e9c1 230a 	strd	r2, r3, [r1, #40]	@ 0x28
}
 80023de:	bf00      	nop
 80023e0:	3788      	adds	r7, #136	@ 0x88
 80023e2:	46bd      	mov	sp, r7
 80023e4:	e8bd 8fb0 	ldmia.w	sp!, {r4, r5, r7, r8, r9, sl, fp, pc}
 80023e8:	200000e0 	.word	0x200000e0
 80023ec:	200000b0 	.word	0x200000b0

080023f0 <ComputeHipAngle>:

static void ComputeHipAngle (void)
{
 80023f0:	b480      	push	{r7}
 80023f2:	af00      	add	r7, sp, #0
//	}
//
//	// Complementary filter (optimal alpha value found from trial and error experiment of MSE)
//	double alpha = 0.002;
//	CM_hipAngle = accelAngle*alpha + ( 1 - alpha ) * ( gyroAngle + CM_hipAngle );
}
 80023f4:	bf00      	nop
 80023f6:	46bd      	mov	sp, r7
 80023f8:	f85d 7b04 	ldr.w	r7, [sp], #4
 80023fc:	4770      	bx	lr
	...

08002400 <RunStateMachine>:

static void RunStateMachine (void)
{
 8002400:	b480      	push	{r7}
 8002402:	af00      	add	r7, sp, #0
	switch (0)
	{
	case 0:
		kp = 2.5f;
 8002404:	4b08      	ldr	r3, [pc, #32]	@ (8002428 <RunStateMachine+0x28>)
 8002406:	4a09      	ldr	r2, [pc, #36]	@ (800242c <RunStateMachine+0x2c>)
 8002408:	601a      	str	r2, [r3, #0]
		kd = 0;
 800240a:	4b09      	ldr	r3, [pc, #36]	@ (8002430 <RunStateMachine+0x30>)
 800240c:	f04f 0200 	mov.w	r2, #0
 8002410:	601a      	str	r2, [r3, #0]
		equilibriumPoint_deg = 0;
 8002412:	4b08      	ldr	r3, [pc, #32]	@ (8002434 <RunStateMachine+0x34>)
 8002414:	f04f 0200 	mov.w	r2, #0
 8002418:	601a      	str	r2, [r3, #0]
		break;
 800241a:	bf00      	nop
	}
}
 800241c:	bf00      	nop
 800241e:	46bd      	mov	sp, r7
 8002420:	f85d 7b04 	ldr.w	r7, [sp], #4
 8002424:	4770      	bx	lr
 8002426:	bf00      	nop
 8002428:	20000068 	.word	0x20000068
 800242c:	40200000 	.word	0x40200000
 8002430:	2000006c 	.word	0x2000006c
 8002434:	20000070 	.word	0x20000070

08002438 <RunImpedanceControl>:

static void RunImpedanceControl (void)
{
 8002438:	b580      	push	{r7, lr}
 800243a:	b086      	sub	sp, #24
 800243c:	af00      	add	r7, sp, #0
	float gearRatio = 40;
 800243e:	4b23      	ldr	r3, [pc, #140]	@ (80024cc <RunImpedanceControl+0x94>)
 8002440:	617b      	str	r3, [r7, #20]
	float torqueConst_nmpa = 0.095f;	// is this number accurate??
 8002442:	4b23      	ldr	r3, [pc, #140]	@ (80024d0 <RunImpedanceControl+0x98>)
 8002444:	613b      	str	r3, [r7, #16]
	float nomCurrent_amp = 8.;			// is this number accurate??
 8002446:	f04f 4382 	mov.w	r3, #1090519040	@ 0x41000000
 800244a:	60fb      	str	r3, [r7, #12]

	float errorPos_deg = equilibriumPoint_deg - CM_jointAngle_deg[0];
 800244c:	4b21      	ldr	r3, [pc, #132]	@ (80024d4 <RunImpedanceControl+0x9c>)
 800244e:	ed93 7a00 	vldr	s14, [r3]
 8002452:	4b21      	ldr	r3, [pc, #132]	@ (80024d8 <RunImpedanceControl+0xa0>)
 8002454:	edd3 7a00 	vldr	s15, [r3]
 8002458:	ee77 7a67 	vsub.f32	s15, s14, s15
 800245c:	edc7 7a02 	vstr	s15, [r7, #8]
	CM_jointTorque_nm = kp*errorPos_deg - kd*CM_jointSpeed_dps;
 8002460:	4b1e      	ldr	r3, [pc, #120]	@ (80024dc <RunImpedanceControl+0xa4>)
 8002462:	ed93 7a00 	vldr	s14, [r3]
 8002466:	edd7 7a02 	vldr	s15, [r7, #8]
 800246a:	ee27 7a27 	vmul.f32	s14, s14, s15
 800246e:	4b1c      	ldr	r3, [pc, #112]	@ (80024e0 <RunImpedanceControl+0xa8>)
 8002470:	edd3 6a00 	vldr	s13, [r3]
 8002474:	4b1b      	ldr	r3, [pc, #108]	@ (80024e4 <RunImpedanceControl+0xac>)
 8002476:	edd3 7a00 	vldr	s15, [r3]
 800247a:	ee66 7aa7 	vmul.f32	s15, s13, s15
 800247e:	ee77 7a67 	vsub.f32	s15, s14, s15
 8002482:	4b19      	ldr	r3, [pc, #100]	@ (80024e8 <RunImpedanceControl+0xb0>)
 8002484:	edc3 7a00 	vstr	s15, [r3]
	int32_t motorTorque = CM_jointTorque_nm / ( torqueConst_nmpa * gearRatio * nomCurrent_amp ) * 1000;
 8002488:	4b17      	ldr	r3, [pc, #92]	@ (80024e8 <RunImpedanceControl+0xb0>)
 800248a:	edd3 6a00 	vldr	s13, [r3]
 800248e:	ed97 7a04 	vldr	s14, [r7, #16]
 8002492:	edd7 7a05 	vldr	s15, [r7, #20]
 8002496:	ee27 7a27 	vmul.f32	s14, s14, s15
 800249a:	edd7 7a03 	vldr	s15, [r7, #12]
 800249e:	ee27 7a27 	vmul.f32	s14, s14, s15
 80024a2:	eec6 7a87 	vdiv.f32	s15, s13, s14
 80024a6:	ed9f 7a11 	vldr	s14, [pc, #68]	@ 80024ec <RunImpedanceControl+0xb4>
 80024aa:	ee67 7a87 	vmul.f32	s15, s15, s14
 80024ae:	eefd 7ae7 	vcvt.s32.f32	s15, s15
 80024b2:	ee17 3a90 	vmov	r3, s15
 80024b6:	607b      	str	r3, [r7, #4]
	EPOS4_SetTorque( CAN_ID, motorTorque );
 80024b8:	4b0d      	ldr	r3, [pc, #52]	@ (80024f0 <RunImpedanceControl+0xb8>)
 80024ba:	881b      	ldrh	r3, [r3, #0]
 80024bc:	6879      	ldr	r1, [r7, #4]
 80024be:	4618      	mov	r0, r3
 80024c0:	f000 fee6 	bl	8003290 <EPOS4_SetTorque>
}
 80024c4:	bf00      	nop
 80024c6:	3718      	adds	r7, #24
 80024c8:	46bd      	mov	sp, r7
 80024ca:	bd80      	pop	{r7, pc}
 80024cc:	42200000 	.word	0x42200000
 80024d0:	3dc28f5c 	.word	0x3dc28f5c
 80024d4:	20000070 	.word	0x20000070
 80024d8:	20000078 	.word	0x20000078
 80024dc:	20000068 	.word	0x20000068
 80024e0:	2000006c 	.word	0x2000006c
 80024e4:	20000084 	.word	0x20000084
 80024e8:	20000080 	.word	0x20000080
 80024ec:	447a0000 	.word	0x447a0000
 80024f0:	20000000 	.word	0x20000000

080024f4 <RunTestProgram>:

static void RunTestProgram (void)
{
 80024f4:	b580      	push	{r7, lr}
 80024f6:	b088      	sub	sp, #32
 80024f8:	af00      	add	r7, sp, #0
	switch (testProgram)
 80024fa:	4b3e      	ldr	r3, [pc, #248]	@ (80025f4 <RunTestProgram+0x100>)
 80024fc:	781b      	ldrb	r3, [r3, #0]
 80024fe:	2b05      	cmp	r3, #5
 8002500:	d873      	bhi.n	80025ea <RunTestProgram+0xf6>
 8002502:	a201      	add	r2, pc, #4	@ (adr r2, 8002508 <RunTestProgram+0x14>)
 8002504:	f852 f023 	ldr.w	pc, [r2, r3, lsl #2]
 8002508:	080025e9 	.word	0x080025e9
 800250c:	080025e9 	.word	0x080025e9
 8002510:	08002521 	.word	0x08002521
 8002514:	08002571 	.word	0x08002571
 8002518:	08002533 	.word	0x08002533
 800251c:	08002571 	.word	0x08002571
		break;
	case ReadOnly:
		break;
	case ConstantTorque:
	{
		int32_t torque = 150;
 8002520:	2396      	movs	r3, #150	@ 0x96
 8002522:	60fb      	str	r3, [r7, #12]
		EPOS4_SetTorque( CAN_ID, torque );
 8002524:	4b34      	ldr	r3, [pc, #208]	@ (80025f8 <RunTestProgram+0x104>)
 8002526:	881b      	ldrh	r3, [r3, #0]
 8002528:	68f9      	ldr	r1, [r7, #12]
 800252a:	4618      	mov	r0, r3
 800252c:	f000 feb0 	bl	8003290 <EPOS4_SetTorque>
		break;
 8002530:	e05b      	b.n	80025ea <RunTestProgram+0xf6>
	}
	case MagneticEncoderBias:
	{
		uint16_t i;
		uint32_t sum = 0;
 8002532:	2300      	movs	r3, #0
 8002534:	61bb      	str	r3, [r7, #24]

		for ( i = 0; i < 1000; i++ )
 8002536:	2300      	movs	r3, #0
 8002538:	83fb      	strh	r3, [r7, #30]
 800253a:	e00c      	b.n	8002556 <RunTestProgram+0x62>
		{
			struct AS5145B_Data_s data = AS5145B_ReadData();
 800253c:	f000 fd64 	bl	8003008 <AS5145B_ReadData>
 8002540:	4603      	mov	r3, r0
 8002542:	60bb      	str	r3, [r7, #8]
			sum += data.pos_raw;
 8002544:	f9b7 3008 	ldrsh.w	r3, [r7, #8]
 8002548:	461a      	mov	r2, r3
 800254a:	69bb      	ldr	r3, [r7, #24]
 800254c:	4413      	add	r3, r2
 800254e:	61bb      	str	r3, [r7, #24]
		for ( i = 0; i < 1000; i++ )
 8002550:	8bfb      	ldrh	r3, [r7, #30]
 8002552:	3301      	adds	r3, #1
 8002554:	83fb      	strh	r3, [r7, #30]
 8002556:	8bfb      	ldrh	r3, [r7, #30]
 8002558:	f5b3 7f7a 	cmp.w	r3, #1000	@ 0x3e8
 800255c:	d3ee      	bcc.n	800253c <RunTestProgram+0x48>
		}

		CM_magEncBias = sum / i;
 800255e:	8bfb      	ldrh	r3, [r7, #30]
 8002560:	69ba      	ldr	r2, [r7, #24]
 8002562:	fbb2 f3f3 	udiv	r3, r2, r3
 8002566:	b29a      	uxth	r2, r3
 8002568:	4b24      	ldr	r3, [pc, #144]	@ (80025fc <RunTestProgram+0x108>)
 800256a:	801a      	strh	r2, [r3, #0]
		(void) CM_magEncBias;

		while (1);	// Halt program
 800256c:	bf00      	nop
 800256e:	e7fd      	b.n	800256c <RunTestProgram+0x78>
	}
	case ImpedanceControl:
	{
		// First compute average of current position and use as equilibrium point
		// Then run impedance control
		if (isFirst)
 8002570:	4b23      	ldr	r3, [pc, #140]	@ (8002600 <RunTestProgram+0x10c>)
 8002572:	781b      	ldrb	r3, [r3, #0]
 8002574:	2b00      	cmp	r3, #0
 8002576:	d034      	beq.n	80025e2 <RunTestProgram+0xee>
		{
			uint16_t i;

			kp = 2.5;
 8002578:	4b22      	ldr	r3, [pc, #136]	@ (8002604 <RunTestProgram+0x110>)
 800257a:	4a23      	ldr	r2, [pc, #140]	@ (8002608 <RunTestProgram+0x114>)
 800257c:	601a      	str	r2, [r3, #0]
			kd = 0;
 800257e:	4b23      	ldr	r3, [pc, #140]	@ (800260c <RunTestProgram+0x118>)
 8002580:	f04f 0200 	mov.w	r2, #0
 8002584:	601a      	str	r2, [r3, #0]
			uint32_t sum = 0;
 8002586:	2300      	movs	r3, #0
 8002588:	613b      	str	r3, [r7, #16]

			for ( i = 0; i < 1000; i++ )
 800258a:	2300      	movs	r3, #0
 800258c:	82fb      	strh	r3, [r7, #22]
 800258e:	e00c      	b.n	80025aa <RunTestProgram+0xb6>
			{
				struct AS5145B_Data_s data = AS5145B_ReadData();
 8002590:	f000 fd3a 	bl	8003008 <AS5145B_ReadData>
 8002594:	4603      	mov	r3, r0
 8002596:	607b      	str	r3, [r7, #4]
				sum += data.pos_raw;
 8002598:	f9b7 3004 	ldrsh.w	r3, [r7, #4]
 800259c:	461a      	mov	r2, r3
 800259e:	693b      	ldr	r3, [r7, #16]
 80025a0:	4413      	add	r3, r2
 80025a2:	613b      	str	r3, [r7, #16]
			for ( i = 0; i < 1000; i++ )
 80025a4:	8afb      	ldrh	r3, [r7, #22]
 80025a6:	3301      	adds	r3, #1
 80025a8:	82fb      	strh	r3, [r7, #22]
 80025aa:	8afb      	ldrh	r3, [r7, #22]
 80025ac:	f5b3 7f7a 	cmp.w	r3, #1000	@ 0x3e8
 80025b0:	d3ee      	bcc.n	8002590 <RunTestProgram+0x9c>
			}

			equilibriumPoint_deg = (float) sum/i * 360/4096;
 80025b2:	693b      	ldr	r3, [r7, #16]
 80025b4:	ee07 3a90 	vmov	s15, r3
 80025b8:	eef8 6a67 	vcvt.f32.u32	s13, s15
 80025bc:	8afb      	ldrh	r3, [r7, #22]
 80025be:	ee07 3a90 	vmov	s15, r3
 80025c2:	eeb8 7ae7 	vcvt.f32.s32	s14, s15
 80025c6:	eec6 7a87 	vdiv.f32	s15, s13, s14
 80025ca:	ed9f 7a11 	vldr	s14, [pc, #68]	@ 8002610 <RunTestProgram+0x11c>
 80025ce:	ee27 7a87 	vmul.f32	s14, s15, s14
 80025d2:	eddf 6a10 	vldr	s13, [pc, #64]	@ 8002614 <RunTestProgram+0x120>
 80025d6:	eec7 7a26 	vdiv.f32	s15, s14, s13
 80025da:	4b0f      	ldr	r3, [pc, #60]	@ (8002618 <RunTestProgram+0x124>)
 80025dc:	edc3 7a00 	vstr	s15, [r3]
		else
		{
			RunImpedanceControl();
		}

		break;
 80025e0:	e003      	b.n	80025ea <RunTestProgram+0xf6>
			RunImpedanceControl();
 80025e2:	f7ff ff29 	bl	8002438 <RunImpedanceControl>
		break;
 80025e6:	e000      	b.n	80025ea <RunTestProgram+0xf6>
		break;
 80025e8:	bf00      	nop
	}
	}
}
 80025ea:	bf00      	nop
 80025ec:	3720      	adds	r7, #32
 80025ee:	46bd      	mov	sp, r7
 80025f0:	bd80      	pop	{r7, pc}
 80025f2:	bf00      	nop
 80025f4:	20000065 	.word	0x20000065
 80025f8:	20000000 	.word	0x20000000
 80025fc:	20000088 	.word	0x20000088
 8002600:	20000008 	.word	0x20000008
 8002604:	20000068 	.word	0x20000068
 8002608:	40200000 	.word	0x40200000
 800260c:	2000006c 	.word	0x2000006c
 8002610:	43b40000 	.word	0x43b40000
 8002614:	45800000 	.word	0x45800000
 8002618:	20000070 	.word	0x20000070
 800261c:	00000000 	.word	0x00000000

08002620 <IMU_read>:
/*******************************************************************************
* Deal with this after we figure out DMP??
*******************************************************************************/

struct imu_data_s IMU_read(void)
{
 8002620:	b5b0      	push	{r4, r5, r7, lr}
 8002622:	b098      	sub	sp, #96	@ 0x60
 8002624:	af00      	add	r7, sp, #0
 8002626:	6078      	str	r0, [r7, #4]
	struct imu_data_s IMU;
	uint8_t response[21];
	WriteReg(MPUREG_I2C_SLV0_ADDR, AK8963_I2C_ADDR | READ_FLAG); // Set the I2C slave addres of AK8963 and set for read.
 8002628:	218c      	movs	r1, #140	@ 0x8c
 800262a:	2025      	movs	r0, #37	@ 0x25
 800262c:	f000 f8aa 	bl	8002784 <WriteReg>
	WriteReg(MPUREG_I2C_SLV0_REG, AK8963_HXL); // I2C slave 0 register address from where to begin data transfer
 8002630:	2103      	movs	r1, #3
 8002632:	2026      	movs	r0, #38	@ 0x26
 8002634:	f000 f8a6 	bl	8002784 <WriteReg>
	WriteReg(MPUREG_I2C_SLV0_CTRL, 0x87); // Read 7 bytes from the magnetometer
 8002638:	2187      	movs	r1, #135	@ 0x87
 800263a:	2027      	movs	r0, #39	@ 0x27
 800263c:	f000 f8a2 	bl	8002784 <WriteReg>

	ReadRegs(MPUREG_ACCEL_XOUT_H, response, 21);
 8002640:	f107 0308 	add.w	r3, r7, #8
 8002644:	2215      	movs	r2, #21
 8002646:	4619      	mov	r1, r3
 8002648:	203b      	movs	r0, #59	@ 0x3b
 800264a:	f000 f8e5 	bl	8002818 <ReadRegs>

	int16_t AX = ((int16_t) response[0] << 8) | response[1];
 800264e:	7a3b      	ldrb	r3, [r7, #8]
 8002650:	021b      	lsls	r3, r3, #8
 8002652:	b21a      	sxth	r2, r3
 8002654:	7a7b      	ldrb	r3, [r7, #9]
 8002656:	b21b      	sxth	r3, r3
 8002658:	4313      	orrs	r3, r2
 800265a:	f8a7 305e 	strh.w	r3, [r7, #94]	@ 0x5e
	int16_t AY = ((int16_t) response[2] << 8) | response[3];
 800265e:	7abb      	ldrb	r3, [r7, #10]
 8002660:	021b      	lsls	r3, r3, #8
 8002662:	b21a      	sxth	r2, r3
 8002664:	7afb      	ldrb	r3, [r7, #11]
 8002666:	b21b      	sxth	r3, r3
 8002668:	4313      	orrs	r3, r2
 800266a:	f8a7 305c 	strh.w	r3, [r7, #92]	@ 0x5c
	int16_t AZ = ((int16_t) response[4] << 8) | response[5];
 800266e:	7b3b      	ldrb	r3, [r7, #12]
 8002670:	021b      	lsls	r3, r3, #8
 8002672:	b21a      	sxth	r2, r3
 8002674:	7b7b      	ldrb	r3, [r7, #13]
 8002676:	b21b      	sxth	r3, r3
 8002678:	4313      	orrs	r3, r2
 800267a:	f8a7 305a 	strh.w	r3, [r7, #90]	@ 0x5a
	int16_t GX = ((int16_t) response[8] << 8) | response[9];
 800267e:	7c3b      	ldrb	r3, [r7, #16]
 8002680:	021b      	lsls	r3, r3, #8
 8002682:	b21a      	sxth	r2, r3
 8002684:	7c7b      	ldrb	r3, [r7, #17]
 8002686:	b21b      	sxth	r3, r3
 8002688:	4313      	orrs	r3, r2
 800268a:	f8a7 3058 	strh.w	r3, [r7, #88]	@ 0x58
	int16_t GY = ((int16_t) response[10] << 8) | response[11];
 800268e:	7cbb      	ldrb	r3, [r7, #18]
 8002690:	021b      	lsls	r3, r3, #8
 8002692:	b21a      	sxth	r2, r3
 8002694:	7cfb      	ldrb	r3, [r7, #19]
 8002696:	b21b      	sxth	r3, r3
 8002698:	4313      	orrs	r3, r2
 800269a:	f8a7 3056 	strh.w	r3, [r7, #86]	@ 0x56
	int16_t GZ = ((int16_t) response[12] << 8) | response[13];
 800269e:	7d3b      	ldrb	r3, [r7, #20]
 80026a0:	021b      	lsls	r3, r3, #8
 80026a2:	b21a      	sxth	r2, r3
 80026a4:	7d7b      	ldrb	r3, [r7, #21]
 80026a6:	b21b      	sxth	r3, r3
 80026a8:	4313      	orrs	r3, r2
 80026aa:	f8a7 3054 	strh.w	r3, [r7, #84]	@ 0x54

	IMU.ax_g = AX / 4096.0;
 80026ae:	f9b7 305e 	ldrsh.w	r3, [r7, #94]	@ 0x5e
 80026b2:	4618      	mov	r0, r3
 80026b4:	f7fd feda 	bl	800046c <__aeabi_i2d>
 80026b8:	f04f 0200 	mov.w	r2, #0
 80026bc:	4b30      	ldr	r3, [pc, #192]	@ (8002780 <IMU_read+0x160>)
 80026be:	f7fe f869 	bl	8000794 <__aeabi_ddiv>
 80026c2:	4602      	mov	r2, r0
 80026c4:	460b      	mov	r3, r1
 80026c6:	e9c7 2308 	strd	r2, r3, [r7, #32]
	IMU.ay_g = AY / 4096.0;
 80026ca:	f9b7 305c 	ldrsh.w	r3, [r7, #92]	@ 0x5c
 80026ce:	4618      	mov	r0, r3
 80026d0:	f7fd fecc 	bl	800046c <__aeabi_i2d>
 80026d4:	f04f 0200 	mov.w	r2, #0
 80026d8:	4b29      	ldr	r3, [pc, #164]	@ (8002780 <IMU_read+0x160>)
 80026da:	f7fe f85b 	bl	8000794 <__aeabi_ddiv>
 80026de:	4602      	mov	r2, r0
 80026e0:	460b      	mov	r3, r1
 80026e2:	e9c7 230a 	strd	r2, r3, [r7, #40]	@ 0x28
	IMU.az_g = AZ / 4096.0;
 80026e6:	f9b7 305a 	ldrsh.w	r3, [r7, #90]	@ 0x5a
 80026ea:	4618      	mov	r0, r3
 80026ec:	f7fd febe 	bl	800046c <__aeabi_i2d>
 80026f0:	f04f 0200 	mov.w	r2, #0
 80026f4:	4b22      	ldr	r3, [pc, #136]	@ (8002780 <IMU_read+0x160>)
 80026f6:	f7fe f84d 	bl	8000794 <__aeabi_ddiv>
 80026fa:	4602      	mov	r2, r0
 80026fc:	460b      	mov	r3, r1
 80026fe:	e9c7 230c 	strd	r2, r3, [r7, #48]	@ 0x30
	IMU.gx_dps = GX / 32.8;
 8002702:	f9b7 3058 	ldrsh.w	r3, [r7, #88]	@ 0x58
 8002706:	4618      	mov	r0, r3
 8002708:	f7fd feb0 	bl	800046c <__aeabi_i2d>
 800270c:	a31a      	add	r3, pc, #104	@ (adr r3, 8002778 <IMU_read+0x158>)
 800270e:	e9d3 2300 	ldrd	r2, r3, [r3]
 8002712:	f7fe f83f 	bl	8000794 <__aeabi_ddiv>
 8002716:	4602      	mov	r2, r0
 8002718:	460b      	mov	r3, r1
 800271a:	e9c7 230e 	strd	r2, r3, [r7, #56]	@ 0x38
	IMU.gy_dps = GY / 32.8;
 800271e:	f9b7 3056 	ldrsh.w	r3, [r7, #86]	@ 0x56
 8002722:	4618      	mov	r0, r3
 8002724:	f7fd fea2 	bl	800046c <__aeabi_i2d>
 8002728:	a313      	add	r3, pc, #76	@ (adr r3, 8002778 <IMU_read+0x158>)
 800272a:	e9d3 2300 	ldrd	r2, r3, [r3]
 800272e:	f7fe f831 	bl	8000794 <__aeabi_ddiv>
 8002732:	4602      	mov	r2, r0
 8002734:	460b      	mov	r3, r1
 8002736:	e9c7 2310 	strd	r2, r3, [r7, #64]	@ 0x40
	IMU.gz_dps = GZ / 32.8;
 800273a:	f9b7 3054 	ldrsh.w	r3, [r7, #84]	@ 0x54
 800273e:	4618      	mov	r0, r3
 8002740:	f7fd fe94 	bl	800046c <__aeabi_i2d>
 8002744:	a30c      	add	r3, pc, #48	@ (adr r3, 8002778 <IMU_read+0x158>)
 8002746:	e9d3 2300 	ldrd	r2, r3, [r3]
 800274a:	f7fe f823 	bl	8000794 <__aeabi_ddiv>
 800274e:	4602      	mov	r2, r0
 8002750:	460b      	mov	r3, r1
 8002752:	e9c7 2312 	strd	r2, r3, [r7, #72]	@ 0x48
	return IMU;
 8002756:	687b      	ldr	r3, [r7, #4]
 8002758:	461d      	mov	r5, r3
 800275a:	f107 0420 	add.w	r4, r7, #32
 800275e:	cc0f      	ldmia	r4!, {r0, r1, r2, r3}
 8002760:	c50f      	stmia	r5!, {r0, r1, r2, r3}
 8002762:	cc0f      	ldmia	r4!, {r0, r1, r2, r3}
 8002764:	c50f      	stmia	r5!, {r0, r1, r2, r3}
 8002766:	e894 000f 	ldmia.w	r4, {r0, r1, r2, r3}
 800276a:	e885 000f 	stmia.w	r5, {r0, r1, r2, r3}
}
 800276e:	6878      	ldr	r0, [r7, #4]
 8002770:	3760      	adds	r7, #96	@ 0x60
 8002772:	46bd      	mov	sp, r7
 8002774:	bdb0      	pop	{r4, r5, r7, pc}
 8002776:	bf00      	nop
 8002778:	66666666 	.word	0x66666666
 800277c:	40406666 	.word	0x40406666
 8002780:	40b00000 	.word	0x40b00000

08002784 <WriteReg>:

unsigned int WriteReg(uint8_t adress, uint8_t data)
{
 8002784:	b580      	push	{r7, lr}
 8002786:	b084      	sub	sp, #16
 8002788:	af00      	add	r7, sp, #0
 800278a:	4603      	mov	r3, r0
 800278c:	460a      	mov	r2, r1
 800278e:	71fb      	strb	r3, [r7, #7]
 8002790:	4613      	mov	r3, r2
 8002792:	71bb      	strb	r3, [r7, #6]
	unsigned int temp_val;
	LL_GPIO_ResetOutputPin(IMU_CS_GPIO_Port, IMU_CS_Pin);
 8002794:	f44f 7180 	mov.w	r1, #256	@ 0x100
 8002798:	f04f 4090 	mov.w	r0, #1207959552	@ 0x48000000
 800279c:	f7ff f96a 	bl	8001a74 <LL_GPIO_ResetOutputPin>

	while (!(SPI1->SR & SPI_SR_TXE)); //transmit buffer empty?
 80027a0:	bf00      	nop
 80027a2:	4b1c      	ldr	r3, [pc, #112]	@ (8002814 <WriteReg+0x90>)
 80027a4:	689b      	ldr	r3, [r3, #8]
 80027a6:	f003 0302 	and.w	r3, r3, #2
 80027aa:	2b00      	cmp	r3, #0
 80027ac:	d0f9      	beq.n	80027a2 <WriteReg+0x1e>
	LL_SPI_TransmitData8(SPI1, adress);
 80027ae:	79fb      	ldrb	r3, [r7, #7]
 80027b0:	4619      	mov	r1, r3
 80027b2:	4818      	ldr	r0, [pc, #96]	@ (8002814 <WriteReg+0x90>)
 80027b4:	f7ff f9bb 	bl	8001b2e <LL_SPI_TransmitData8>
	while (!(SPI1->SR & SPI_SR_RXNE)); //data received?
 80027b8:	bf00      	nop
 80027ba:	4b16      	ldr	r3, [pc, #88]	@ (8002814 <WriteReg+0x90>)
 80027bc:	689b      	ldr	r3, [r3, #8]
 80027be:	f003 0301 	and.w	r3, r3, #1
 80027c2:	2b00      	cmp	r3, #0
 80027c4:	d0f9      	beq.n	80027ba <WriteReg+0x36>
	LL_SPI_ReceiveData8(SPI1);
 80027c6:	4813      	ldr	r0, [pc, #76]	@ (8002814 <WriteReg+0x90>)
 80027c8:	f7ff f9a3 	bl	8001b12 <LL_SPI_ReceiveData8>

	while (!(SPI1->SR & SPI_SR_TXE)); //transmit buffer empty?
 80027cc:	bf00      	nop
 80027ce:	4b11      	ldr	r3, [pc, #68]	@ (8002814 <WriteReg+0x90>)
 80027d0:	689b      	ldr	r3, [r3, #8]
 80027d2:	f003 0302 	and.w	r3, r3, #2
 80027d6:	2b00      	cmp	r3, #0
 80027d8:	d0f9      	beq.n	80027ce <WriteReg+0x4a>
	LL_SPI_TransmitData8(SPI1, data);
 80027da:	79bb      	ldrb	r3, [r7, #6]
 80027dc:	4619      	mov	r1, r3
 80027de:	480d      	ldr	r0, [pc, #52]	@ (8002814 <WriteReg+0x90>)
 80027e0:	f7ff f9a5 	bl	8001b2e <LL_SPI_TransmitData8>
	while (!(SPI1->SR & SPI_SR_RXNE)); //data received?
 80027e4:	bf00      	nop
 80027e6:	4b0b      	ldr	r3, [pc, #44]	@ (8002814 <WriteReg+0x90>)
 80027e8:	689b      	ldr	r3, [r3, #8]
 80027ea:	f003 0301 	and.w	r3, r3, #1
 80027ee:	2b00      	cmp	r3, #0
 80027f0:	d0f9      	beq.n	80027e6 <WriteReg+0x62>
	temp_val = LL_SPI_ReceiveData8(SPI1);
 80027f2:	4808      	ldr	r0, [pc, #32]	@ (8002814 <WriteReg+0x90>)
 80027f4:	f7ff f98d 	bl	8001b12 <LL_SPI_ReceiveData8>
 80027f8:	4603      	mov	r3, r0
 80027fa:	60fb      	str	r3, [r7, #12]

	LL_GPIO_SetOutputPin(IMU_CS_GPIO_Port, IMU_CS_Pin);
 80027fc:	f44f 7180 	mov.w	r1, #256	@ 0x100
 8002800:	f04f 4090 	mov.w	r0, #1207959552	@ 0x48000000
 8002804:	f7ff f928 	bl	8001a58 <LL_GPIO_SetOutputPin>
	return temp_val;
 8002808:	68fb      	ldr	r3, [r7, #12]
}
 800280a:	4618      	mov	r0, r3
 800280c:	3710      	adds	r7, #16
 800280e:	46bd      	mov	sp, r7
 8002810:	bd80      	pop	{r7, pc}
 8002812:	bf00      	nop
 8002814:	40013000 	.word	0x40013000

08002818 <ReadRegs>:

void ReadRegs(uint8_t ReadAddr, uint8_t *ReadBuf, unsigned int Bytes)
{
 8002818:	b590      	push	{r4, r7, lr}
 800281a:	b087      	sub	sp, #28
 800281c:	af00      	add	r7, sp, #0
 800281e:	4603      	mov	r3, r0
 8002820:	60b9      	str	r1, [r7, #8]
 8002822:	607a      	str	r2, [r7, #4]
 8002824:	73fb      	strb	r3, [r7, #15]
	unsigned int i = 0;
 8002826:	2300      	movs	r3, #0
 8002828:	617b      	str	r3, [r7, #20]
	LL_GPIO_ResetOutputPin(IMU_CS_GPIO_Port, IMU_CS_Pin); // PA4 CS RESET Active Low
 800282a:	f44f 7180 	mov.w	r1, #256	@ 0x100
 800282e:	f04f 4090 	mov.w	r0, #1207959552	@ 0x48000000
 8002832:	f7ff f91f 	bl	8001a74 <LL_GPIO_ResetOutputPin>

	while (!(SPI1->SR & SPI_SR_TXE)); //transmit buffer empty?
 8002836:	bf00      	nop
 8002838:	4b22      	ldr	r3, [pc, #136]	@ (80028c4 <ReadRegs+0xac>)
 800283a:	689b      	ldr	r3, [r3, #8]
 800283c:	f003 0302 	and.w	r3, r3, #2
 8002840:	2b00      	cmp	r3, #0
 8002842:	d0f9      	beq.n	8002838 <ReadRegs+0x20>
	LL_SPI_TransmitData8(SPI1, (ReadAddr | 0x80)); // (Starting Address 0x22 | 0x80); MSB is '1' for 0x80, next 7 bit Address of register to write 0x22
 8002844:	7bfb      	ldrb	r3, [r7, #15]
 8002846:	f063 037f 	orn	r3, r3, #127	@ 0x7f
 800284a:	b2db      	uxtb	r3, r3
 800284c:	4619      	mov	r1, r3
 800284e:	481d      	ldr	r0, [pc, #116]	@ (80028c4 <ReadRegs+0xac>)
 8002850:	f7ff f96d 	bl	8001b2e <LL_SPI_TransmitData8>
	while (!(SPI1->SR & SPI_SR_RXNE)); //data received?
 8002854:	bf00      	nop
 8002856:	4b1b      	ldr	r3, [pc, #108]	@ (80028c4 <ReadRegs+0xac>)
 8002858:	689b      	ldr	r3, [r3, #8]
 800285a:	f003 0301 	and.w	r3, r3, #1
 800285e:	2b00      	cmp	r3, #0
 8002860:	d0f9      	beq.n	8002856 <ReadRegs+0x3e>
	LL_SPI_ReceiveData8(SPI1);
 8002862:	4818      	ldr	r0, [pc, #96]	@ (80028c4 <ReadRegs+0xac>)
 8002864:	f7ff f955 	bl	8001b12 <LL_SPI_ReceiveData8>

	for (i = 0; i < Bytes; i++)
 8002868:	2300      	movs	r3, #0
 800286a:	617b      	str	r3, [r7, #20]
 800286c:	e01c      	b.n	80028a8 <ReadRegs+0x90>
	{
		while (!(SPI1->SR & SPI_SR_TXE)); //transmit buffer empty?
 800286e:	bf00      	nop
 8002870:	4b14      	ldr	r3, [pc, #80]	@ (80028c4 <ReadRegs+0xac>)
 8002872:	689b      	ldr	r3, [r3, #8]
 8002874:	f003 0302 	and.w	r3, r3, #2
 8002878:	2b00      	cmp	r3, #0
 800287a:	d0f9      	beq.n	8002870 <ReadRegs+0x58>
		LL_SPI_TransmitData8(SPI1, 0x00);
 800287c:	2100      	movs	r1, #0
 800287e:	4811      	ldr	r0, [pc, #68]	@ (80028c4 <ReadRegs+0xac>)
 8002880:	f7ff f955 	bl	8001b2e <LL_SPI_TransmitData8>
		while (!(SPI1->SR & SPI_SR_RXNE)); //data received?
 8002884:	bf00      	nop
 8002886:	4b0f      	ldr	r3, [pc, #60]	@ (80028c4 <ReadRegs+0xac>)
 8002888:	689b      	ldr	r3, [r3, #8]
 800288a:	f003 0301 	and.w	r3, r3, #1
 800288e:	2b00      	cmp	r3, #0
 8002890:	d0f9      	beq.n	8002886 <ReadRegs+0x6e>
		ReadBuf[i] = LL_SPI_ReceiveData8(SPI1);
 8002892:	68ba      	ldr	r2, [r7, #8]
 8002894:	697b      	ldr	r3, [r7, #20]
 8002896:	18d4      	adds	r4, r2, r3
 8002898:	480a      	ldr	r0, [pc, #40]	@ (80028c4 <ReadRegs+0xac>)
 800289a:	f7ff f93a 	bl	8001b12 <LL_SPI_ReceiveData8>
 800289e:	4603      	mov	r3, r0
 80028a0:	7023      	strb	r3, [r4, #0]
	for (i = 0; i < Bytes; i++)
 80028a2:	697b      	ldr	r3, [r7, #20]
 80028a4:	3301      	adds	r3, #1
 80028a6:	617b      	str	r3, [r7, #20]
 80028a8:	697a      	ldr	r2, [r7, #20]
 80028aa:	687b      	ldr	r3, [r7, #4]
 80028ac:	429a      	cmp	r2, r3
 80028ae:	d3de      	bcc.n	800286e <ReadRegs+0x56>
	}

	LL_GPIO_SetOutputPin(IMU_CS_GPIO_Port, IMU_CS_Pin); // PC4 CS SET Active Low
 80028b0:	f44f 7180 	mov.w	r1, #256	@ 0x100
 80028b4:	f04f 4090 	mov.w	r0, #1207959552	@ 0x48000000
 80028b8:	f7ff f8ce 	bl	8001a58 <LL_GPIO_SetOutputPin>
}
 80028bc:	bf00      	nop
 80028be:	371c      	adds	r7, #28
 80028c0:	46bd      	mov	sp, r7
 80028c2:	bd90      	pop	{r4, r7, pc}
 80028c4:	40013000 	.word	0x40013000

080028c8 <LL_AHB2_GRP1_EnableClock>:
{
 80028c8:	b480      	push	{r7}
 80028ca:	b085      	sub	sp, #20
 80028cc:	af00      	add	r7, sp, #0
 80028ce:	6078      	str	r0, [r7, #4]
  SET_BIT(RCC->AHB2ENR, Periphs);
 80028d0:	4b08      	ldr	r3, [pc, #32]	@ (80028f4 <LL_AHB2_GRP1_EnableClock+0x2c>)
 80028d2:	6cda      	ldr	r2, [r3, #76]	@ 0x4c
 80028d4:	4907      	ldr	r1, [pc, #28]	@ (80028f4 <LL_AHB2_GRP1_EnableClock+0x2c>)
 80028d6:	687b      	ldr	r3, [r7, #4]
 80028d8:	4313      	orrs	r3, r2
 80028da:	64cb      	str	r3, [r1, #76]	@ 0x4c
  tmpreg = READ_BIT(RCC->AHB2ENR, Periphs);
 80028dc:	4b05      	ldr	r3, [pc, #20]	@ (80028f4 <LL_AHB2_GRP1_EnableClock+0x2c>)
 80028de:	6cda      	ldr	r2, [r3, #76]	@ 0x4c
 80028e0:	687b      	ldr	r3, [r7, #4]
 80028e2:	4013      	ands	r3, r2
 80028e4:	60fb      	str	r3, [r7, #12]
  (void)tmpreg;
 80028e6:	68fb      	ldr	r3, [r7, #12]
}
 80028e8:	bf00      	nop
 80028ea:	3714      	adds	r7, #20
 80028ec:	46bd      	mov	sp, r7
 80028ee:	f85d 7b04 	ldr.w	r7, [sp], #4
 80028f2:	4770      	bx	lr
 80028f4:	40021000 	.word	0x40021000

080028f8 <LL_APB1_GRP1_EnableClock>:
{
 80028f8:	b480      	push	{r7}
 80028fa:	b085      	sub	sp, #20
 80028fc:	af00      	add	r7, sp, #0
 80028fe:	6078      	str	r0, [r7, #4]
  SET_BIT(RCC->APB1ENR1, Periphs);
 8002900:	4b08      	ldr	r3, [pc, #32]	@ (8002924 <LL_APB1_GRP1_EnableClock+0x2c>)
 8002902:	6d9a      	ldr	r2, [r3, #88]	@ 0x58
 8002904:	4907      	ldr	r1, [pc, #28]	@ (8002924 <LL_APB1_GRP1_EnableClock+0x2c>)
 8002906:	687b      	ldr	r3, [r7, #4]
 8002908:	4313      	orrs	r3, r2
 800290a:	658b      	str	r3, [r1, #88]	@ 0x58
  tmpreg = READ_BIT(RCC->APB1ENR1, Periphs);
 800290c:	4b05      	ldr	r3, [pc, #20]	@ (8002924 <LL_APB1_GRP1_EnableClock+0x2c>)
 800290e:	6d9a      	ldr	r2, [r3, #88]	@ 0x58
 8002910:	687b      	ldr	r3, [r7, #4]
 8002912:	4013      	ands	r3, r2
 8002914:	60fb      	str	r3, [r7, #12]
  (void)tmpreg;
 8002916:	68fb      	ldr	r3, [r7, #12]
}
 8002918:	bf00      	nop
 800291a:	3714      	adds	r7, #20
 800291c:	46bd      	mov	sp, r7
 800291e:	f85d 7b04 	ldr.w	r7, [sp], #4
 8002922:	4770      	bx	lr
 8002924:	40021000 	.word	0x40021000

08002928 <LL_APB2_GRP1_EnableClock>:
{
 8002928:	b480      	push	{r7}
 800292a:	b085      	sub	sp, #20
 800292c:	af00      	add	r7, sp, #0
 800292e:	6078      	str	r0, [r7, #4]
  SET_BIT(RCC->APB2ENR, Periphs);
 8002930:	4b08      	ldr	r3, [pc, #32]	@ (8002954 <LL_APB2_GRP1_EnableClock+0x2c>)
 8002932:	6e1a      	ldr	r2, [r3, #96]	@ 0x60
 8002934:	4907      	ldr	r1, [pc, #28]	@ (8002954 <LL_APB2_GRP1_EnableClock+0x2c>)
 8002936:	687b      	ldr	r3, [r7, #4]
 8002938:	4313      	orrs	r3, r2
 800293a:	660b      	str	r3, [r1, #96]	@ 0x60
  tmpreg = READ_BIT(RCC->APB2ENR, Periphs);
 800293c:	4b05      	ldr	r3, [pc, #20]	@ (8002954 <LL_APB2_GRP1_EnableClock+0x2c>)
 800293e:	6e1a      	ldr	r2, [r3, #96]	@ 0x60
 8002940:	687b      	ldr	r3, [r7, #4]
 8002942:	4013      	ands	r3, r2
 8002944:	60fb      	str	r3, [r7, #12]
  (void)tmpreg;
 8002946:	68fb      	ldr	r3, [r7, #12]
}
 8002948:	bf00      	nop
 800294a:	3714      	adds	r7, #20
 800294c:	46bd      	mov	sp, r7
 800294e:	f85d 7b04 	ldr.w	r7, [sp], #4
 8002952:	4770      	bx	lr
 8002954:	40021000 	.word	0x40021000

08002958 <LL_SPI_SetStandard>:
{
 8002958:	b480      	push	{r7}
 800295a:	b083      	sub	sp, #12
 800295c:	af00      	add	r7, sp, #0
 800295e:	6078      	str	r0, [r7, #4]
 8002960:	6039      	str	r1, [r7, #0]
  MODIFY_REG(SPIx->CR2, SPI_CR2_FRF, Standard);
 8002962:	687b      	ldr	r3, [r7, #4]
 8002964:	685b      	ldr	r3, [r3, #4]
 8002966:	f023 0210 	bic.w	r2, r3, #16
 800296a:	683b      	ldr	r3, [r7, #0]
 800296c:	431a      	orrs	r2, r3
 800296e:	687b      	ldr	r3, [r7, #4]
 8002970:	605a      	str	r2, [r3, #4]
}
 8002972:	bf00      	nop
 8002974:	370c      	adds	r7, #12
 8002976:	46bd      	mov	sp, r7
 8002978:	f85d 7b04 	ldr.w	r7, [sp], #4
 800297c:	4770      	bx	lr

0800297e <LL_SPI_DisableNSSPulseMgt>:
{
 800297e:	b480      	push	{r7}
 8002980:	b083      	sub	sp, #12
 8002982:	af00      	add	r7, sp, #0
 8002984:	6078      	str	r0, [r7, #4]
  CLEAR_BIT(SPIx->CR2, SPI_CR2_NSSP);
 8002986:	687b      	ldr	r3, [r7, #4]
 8002988:	685b      	ldr	r3, [r3, #4]
 800298a:	f023 0208 	bic.w	r2, r3, #8
 800298e:	687b      	ldr	r3, [r7, #4]
 8002990:	605a      	str	r2, [r3, #4]
}
 8002992:	bf00      	nop
 8002994:	370c      	adds	r7, #12
 8002996:	46bd      	mov	sp, r7
 8002998:	f85d 7b04 	ldr.w	r7, [sp], #4
 800299c:	4770      	bx	lr
	...

080029a0 <MX_SPI1_Init>:

/* USER CODE END 0 */

/* SPI1 init function */
void MX_SPI1_Init(void)
{
 80029a0:	b580      	push	{r7, lr}
 80029a2:	b090      	sub	sp, #64	@ 0x40
 80029a4:	af00      	add	r7, sp, #0

  /* USER CODE BEGIN SPI1_Init 0 */

  /* USER CODE END SPI1_Init 0 */

  LL_SPI_InitTypeDef SPI_InitStruct = {0};
 80029a6:	f107 0318 	add.w	r3, r7, #24
 80029aa:	2228      	movs	r2, #40	@ 0x28
 80029ac:	2100      	movs	r1, #0
 80029ae:	4618      	mov	r0, r3
 80029b0:	f004 fd30 	bl	8007414 <memset>

  LL_GPIO_InitTypeDef GPIO_InitStruct = {0};
 80029b4:	463b      	mov	r3, r7
 80029b6:	2200      	movs	r2, #0
 80029b8:	601a      	str	r2, [r3, #0]
 80029ba:	605a      	str	r2, [r3, #4]
 80029bc:	609a      	str	r2, [r3, #8]
 80029be:	60da      	str	r2, [r3, #12]
 80029c0:	611a      	str	r2, [r3, #16]
 80029c2:	615a      	str	r2, [r3, #20]

  /* Peripheral clock enable */
  LL_APB2_GRP1_EnableClock(LL_APB2_GRP1_PERIPH_SPI1);
 80029c4:	f44f 5080 	mov.w	r0, #4096	@ 0x1000
 80029c8:	f7ff ffae 	bl	8002928 <LL_APB2_GRP1_EnableClock>

  LL_AHB2_GRP1_EnableClock(LL_AHB2_GRP1_PERIPH_GPIOA);
 80029cc:	2001      	movs	r0, #1
 80029ce:	f7ff ff7b 	bl	80028c8 <LL_AHB2_GRP1_EnableClock>
  /**SPI1 GPIO Configuration
  PA5   ------> SPI1_SCK
  PA6   ------> SPI1_MISO
  PA7   ------> SPI1_MOSI
  */
  GPIO_InitStruct.Pin = IMU_SCK_Pin|IMU_MISO_Pin|IMU_MOSI_Pin;
 80029d2:	23e0      	movs	r3, #224	@ 0xe0
 80029d4:	603b      	str	r3, [r7, #0]
  GPIO_InitStruct.Mode = LL_GPIO_MODE_ALTERNATE;
 80029d6:	2302      	movs	r3, #2
 80029d8:	607b      	str	r3, [r7, #4]
  GPIO_InitStruct.Speed = LL_GPIO_SPEED_FREQ_VERY_HIGH;
 80029da:	2303      	movs	r3, #3
 80029dc:	60bb      	str	r3, [r7, #8]
  GPIO_InitStruct.OutputType = LL_GPIO_OUTPUT_PUSHPULL;
 80029de:	2300      	movs	r3, #0
 80029e0:	60fb      	str	r3, [r7, #12]
  GPIO_InitStruct.Pull = LL_GPIO_PULL_NO;
 80029e2:	2300      	movs	r3, #0
 80029e4:	613b      	str	r3, [r7, #16]
  GPIO_InitStruct.Alternate = LL_GPIO_AF_5;
 80029e6:	2305      	movs	r3, #5
 80029e8:	617b      	str	r3, [r7, #20]
  LL_GPIO_Init(GPIOA, &GPIO_InitStruct);
 80029ea:	463b      	mov	r3, r7
 80029ec:	4619      	mov	r1, r3
 80029ee:	f04f 4090 	mov.w	r0, #1207959552	@ 0x48000000
 80029f2:	f003 fef8 	bl	80067e6 <LL_GPIO_Init>

  /* USER CODE BEGIN SPI1_Init 1 */

  /* USER CODE END SPI1_Init 1 */
  SPI_InitStruct.TransferDirection = LL_SPI_FULL_DUPLEX;
 80029f6:	2300      	movs	r3, #0
 80029f8:	61bb      	str	r3, [r7, #24]
  SPI_InitStruct.Mode = LL_SPI_MODE_MASTER;
 80029fa:	f44f 7382 	mov.w	r3, #260	@ 0x104
 80029fe:	61fb      	str	r3, [r7, #28]
  SPI_InitStruct.DataWidth = LL_SPI_DATAWIDTH_8BIT;
 8002a00:	f44f 63e0 	mov.w	r3, #1792	@ 0x700
 8002a04:	623b      	str	r3, [r7, #32]
  SPI_InitStruct.ClockPolarity = LL_SPI_POLARITY_HIGH;
 8002a06:	2302      	movs	r3, #2
 8002a08:	627b      	str	r3, [r7, #36]	@ 0x24
  SPI_InitStruct.ClockPhase = LL_SPI_PHASE_2EDGE;
 8002a0a:	2301      	movs	r3, #1
 8002a0c:	62bb      	str	r3, [r7, #40]	@ 0x28
  SPI_InitStruct.NSS = LL_SPI_NSS_SOFT;
 8002a0e:	f44f 7300 	mov.w	r3, #512	@ 0x200
 8002a12:	62fb      	str	r3, [r7, #44]	@ 0x2c
  SPI_InitStruct.BaudRate = LL_SPI_BAUDRATEPRESCALER_DIV4;
 8002a14:	2308      	movs	r3, #8
 8002a16:	633b      	str	r3, [r7, #48]	@ 0x30
  SPI_InitStruct.BitOrder = LL_SPI_MSB_FIRST;
 8002a18:	2300      	movs	r3, #0
 8002a1a:	637b      	str	r3, [r7, #52]	@ 0x34
  SPI_InitStruct.CRCCalculation = LL_SPI_CRCCALCULATION_DISABLE;
 8002a1c:	2300      	movs	r3, #0
 8002a1e:	63bb      	str	r3, [r7, #56]	@ 0x38
  SPI_InitStruct.CRCPoly = 7;
 8002a20:	2307      	movs	r3, #7
 8002a22:	63fb      	str	r3, [r7, #60]	@ 0x3c
  LL_SPI_Init(SPI1, &SPI_InitStruct);
 8002a24:	f107 0318 	add.w	r3, r7, #24
 8002a28:	4619      	mov	r1, r3
 8002a2a:	4807      	ldr	r0, [pc, #28]	@ (8002a48 <MX_SPI1_Init+0xa8>)
 8002a2c:	f004 fb3e 	bl	80070ac <LL_SPI_Init>
  LL_SPI_SetStandard(SPI1, LL_SPI_PROTOCOL_MOTOROLA);
 8002a30:	2100      	movs	r1, #0
 8002a32:	4805      	ldr	r0, [pc, #20]	@ (8002a48 <MX_SPI1_Init+0xa8>)
 8002a34:	f7ff ff90 	bl	8002958 <LL_SPI_SetStandard>
  LL_SPI_DisableNSSPulseMgt(SPI1);
 8002a38:	4803      	ldr	r0, [pc, #12]	@ (8002a48 <MX_SPI1_Init+0xa8>)
 8002a3a:	f7ff ffa0 	bl	800297e <LL_SPI_DisableNSSPulseMgt>
  /* USER CODE BEGIN SPI1_Init 2 */

  /* USER CODE END SPI1_Init 2 */

}
 8002a3e:	bf00      	nop
 8002a40:	3740      	adds	r7, #64	@ 0x40
 8002a42:	46bd      	mov	sp, r7
 8002a44:	bd80      	pop	{r7, pc}
 8002a46:	bf00      	nop
 8002a48:	40013000 	.word	0x40013000

08002a4c <MX_SPI2_Init>:
/* SPI2 init function */
void MX_SPI2_Init(void)
{
 8002a4c:	b580      	push	{r7, lr}
 8002a4e:	b090      	sub	sp, #64	@ 0x40
 8002a50:	af00      	add	r7, sp, #0

  /* USER CODE BEGIN SPI2_Init 0 */

  /* USER CODE END SPI2_Init 0 */

  LL_SPI_InitTypeDef SPI_InitStruct = {0};
 8002a52:	f107 0318 	add.w	r3, r7, #24
 8002a56:	2228      	movs	r2, #40	@ 0x28
 8002a58:	2100      	movs	r1, #0
 8002a5a:	4618      	mov	r0, r3
 8002a5c:	f004 fcda 	bl	8007414 <memset>

  LL_GPIO_InitTypeDef GPIO_InitStruct = {0};
 8002a60:	463b      	mov	r3, r7
 8002a62:	2200      	movs	r2, #0
 8002a64:	601a      	str	r2, [r3, #0]
 8002a66:	605a      	str	r2, [r3, #4]
 8002a68:	609a      	str	r2, [r3, #8]
 8002a6a:	60da      	str	r2, [r3, #12]
 8002a6c:	611a      	str	r2, [r3, #16]
 8002a6e:	615a      	str	r2, [r3, #20]

  /* Peripheral clock enable */
  LL_APB1_GRP1_EnableClock(LL_APB1_GRP1_PERIPH_SPI2);
 8002a70:	f44f 4080 	mov.w	r0, #16384	@ 0x4000
 8002a74:	f7ff ff40 	bl	80028f8 <LL_APB1_GRP1_EnableClock>

  LL_AHB2_GRP1_EnableClock(LL_AHB2_GRP1_PERIPH_GPIOB);
 8002a78:	2002      	movs	r0, #2
 8002a7a:	f7ff ff25 	bl	80028c8 <LL_AHB2_GRP1_EnableClock>
  /**SPI2 GPIO Configuration
  PB13   ------> SPI2_SCK
  PB14   ------> SPI2_MISO
  PB15   ------> SPI2_MOSI
  */
  GPIO_InitStruct.Pin = EPOS4_SCK_Pin|EPOS4_MISO_Pin|EPOS4_MOSI_Pin;
 8002a7e:	f44f 4360 	mov.w	r3, #57344	@ 0xe000
 8002a82:	603b      	str	r3, [r7, #0]
  GPIO_InitStruct.Mode = LL_GPIO_MODE_ALTERNATE;
 8002a84:	2302      	movs	r3, #2
 8002a86:	607b      	str	r3, [r7, #4]
  GPIO_InitStruct.Speed = LL_GPIO_SPEED_FREQ_VERY_HIGH;
 8002a88:	2303      	movs	r3, #3
 8002a8a:	60bb      	str	r3, [r7, #8]
  GPIO_InitStruct.OutputType = LL_GPIO_OUTPUT_PUSHPULL;
 8002a8c:	2300      	movs	r3, #0
 8002a8e:	60fb      	str	r3, [r7, #12]
  GPIO_InitStruct.Pull = LL_GPIO_PULL_NO;
 8002a90:	2300      	movs	r3, #0
 8002a92:	613b      	str	r3, [r7, #16]
  GPIO_InitStruct.Alternate = LL_GPIO_AF_5;
 8002a94:	2305      	movs	r3, #5
 8002a96:	617b      	str	r3, [r7, #20]
  LL_GPIO_Init(GPIOB, &GPIO_InitStruct);
 8002a98:	463b      	mov	r3, r7
 8002a9a:	4619      	mov	r1, r3
 8002a9c:	4815      	ldr	r0, [pc, #84]	@ (8002af4 <MX_SPI2_Init+0xa8>)
 8002a9e:	f003 fea2 	bl	80067e6 <LL_GPIO_Init>

  /* USER CODE BEGIN SPI2_Init 1 */

  /* USER CODE END SPI2_Init 1 */
  SPI_InitStruct.TransferDirection = LL_SPI_FULL_DUPLEX;
 8002aa2:	2300      	movs	r3, #0
 8002aa4:	61bb      	str	r3, [r7, #24]
  SPI_InitStruct.Mode = LL_SPI_MODE_MASTER;
 8002aa6:	f44f 7382 	mov.w	r3, #260	@ 0x104
 8002aaa:	61fb      	str	r3, [r7, #28]
  SPI_InitStruct.DataWidth = LL_SPI_DATAWIDTH_8BIT;
 8002aac:	f44f 63e0 	mov.w	r3, #1792	@ 0x700
 8002ab0:	623b      	str	r3, [r7, #32]
  SPI_InitStruct.ClockPolarity = LL_SPI_POLARITY_HIGH;
 8002ab2:	2302      	movs	r3, #2
 8002ab4:	627b      	str	r3, [r7, #36]	@ 0x24
  SPI_InitStruct.ClockPhase = LL_SPI_PHASE_2EDGE;
 8002ab6:	2301      	movs	r3, #1
 8002ab8:	62bb      	str	r3, [r7, #40]	@ 0x28
  SPI_InitStruct.NSS = LL_SPI_NSS_SOFT;
 8002aba:	f44f 7300 	mov.w	r3, #512	@ 0x200
 8002abe:	62fb      	str	r3, [r7, #44]	@ 0x2c
  SPI_InitStruct.BaudRate = LL_SPI_BAUDRATEPRESCALER_DIV4;
 8002ac0:	2308      	movs	r3, #8
 8002ac2:	633b      	str	r3, [r7, #48]	@ 0x30
  SPI_InitStruct.BitOrder = LL_SPI_MSB_FIRST;
 8002ac4:	2300      	movs	r3, #0
 8002ac6:	637b      	str	r3, [r7, #52]	@ 0x34
  SPI_InitStruct.CRCCalculation = LL_SPI_CRCCALCULATION_DISABLE;
 8002ac8:	2300      	movs	r3, #0
 8002aca:	63bb      	str	r3, [r7, #56]	@ 0x38
  SPI_InitStruct.CRCPoly = 7;
 8002acc:	2307      	movs	r3, #7
 8002ace:	63fb      	str	r3, [r7, #60]	@ 0x3c
  LL_SPI_Init(SPI2, &SPI_InitStruct);
 8002ad0:	f107 0318 	add.w	r3, r7, #24
 8002ad4:	4619      	mov	r1, r3
 8002ad6:	4808      	ldr	r0, [pc, #32]	@ (8002af8 <MX_SPI2_Init+0xac>)
 8002ad8:	f004 fae8 	bl	80070ac <LL_SPI_Init>
  LL_SPI_SetStandard(SPI2, LL_SPI_PROTOCOL_MOTOROLA);
 8002adc:	2100      	movs	r1, #0
 8002ade:	4806      	ldr	r0, [pc, #24]	@ (8002af8 <MX_SPI2_Init+0xac>)
 8002ae0:	f7ff ff3a 	bl	8002958 <LL_SPI_SetStandard>
  LL_SPI_DisableNSSPulseMgt(SPI2);
 8002ae4:	4804      	ldr	r0, [pc, #16]	@ (8002af8 <MX_SPI2_Init+0xac>)
 8002ae6:	f7ff ff4a 	bl	800297e <LL_SPI_DisableNSSPulseMgt>
  /* USER CODE BEGIN SPI2_Init 2 */

  /* USER CODE END SPI2_Init 2 */

}
 8002aea:	bf00      	nop
 8002aec:	3740      	adds	r7, #64	@ 0x40
 8002aee:	46bd      	mov	sp, r7
 8002af0:	bd80      	pop	{r7, pc}
 8002af2:	bf00      	nop
 8002af4:	48000400 	.word	0x48000400
 8002af8:	40003800 	.word	0x40003800

08002afc <LL_LPTIM_ClearFLAG_ARRM>:
{
 8002afc:	b480      	push	{r7}
 8002afe:	b083      	sub	sp, #12
 8002b00:	af00      	add	r7, sp, #0
 8002b02:	6078      	str	r0, [r7, #4]
  SET_BIT(LPTIMx->ICR, LPTIM_ICR_ARRMCF);
 8002b04:	687b      	ldr	r3, [r7, #4]
 8002b06:	685b      	ldr	r3, [r3, #4]
 8002b08:	f043 0202 	orr.w	r2, r3, #2
 8002b0c:	687b      	ldr	r3, [r7, #4]
 8002b0e:	605a      	str	r2, [r3, #4]
}
 8002b10:	bf00      	nop
 8002b12:	370c      	adds	r7, #12
 8002b14:	46bd      	mov	sp, r7
 8002b16:	f85d 7b04 	ldr.w	r7, [sp], #4
 8002b1a:	4770      	bx	lr

08002b1c <LL_LPTIM_IsActiveFlag_ARRM>:
{
 8002b1c:	b480      	push	{r7}
 8002b1e:	b083      	sub	sp, #12
 8002b20:	af00      	add	r7, sp, #0
 8002b22:	6078      	str	r0, [r7, #4]
  return (((READ_BIT(LPTIMx->ISR, LPTIM_ISR_ARRM) == LPTIM_ISR_ARRM) ? 1UL : 0UL));
 8002b24:	687b      	ldr	r3, [r7, #4]
 8002b26:	681b      	ldr	r3, [r3, #0]
 8002b28:	f003 0302 	and.w	r3, r3, #2
 8002b2c:	2b02      	cmp	r3, #2
 8002b2e:	d101      	bne.n	8002b34 <LL_LPTIM_IsActiveFlag_ARRM+0x18>
 8002b30:	2301      	movs	r3, #1
 8002b32:	e000      	b.n	8002b36 <LL_LPTIM_IsActiveFlag_ARRM+0x1a>
 8002b34:	2300      	movs	r3, #0
}
 8002b36:	4618      	mov	r0, r3
 8002b38:	370c      	adds	r7, #12
 8002b3a:	46bd      	mov	sp, r7
 8002b3c:	f85d 7b04 	ldr.w	r7, [sp], #4
 8002b40:	4770      	bx	lr

08002b42 <NMI_Handler>:
/******************************************************************************/
/**
  * @brief This function handles Non maskable interrupt.
  */
void NMI_Handler(void)
{
 8002b42:	b480      	push	{r7}
 8002b44:	af00      	add	r7, sp, #0
  /* USER CODE BEGIN NonMaskableInt_IRQn 0 */

  /* USER CODE END NonMaskableInt_IRQn 0 */
  /* USER CODE BEGIN NonMaskableInt_IRQn 1 */
  while (1)
 8002b46:	bf00      	nop
 8002b48:	e7fd      	b.n	8002b46 <NMI_Handler+0x4>

08002b4a <HardFault_Handler>:

/**
  * @brief This function handles Hard fault interrupt.
  */
void HardFault_Handler(void)
{
 8002b4a:	b480      	push	{r7}
 8002b4c:	af00      	add	r7, sp, #0
  /* USER CODE BEGIN HardFault_IRQn 0 */

  /* USER CODE END HardFault_IRQn 0 */
  while (1)
 8002b4e:	bf00      	nop
 8002b50:	e7fd      	b.n	8002b4e <HardFault_Handler+0x4>

08002b52 <MemManage_Handler>:

/**
  * @brief This function handles Memory management fault.
  */
void MemManage_Handler(void)
{
 8002b52:	b480      	push	{r7}
 8002b54:	af00      	add	r7, sp, #0
  /* USER CODE BEGIN MemoryManagement_IRQn 0 */

  /* USER CODE END MemoryManagement_IRQn 0 */
  while (1)
 8002b56:	bf00      	nop
 8002b58:	e7fd      	b.n	8002b56 <MemManage_Handler+0x4>

08002b5a <BusFault_Handler>:

/**
  * @brief This function handles Prefetch fault, memory access fault.
  */
void BusFault_Handler(void)
{
 8002b5a:	b480      	push	{r7}
 8002b5c:	af00      	add	r7, sp, #0
  /* USER CODE BEGIN BusFault_IRQn 0 */

  /* USER CODE END BusFault_IRQn 0 */
  while (1)
 8002b5e:	bf00      	nop
 8002b60:	e7fd      	b.n	8002b5e <BusFault_Handler+0x4>

08002b62 <UsageFault_Handler>:

/**
  * @brief This function handles Undefined instruction or illegal state.
  */
void UsageFault_Handler(void)
{
 8002b62:	b480      	push	{r7}
 8002b64:	af00      	add	r7, sp, #0
  /* USER CODE BEGIN UsageFault_IRQn 0 */

  /* USER CODE END UsageFault_IRQn 0 */
  while (1)
 8002b66:	bf00      	nop
 8002b68:	e7fd      	b.n	8002b66 <UsageFault_Handler+0x4>

08002b6a <SVC_Handler>:

/**
  * @brief This function handles System service call via SWI instruction.
  */
void SVC_Handler(void)
{
 8002b6a:	b480      	push	{r7}
 8002b6c:	af00      	add	r7, sp, #0

  /* USER CODE END SVCall_IRQn 0 */
  /* USER CODE BEGIN SVCall_IRQn 1 */

  /* USER CODE END SVCall_IRQn 1 */
}
 8002b6e:	bf00      	nop
 8002b70:	46bd      	mov	sp, r7
 8002b72:	f85d 7b04 	ldr.w	r7, [sp], #4
 8002b76:	4770      	bx	lr

08002b78 <DebugMon_Handler>:

/**
  * @brief This function handles Debug monitor.
  */
void DebugMon_Handler(void)
{
 8002b78:	b480      	push	{r7}
 8002b7a:	af00      	add	r7, sp, #0

  /* USER CODE END DebugMonitor_IRQn 0 */
  /* USER CODE BEGIN DebugMonitor_IRQn 1 */

  /* USER CODE END DebugMonitor_IRQn 1 */
}
 8002b7c:	bf00      	nop
 8002b7e:	46bd      	mov	sp, r7
 8002b80:	f85d 7b04 	ldr.w	r7, [sp], #4
 8002b84:	4770      	bx	lr

08002b86 <PendSV_Handler>:

/**
  * @brief This function handles Pendable request for system service.
  */
void PendSV_Handler(void)
{
 8002b86:	b480      	push	{r7}
 8002b88:	af00      	add	r7, sp, #0

  /* USER CODE END PendSV_IRQn 0 */
  /* USER CODE BEGIN PendSV_IRQn 1 */

  /* USER CODE END PendSV_IRQn 1 */
}
 8002b8a:	bf00      	nop
 8002b8c:	46bd      	mov	sp, r7
 8002b8e:	f85d 7b04 	ldr.w	r7, [sp], #4
 8002b92:	4770      	bx	lr

08002b94 <SysTick_Handler>:

/**
  * @brief This function handles System tick timer.
  */
void SysTick_Handler(void)
{
 8002b94:	b580      	push	{r7, lr}
 8002b96:	af00      	add	r7, sp, #0

/******************************************************************************
* USER SysTick_Handler
******************************************************************************/

	systick_app_timer_tickAndProcess();
 8002b98:	f000 f828 	bl	8002bec <systick_app_timer_tickAndProcess>
  /* USER CODE END SysTick_IRQn 0 */

  /* USER CODE BEGIN SysTick_IRQn 1 */

  /* USER CODE END SysTick_IRQn 1 */
}
 8002b9c:	bf00      	nop
 8002b9e:	bd80      	pop	{r7, pc}

08002ba0 <LPTIM2_IRQHandler>:

/**
  * @brief This function handles LPTIM2 global interrupt.
  */
void LPTIM2_IRQHandler(void)
{
 8002ba0:	b580      	push	{r7, lr}
 8002ba2:	af00      	add	r7, sp, #0
/******************************************************************************
* USER LPTIM2_IRQHandler
******************************************************************************/

	// Wait for auto reload match to occur
	if(LL_LPTIM_IsActiveFlag_ARRM(LPTIM2) == 1)
 8002ba4:	4806      	ldr	r0, [pc, #24]	@ (8002bc0 <LPTIM2_IRQHandler+0x20>)
 8002ba6:	f7ff ffb9 	bl	8002b1c <LL_LPTIM_IsActiveFlag_ARRM>
 8002baa:	4603      	mov	r3, r0
 8002bac:	2b01      	cmp	r3, #1
 8002bae:	d105      	bne.n	8002bbc <LPTIM2_IRQHandler+0x1c>
	{
		isProsthesisControlRequired = 1;	// Set flag for prosthesis control
 8002bb0:	4b04      	ldr	r3, [pc, #16]	@ (8002bc4 <LPTIM2_IRQHandler+0x24>)
 8002bb2:	2201      	movs	r2, #1
 8002bb4:	701a      	strb	r2, [r3, #0]
		LL_LPTIM_ClearFLAG_ARRM(LPTIM2);	// Clear ARR interrupt flag
 8002bb6:	4802      	ldr	r0, [pc, #8]	@ (8002bc0 <LPTIM2_IRQHandler+0x20>)
 8002bb8:	f7ff ffa0 	bl	8002afc <LL_LPTIM_ClearFLAG_ARRM>

  /* USER CODE END LPTIM2_IRQn 0 */
  /* USER CODE BEGIN LPTIM2_IRQn 1 */

  /* USER CODE END LPTIM2_IRQn 1 */
}
 8002bbc:	bf00      	nop
 8002bbe:	bd80      	pop	{r7, pc}
 8002bc0:	40009400 	.word	0x40009400
 8002bc4:	20000064 	.word	0x20000064

08002bc8 <SystemInit>:
  * @brief  Setup the microcontroller system.
  * @retval None
  */

void SystemInit(void)
{
 8002bc8:	b480      	push	{r7}
 8002bca:	af00      	add	r7, sp, #0
  SCB->VTOR = VECT_TAB_BASE_ADDRESS | VECT_TAB_OFFSET;
#endif

  /* FPU settings ------------------------------------------------------------*/
#if (__FPU_PRESENT == 1) && (__FPU_USED == 1)
  SCB->CPACR |= ((3UL << 20U)|(3UL << 22U));  /* set CP10 and CP11 Full Access */
 8002bcc:	4b06      	ldr	r3, [pc, #24]	@ (8002be8 <SystemInit+0x20>)
 8002bce:	f8d3 3088 	ldr.w	r3, [r3, #136]	@ 0x88
 8002bd2:	4a05      	ldr	r2, [pc, #20]	@ (8002be8 <SystemInit+0x20>)
 8002bd4:	f443 0370 	orr.w	r3, r3, #15728640	@ 0xf00000
 8002bd8:	f8c2 3088 	str.w	r3, [r2, #136]	@ 0x88
#endif
}
 8002bdc:	bf00      	nop
 8002bde:	46bd      	mov	sp, r7
 8002be0:	f85d 7b04 	ldr.w	r7, [sp], #4
 8002be4:	4770      	bx	lr
 8002be6:	bf00      	nop
 8002be8:	e000ed00 	.word	0xe000ed00

08002bec <systick_app_timer_tickAndProcess>:
/*
 * Use this if you want the systick to incrment timers and process alarms/callbacks.
 * Do not use with long callback context
 * This is useful if at least one of the timers needs interrupt priority
 */
void systick_app_timer_tickAndProcess() {
 8002bec:	b580      	push	{r7, lr}
 8002bee:	b082      	sub	sp, #8
 8002bf0:	af00      	add	r7, sp, #0

	for (uint8_t i = 0; i < APP_TIMER_MAX_CHANNELS; i++) {
 8002bf2:	2300      	movs	r3, #0
 8002bf4:	71fb      	strb	r3, [r7, #7]
 8002bf6:	e050      	b.n	8002c9a <systick_app_timer_tickAndProcess+0xae>
			// quick null check, for sanity
			if (appTimer.channel[i].timer != 0) {
 8002bf8:	79fb      	ldrb	r3, [r7, #7]
 8002bfa:	4a2c      	ldr	r2, [pc, #176]	@ (8002cac <systick_app_timer_tickAndProcess+0xc0>)
 8002bfc:	00db      	lsls	r3, r3, #3
 8002bfe:	4413      	add	r3, r2
 8002c00:	685b      	ldr	r3, [r3, #4]
 8002c02:	2b00      	cmp	r3, #0
 8002c04:	d046      	beq.n	8002c94 <systick_app_timer_tickAndProcess+0xa8>
				if (appTimer.channel[i].active) {
 8002c06:	79fb      	ldrb	r3, [r7, #7]
 8002c08:	4a28      	ldr	r2, [pc, #160]	@ (8002cac <systick_app_timer_tickAndProcess+0xc0>)
 8002c0a:	f812 3033 	ldrb.w	r3, [r2, r3, lsl #3]
 8002c0e:	2b00      	cmp	r3, #0
 8002c10:	d040      	beq.n	8002c94 <systick_app_timer_tickAndProcess+0xa8>
					appTimer.channel[i].timer->value++;
 8002c12:	79fb      	ldrb	r3, [r7, #7]
 8002c14:	4a25      	ldr	r2, [pc, #148]	@ (8002cac <systick_app_timer_tickAndProcess+0xc0>)
 8002c16:	00db      	lsls	r3, r3, #3
 8002c18:	4413      	add	r3, r2
 8002c1a:	685b      	ldr	r3, [r3, #4]
 8002c1c:	685a      	ldr	r2, [r3, #4]
 8002c1e:	3201      	adds	r2, #1
 8002c20:	605a      	str	r2, [r3, #4]
					// if the timer alarm has been set above 0, then there is something to process
					if (appTimer.channel[i].timer->alarm > 0) {
 8002c22:	79fb      	ldrb	r3, [r7, #7]
 8002c24:	4a21      	ldr	r2, [pc, #132]	@ (8002cac <systick_app_timer_tickAndProcess+0xc0>)
 8002c26:	00db      	lsls	r3, r3, #3
 8002c28:	4413      	add	r3, r2
 8002c2a:	685b      	ldr	r3, [r3, #4]
 8002c2c:	68db      	ldr	r3, [r3, #12]
 8002c2e:	2b00      	cmp	r3, #0
 8002c30:	d030      	beq.n	8002c94 <systick_app_timer_tickAndProcess+0xa8>
						// if value meets or exceeds alarm value, process the timer
						if (appTimer.channel[i].timer->value >= appTimer.channel[i].timer->alarm) {
 8002c32:	79fb      	ldrb	r3, [r7, #7]
 8002c34:	4a1d      	ldr	r2, [pc, #116]	@ (8002cac <systick_app_timer_tickAndProcess+0xc0>)
 8002c36:	00db      	lsls	r3, r3, #3
 8002c38:	4413      	add	r3, r2
 8002c3a:	685b      	ldr	r3, [r3, #4]
 8002c3c:	685a      	ldr	r2, [r3, #4]
 8002c3e:	79fb      	ldrb	r3, [r7, #7]
 8002c40:	491a      	ldr	r1, [pc, #104]	@ (8002cac <systick_app_timer_tickAndProcess+0xc0>)
 8002c42:	00db      	lsls	r3, r3, #3
 8002c44:	440b      	add	r3, r1
 8002c46:	685b      	ldr	r3, [r3, #4]
 8002c48:	68db      	ldr	r3, [r3, #12]
 8002c4a:	429a      	cmp	r2, r3
 8002c4c:	d322      	bcc.n	8002c94 <systick_app_timer_tickAndProcess+0xa8>
							// if timer has a callback, call it and then reset the value
							if (appTimer.channel[i].timer->timerAlarmCallback) {
 8002c4e:	79fb      	ldrb	r3, [r7, #7]
 8002c50:	4a16      	ldr	r2, [pc, #88]	@ (8002cac <systick_app_timer_tickAndProcess+0xc0>)
 8002c52:	00db      	lsls	r3, r3, #3
 8002c54:	4413      	add	r3, r2
 8002c56:	685b      	ldr	r3, [r3, #4]
 8002c58:	691b      	ldr	r3, [r3, #16]
 8002c5a:	2b00      	cmp	r3, #0
 8002c5c:	d00d      	beq.n	8002c7a <systick_app_timer_tickAndProcess+0x8e>
								appTimer.channel[i].timer->timerAlarmCallback();
 8002c5e:	79fb      	ldrb	r3, [r7, #7]
 8002c60:	4a12      	ldr	r2, [pc, #72]	@ (8002cac <systick_app_timer_tickAndProcess+0xc0>)
 8002c62:	00db      	lsls	r3, r3, #3
 8002c64:	4413      	add	r3, r2
 8002c66:	685b      	ldr	r3, [r3, #4]
 8002c68:	691b      	ldr	r3, [r3, #16]
 8002c6a:	4798      	blx	r3
								appTimer.channel[i].timer->value = 0;
 8002c6c:	79fb      	ldrb	r3, [r7, #7]
 8002c6e:	4a0f      	ldr	r2, [pc, #60]	@ (8002cac <systick_app_timer_tickAndProcess+0xc0>)
 8002c70:	00db      	lsls	r3, r3, #3
 8002c72:	4413      	add	r3, r2
 8002c74:	685b      	ldr	r3, [r3, #4]
 8002c76:	2200      	movs	r2, #0
 8002c78:	605a      	str	r2, [r3, #4]
							}
							// if single shot, make not active after expiration
							if (appTimer.channel[i].timer->mode == APP_TIMER_MODE_SINGLE) {
 8002c7a:	79fb      	ldrb	r3, [r7, #7]
 8002c7c:	4a0b      	ldr	r2, [pc, #44]	@ (8002cac <systick_app_timer_tickAndProcess+0xc0>)
 8002c7e:	00db      	lsls	r3, r3, #3
 8002c80:	4413      	add	r3, r2
 8002c82:	685b      	ldr	r3, [r3, #4]
 8002c84:	7a1b      	ldrb	r3, [r3, #8]
 8002c86:	2b01      	cmp	r3, #1
 8002c88:	d104      	bne.n	8002c94 <systick_app_timer_tickAndProcess+0xa8>
								appTimer.channel[i].active = false;
 8002c8a:	79fb      	ldrb	r3, [r7, #7]
 8002c8c:	4a07      	ldr	r2, [pc, #28]	@ (8002cac <systick_app_timer_tickAndProcess+0xc0>)
 8002c8e:	2100      	movs	r1, #0
 8002c90:	f802 1033 	strb.w	r1, [r2, r3, lsl #3]
	for (uint8_t i = 0; i < APP_TIMER_MAX_CHANNELS; i++) {
 8002c94:	79fb      	ldrb	r3, [r7, #7]
 8002c96:	3301      	adds	r3, #1
 8002c98:	71fb      	strb	r3, [r7, #7]
 8002c9a:	79fb      	ldrb	r3, [r7, #7]
 8002c9c:	2b09      	cmp	r3, #9
 8002c9e:	d9ab      	bls.n	8002bf8 <systick_app_timer_tickAndProcess+0xc>
						}
					}
				}
			}
		}
}
 8002ca0:	bf00      	nop
 8002ca2:	bf00      	nop
 8002ca4:	3708      	adds	r7, #8
 8002ca6:	46bd      	mov	sp, r7
 8002ca8:	bd80      	pop	{r7, pc}
 8002caa:	bf00      	nop
 8002cac:	2000012c 	.word	0x2000012c

08002cb0 <systick_app_timer_channel_start>:
	}

	return 1; // channel not found
}

uint32_t systick_app_timer_channel_start(uint8_t channel){
 8002cb0:	b480      	push	{r7}
 8002cb2:	b083      	sub	sp, #12
 8002cb4:	af00      	add	r7, sp, #0
 8002cb6:	4603      	mov	r3, r0
 8002cb8:	71fb      	strb	r3, [r7, #7]
	if (channel >= APP_TIMER_MAX_CHANNELS) {
 8002cba:	79fb      	ldrb	r3, [r7, #7]
 8002cbc:	2b09      	cmp	r3, #9
 8002cbe:	d901      	bls.n	8002cc4 <systick_app_timer_channel_start+0x14>
		return 2; // channel number out of bounds
 8002cc0:	2302      	movs	r3, #2
 8002cc2:	e015      	b.n	8002cf0 <systick_app_timer_channel_start+0x40>
	}

	if (appTimer.channel[channel].timer) {
 8002cc4:	79fb      	ldrb	r3, [r7, #7]
 8002cc6:	4a0d      	ldr	r2, [pc, #52]	@ (8002cfc <systick_app_timer_channel_start+0x4c>)
 8002cc8:	00db      	lsls	r3, r3, #3
 8002cca:	4413      	add	r3, r2
 8002ccc:	685b      	ldr	r3, [r3, #4]
 8002cce:	2b00      	cmp	r3, #0
 8002cd0:	d00d      	beq.n	8002cee <systick_app_timer_channel_start+0x3e>
		appTimer.channel[channel].timer->value = 0; // reset when starting
 8002cd2:	79fb      	ldrb	r3, [r7, #7]
 8002cd4:	4a09      	ldr	r2, [pc, #36]	@ (8002cfc <systick_app_timer_channel_start+0x4c>)
 8002cd6:	00db      	lsls	r3, r3, #3
 8002cd8:	4413      	add	r3, r2
 8002cda:	685b      	ldr	r3, [r3, #4]
 8002cdc:	2200      	movs	r2, #0
 8002cde:	605a      	str	r2, [r3, #4]
		appTimer.channel[channel].active = true;
 8002ce0:	79fb      	ldrb	r3, [r7, #7]
 8002ce2:	4a06      	ldr	r2, [pc, #24]	@ (8002cfc <systick_app_timer_channel_start+0x4c>)
 8002ce4:	2101      	movs	r1, #1
 8002ce6:	f802 1033 	strb.w	r1, [r2, r3, lsl #3]
		return 0;
 8002cea:	2300      	movs	r3, #0
 8002cec:	e000      	b.n	8002cf0 <systick_app_timer_channel_start+0x40>
	}

	return 1; // channel not found
 8002cee:	2301      	movs	r3, #1
}
 8002cf0:	4618      	mov	r0, r3
 8002cf2:	370c      	adds	r7, #12
 8002cf4:	46bd      	mov	sp, r7
 8002cf6:	f85d 7b04 	ldr.w	r7, [sp], #4
 8002cfa:	4770      	bx	lr
 8002cfc:	2000012c 	.word	0x2000012c

08002d00 <systick_app_timer_channel_create>:
/*
 * Register a channel. The channel pointer should be declared
 * in memory by the requesting module. It is only pointed at by
 * the app timer module.
 */
uint32_t systick_app_timer_channel_create(systick_app_timer_t * timer){
 8002d00:	b480      	push	{r7}
 8002d02:	b085      	sub	sp, #20
 8002d04:	af00      	add	r7, sp, #0
 8002d06:	6078      	str	r0, [r7, #4]
	if (appTimer.count >= APP_TIMER_MAX_CHANNELS) {
 8002d08:	4b19      	ldr	r3, [pc, #100]	@ (8002d70 <systick_app_timer_channel_create+0x70>)
 8002d0a:	f893 3050 	ldrb.w	r3, [r3, #80]	@ 0x50
 8002d0e:	2b09      	cmp	r3, #9
 8002d10:	d901      	bls.n	8002d16 <systick_app_timer_channel_create+0x16>
		return 2; // timer module is full
 8002d12:	2302      	movs	r3, #2
 8002d14:	e026      	b.n	8002d64 <systick_app_timer_channel_create+0x64>
	}

	uint8_t i;
	for (i = 0; i < APP_TIMER_MAX_CHANNELS; i++) {
 8002d16:	2300      	movs	r3, #0
 8002d18:	73fb      	strb	r3, [r7, #15]
 8002d1a:	e017      	b.n	8002d4c <systick_app_timer_channel_create+0x4c>
		// take the first available slot
		if (appTimer.channel[i].timer == 0) {
 8002d1c:	7bfb      	ldrb	r3, [r7, #15]
 8002d1e:	4a14      	ldr	r2, [pc, #80]	@ (8002d70 <systick_app_timer_channel_create+0x70>)
 8002d20:	00db      	lsls	r3, r3, #3
 8002d22:	4413      	add	r3, r2
 8002d24:	685b      	ldr	r3, [r3, #4]
 8002d26:	2b00      	cmp	r3, #0
 8002d28:	d10d      	bne.n	8002d46 <systick_app_timer_channel_create+0x46>
			appTimer.channel[i].timer = timer;
 8002d2a:	7bfb      	ldrb	r3, [r7, #15]
 8002d2c:	4a10      	ldr	r2, [pc, #64]	@ (8002d70 <systick_app_timer_channel_create+0x70>)
 8002d2e:	00db      	lsls	r3, r3, #3
 8002d30:	4413      	add	r3, r2
 8002d32:	687a      	ldr	r2, [r7, #4]
 8002d34:	605a      	str	r2, [r3, #4]
			appTimer.channel[i].timer->channel = i;
 8002d36:	7bfb      	ldrb	r3, [r7, #15]
 8002d38:	4a0d      	ldr	r2, [pc, #52]	@ (8002d70 <systick_app_timer_channel_create+0x70>)
 8002d3a:	00db      	lsls	r3, r3, #3
 8002d3c:	4413      	add	r3, r2
 8002d3e:	685b      	ldr	r3, [r3, #4]
 8002d40:	7bfa      	ldrb	r2, [r7, #15]
 8002d42:	701a      	strb	r2, [r3, #0]
			break;
 8002d44:	e005      	b.n	8002d52 <systick_app_timer_channel_create+0x52>
	for (i = 0; i < APP_TIMER_MAX_CHANNELS; i++) {
 8002d46:	7bfb      	ldrb	r3, [r7, #15]
 8002d48:	3301      	adds	r3, #1
 8002d4a:	73fb      	strb	r3, [r7, #15]
 8002d4c:	7bfb      	ldrb	r3, [r7, #15]
 8002d4e:	2b09      	cmp	r3, #9
 8002d50:	d9e4      	bls.n	8002d1c <systick_app_timer_channel_create+0x1c>
		}
	}

	appTimer.count++;
 8002d52:	4b07      	ldr	r3, [pc, #28]	@ (8002d70 <systick_app_timer_channel_create+0x70>)
 8002d54:	f893 3050 	ldrb.w	r3, [r3, #80]	@ 0x50
 8002d58:	3301      	adds	r3, #1
 8002d5a:	b2da      	uxtb	r2, r3
 8002d5c:	4b04      	ldr	r3, [pc, #16]	@ (8002d70 <systick_app_timer_channel_create+0x70>)
 8002d5e:	f883 2050 	strb.w	r2, [r3, #80]	@ 0x50

	return 0;
 8002d62:	2300      	movs	r3, #0
}
 8002d64:	4618      	mov	r0, r3
 8002d66:	3714      	adds	r7, #20
 8002d68:	46bd      	mov	sp, r7
 8002d6a:	f85d 7b04 	ldr.w	r7, [sp], #4
 8002d6e:	4770      	bx	lr
 8002d70:	2000012c 	.word	0x2000012c

08002d74 <systick_app_timer_module_init>:

void systick_app_timer_module_init() {
 8002d74:	b580      	push	{r7, lr}
 8002d76:	af00      	add	r7, sp, #0

	memset(&appTimer, 0, sizeof(appTimer));
 8002d78:	2254      	movs	r2, #84	@ 0x54
 8002d7a:	2100      	movs	r1, #0
 8002d7c:	4802      	ldr	r0, [pc, #8]	@ (8002d88 <systick_app_timer_module_init+0x14>)
 8002d7e:	f004 fb49 	bl	8007414 <memset>

}
 8002d82:	bf00      	nop
 8002d84:	bd80      	pop	{r7, pc}
 8002d86:	bf00      	nop
 8002d88:	2000012c 	.word	0x2000012c

08002d8c <LL_RCC_SetUSARTClockSource>:
{
 8002d8c:	b480      	push	{r7}
 8002d8e:	b083      	sub	sp, #12
 8002d90:	af00      	add	r7, sp, #0
 8002d92:	6078      	str	r0, [r7, #4]
  MODIFY_REG(RCC->CCIPR, (USARTxSource >> 16U), (USARTxSource & 0x0000FFFFU));
 8002d94:	4b09      	ldr	r3, [pc, #36]	@ (8002dbc <LL_RCC_SetUSARTClockSource+0x30>)
 8002d96:	f8d3 2088 	ldr.w	r2, [r3, #136]	@ 0x88
 8002d9a:	687b      	ldr	r3, [r7, #4]
 8002d9c:	0c1b      	lsrs	r3, r3, #16
 8002d9e:	43db      	mvns	r3, r3
 8002da0:	401a      	ands	r2, r3
 8002da2:	687b      	ldr	r3, [r7, #4]
 8002da4:	b29b      	uxth	r3, r3
 8002da6:	4905      	ldr	r1, [pc, #20]	@ (8002dbc <LL_RCC_SetUSARTClockSource+0x30>)
 8002da8:	4313      	orrs	r3, r2
 8002daa:	f8c1 3088 	str.w	r3, [r1, #136]	@ 0x88
}
 8002dae:	bf00      	nop
 8002db0:	370c      	adds	r7, #12
 8002db2:	46bd      	mov	sp, r7
 8002db4:	f85d 7b04 	ldr.w	r7, [sp], #4
 8002db8:	4770      	bx	lr
 8002dba:	bf00      	nop
 8002dbc:	40021000 	.word	0x40021000

08002dc0 <LL_AHB2_GRP1_EnableClock>:
{
 8002dc0:	b480      	push	{r7}
 8002dc2:	b085      	sub	sp, #20
 8002dc4:	af00      	add	r7, sp, #0
 8002dc6:	6078      	str	r0, [r7, #4]
  SET_BIT(RCC->AHB2ENR, Periphs);
 8002dc8:	4b08      	ldr	r3, [pc, #32]	@ (8002dec <LL_AHB2_GRP1_EnableClock+0x2c>)
 8002dca:	6cda      	ldr	r2, [r3, #76]	@ 0x4c
 8002dcc:	4907      	ldr	r1, [pc, #28]	@ (8002dec <LL_AHB2_GRP1_EnableClock+0x2c>)
 8002dce:	687b      	ldr	r3, [r7, #4]
 8002dd0:	4313      	orrs	r3, r2
 8002dd2:	64cb      	str	r3, [r1, #76]	@ 0x4c
  tmpreg = READ_BIT(RCC->AHB2ENR, Periphs);
 8002dd4:	4b05      	ldr	r3, [pc, #20]	@ (8002dec <LL_AHB2_GRP1_EnableClock+0x2c>)
 8002dd6:	6cda      	ldr	r2, [r3, #76]	@ 0x4c
 8002dd8:	687b      	ldr	r3, [r7, #4]
 8002dda:	4013      	ands	r3, r2
 8002ddc:	60fb      	str	r3, [r7, #12]
  (void)tmpreg;
 8002dde:	68fb      	ldr	r3, [r7, #12]
}
 8002de0:	bf00      	nop
 8002de2:	3714      	adds	r7, #20
 8002de4:	46bd      	mov	sp, r7
 8002de6:	f85d 7b04 	ldr.w	r7, [sp], #4
 8002dea:	4770      	bx	lr
 8002dec:	40021000 	.word	0x40021000

08002df0 <LL_APB1_GRP1_EnableClock>:
{
 8002df0:	b480      	push	{r7}
 8002df2:	b085      	sub	sp, #20
 8002df4:	af00      	add	r7, sp, #0
 8002df6:	6078      	str	r0, [r7, #4]
  SET_BIT(RCC->APB1ENR1, Periphs);
 8002df8:	4b08      	ldr	r3, [pc, #32]	@ (8002e1c <LL_APB1_GRP1_EnableClock+0x2c>)
 8002dfa:	6d9a      	ldr	r2, [r3, #88]	@ 0x58
 8002dfc:	4907      	ldr	r1, [pc, #28]	@ (8002e1c <LL_APB1_GRP1_EnableClock+0x2c>)
 8002dfe:	687b      	ldr	r3, [r7, #4]
 8002e00:	4313      	orrs	r3, r2
 8002e02:	658b      	str	r3, [r1, #88]	@ 0x58
  tmpreg = READ_BIT(RCC->APB1ENR1, Periphs);
 8002e04:	4b05      	ldr	r3, [pc, #20]	@ (8002e1c <LL_APB1_GRP1_EnableClock+0x2c>)
 8002e06:	6d9a      	ldr	r2, [r3, #88]	@ 0x58
 8002e08:	687b      	ldr	r3, [r7, #4]
 8002e0a:	4013      	ands	r3, r2
 8002e0c:	60fb      	str	r3, [r7, #12]
  (void)tmpreg;
 8002e0e:	68fb      	ldr	r3, [r7, #12]
}
 8002e10:	bf00      	nop
 8002e12:	3714      	adds	r7, #20
 8002e14:	46bd      	mov	sp, r7
 8002e16:	f85d 7b04 	ldr.w	r7, [sp], #4
 8002e1a:	4770      	bx	lr
 8002e1c:	40021000 	.word	0x40021000

08002e20 <LL_USART_Enable>:
  * @rmtoll CR1          UE            LL_USART_Enable
  * @param  USARTx USART Instance
  * @retval None
  */
__STATIC_INLINE void LL_USART_Enable(USART_TypeDef *USARTx)
{
 8002e20:	b480      	push	{r7}
 8002e22:	b083      	sub	sp, #12
 8002e24:	af00      	add	r7, sp, #0
 8002e26:	6078      	str	r0, [r7, #4]
  SET_BIT(USARTx->CR1, USART_CR1_UE);
 8002e28:	687b      	ldr	r3, [r7, #4]
 8002e2a:	681b      	ldr	r3, [r3, #0]
 8002e2c:	f043 0201 	orr.w	r2, r3, #1
 8002e30:	687b      	ldr	r3, [r7, #4]
 8002e32:	601a      	str	r2, [r3, #0]
}
 8002e34:	bf00      	nop
 8002e36:	370c      	adds	r7, #12
 8002e38:	46bd      	mov	sp, r7
 8002e3a:	f85d 7b04 	ldr.w	r7, [sp], #4
 8002e3e:	4770      	bx	lr

08002e40 <LL_USART_ConfigAsyncMode>:
  *         CR3          HDSEL         LL_USART_ConfigAsyncMode
  * @param  USARTx USART Instance
  * @retval None
  */
__STATIC_INLINE void LL_USART_ConfigAsyncMode(USART_TypeDef *USARTx)
{
 8002e40:	b480      	push	{r7}
 8002e42:	b083      	sub	sp, #12
 8002e44:	af00      	add	r7, sp, #0
 8002e46:	6078      	str	r0, [r7, #4]
  /* In Asynchronous mode, the following bits must be kept cleared:
  - LINEN, CLKEN bits in the USART_CR2 register,
  - SCEN, IREN and HDSEL bits in the USART_CR3 register.
  */
  CLEAR_BIT(USARTx->CR2, (USART_CR2_LINEN | USART_CR2_CLKEN));
 8002e48:	687b      	ldr	r3, [r7, #4]
 8002e4a:	685b      	ldr	r3, [r3, #4]
 8002e4c:	f423 4290 	bic.w	r2, r3, #18432	@ 0x4800
 8002e50:	687b      	ldr	r3, [r7, #4]
 8002e52:	605a      	str	r2, [r3, #4]
  CLEAR_BIT(USARTx->CR3, (USART_CR3_SCEN | USART_CR3_IREN | USART_CR3_HDSEL));
 8002e54:	687b      	ldr	r3, [r7, #4]
 8002e56:	689b      	ldr	r3, [r3, #8]
 8002e58:	f023 022a 	bic.w	r2, r3, #42	@ 0x2a
 8002e5c:	687b      	ldr	r3, [r7, #4]
 8002e5e:	609a      	str	r2, [r3, #8]
}
 8002e60:	bf00      	nop
 8002e62:	370c      	adds	r7, #12
 8002e64:	46bd      	mov	sp, r7
 8002e66:	f85d 7b04 	ldr.w	r7, [sp], #4
 8002e6a:	4770      	bx	lr

08002e6c <MX_USART2_UART_Init>:
/* USER CODE END 0 */

/* USART2 init function */

void MX_USART2_UART_Init(void)
{
 8002e6c:	b580      	push	{r7, lr}
 8002e6e:	b08e      	sub	sp, #56	@ 0x38
 8002e70:	af00      	add	r7, sp, #0

  /* USER CODE BEGIN USART2_Init 0 */

  /* USER CODE END USART2_Init 0 */

  LL_USART_InitTypeDef USART_InitStruct = {0};
 8002e72:	f107 031c 	add.w	r3, r7, #28
 8002e76:	2200      	movs	r2, #0
 8002e78:	601a      	str	r2, [r3, #0]
 8002e7a:	605a      	str	r2, [r3, #4]
 8002e7c:	609a      	str	r2, [r3, #8]
 8002e7e:	60da      	str	r2, [r3, #12]
 8002e80:	611a      	str	r2, [r3, #16]
 8002e82:	615a      	str	r2, [r3, #20]
 8002e84:	619a      	str	r2, [r3, #24]

  LL_GPIO_InitTypeDef GPIO_InitStruct = {0};
 8002e86:	1d3b      	adds	r3, r7, #4
 8002e88:	2200      	movs	r2, #0
 8002e8a:	601a      	str	r2, [r3, #0]
 8002e8c:	605a      	str	r2, [r3, #4]
 8002e8e:	609a      	str	r2, [r3, #8]
 8002e90:	60da      	str	r2, [r3, #12]
 8002e92:	611a      	str	r2, [r3, #16]
 8002e94:	615a      	str	r2, [r3, #20]

  LL_RCC_SetUSARTClockSource(LL_RCC_USART2_CLKSOURCE_PCLK1);
 8002e96:	f44f 2040 	mov.w	r0, #786432	@ 0xc0000
 8002e9a:	f7ff ff77 	bl	8002d8c <LL_RCC_SetUSARTClockSource>

  /* Peripheral clock enable */
  LL_APB1_GRP1_EnableClock(LL_APB1_GRP1_PERIPH_USART2);
 8002e9e:	f44f 3000 	mov.w	r0, #131072	@ 0x20000
 8002ea2:	f7ff ffa5 	bl	8002df0 <LL_APB1_GRP1_EnableClock>

  LL_AHB2_GRP1_EnableClock(LL_AHB2_GRP1_PERIPH_GPIOA);
 8002ea6:	2001      	movs	r0, #1
 8002ea8:	f7ff ff8a 	bl	8002dc0 <LL_AHB2_GRP1_EnableClock>
  /**USART2 GPIO Configuration
  PA2   ------> USART2_TX
  PA3   ------> USART2_RX
  */
  GPIO_InitStruct.Pin = USART_TX_Pin|USART_RX_Pin;
 8002eac:	230c      	movs	r3, #12
 8002eae:	607b      	str	r3, [r7, #4]
  GPIO_InitStruct.Mode = LL_GPIO_MODE_ALTERNATE;
 8002eb0:	2302      	movs	r3, #2
 8002eb2:	60bb      	str	r3, [r7, #8]
  GPIO_InitStruct.Speed = LL_GPIO_SPEED_FREQ_VERY_HIGH;
 8002eb4:	2303      	movs	r3, #3
 8002eb6:	60fb      	str	r3, [r7, #12]
  GPIO_InitStruct.OutputType = LL_GPIO_OUTPUT_PUSHPULL;
 8002eb8:	2300      	movs	r3, #0
 8002eba:	613b      	str	r3, [r7, #16]
  GPIO_InitStruct.Pull = LL_GPIO_PULL_NO;
 8002ebc:	2300      	movs	r3, #0
 8002ebe:	617b      	str	r3, [r7, #20]
  GPIO_InitStruct.Alternate = LL_GPIO_AF_7;
 8002ec0:	2307      	movs	r3, #7
 8002ec2:	61bb      	str	r3, [r7, #24]
  LL_GPIO_Init(GPIOA, &GPIO_InitStruct);
 8002ec4:	1d3b      	adds	r3, r7, #4
 8002ec6:	4619      	mov	r1, r3
 8002ec8:	f04f 4090 	mov.w	r0, #1207959552	@ 0x48000000
 8002ecc:	f003 fc8b 	bl	80067e6 <LL_GPIO_Init>

  /* USER CODE BEGIN USART2_Init 1 */

  /* USER CODE END USART2_Init 1 */
  USART_InitStruct.BaudRate = 115200;
 8002ed0:	f44f 33e1 	mov.w	r3, #115200	@ 0x1c200
 8002ed4:	61fb      	str	r3, [r7, #28]
  USART_InitStruct.DataWidth = LL_USART_DATAWIDTH_8B;
 8002ed6:	2300      	movs	r3, #0
 8002ed8:	623b      	str	r3, [r7, #32]
  USART_InitStruct.StopBits = LL_USART_STOPBITS_1;
 8002eda:	2300      	movs	r3, #0
 8002edc:	627b      	str	r3, [r7, #36]	@ 0x24
  USART_InitStruct.Parity = LL_USART_PARITY_NONE;
 8002ede:	2300      	movs	r3, #0
 8002ee0:	62bb      	str	r3, [r7, #40]	@ 0x28
  USART_InitStruct.TransferDirection = LL_USART_DIRECTION_TX_RX;
 8002ee2:	230c      	movs	r3, #12
 8002ee4:	62fb      	str	r3, [r7, #44]	@ 0x2c
  USART_InitStruct.HardwareFlowControl = LL_USART_HWCONTROL_NONE;
 8002ee6:	2300      	movs	r3, #0
 8002ee8:	633b      	str	r3, [r7, #48]	@ 0x30
  USART_InitStruct.OverSampling = LL_USART_OVERSAMPLING_16;
 8002eea:	2300      	movs	r3, #0
 8002eec:	637b      	str	r3, [r7, #52]	@ 0x34
  LL_USART_Init(USART2, &USART_InitStruct);
 8002eee:	f107 031c 	add.w	r3, r7, #28
 8002ef2:	4619      	mov	r1, r3
 8002ef4:	4806      	ldr	r0, [pc, #24]	@ (8002f10 <MX_USART2_UART_Init+0xa4>)
 8002ef6:	f004 f9a1 	bl	800723c <LL_USART_Init>
  LL_USART_ConfigAsyncMode(USART2);
 8002efa:	4805      	ldr	r0, [pc, #20]	@ (8002f10 <MX_USART2_UART_Init+0xa4>)
 8002efc:	f7ff ffa0 	bl	8002e40 <LL_USART_ConfigAsyncMode>
  LL_USART_Enable(USART2);
 8002f00:	4803      	ldr	r0, [pc, #12]	@ (8002f10 <MX_USART2_UART_Init+0xa4>)
 8002f02:	f7ff ff8d 	bl	8002e20 <LL_USART_Enable>
  /* USER CODE BEGIN USART2_Init 2 */

  /* USER CODE END USART2_Init 2 */

}
 8002f06:	bf00      	nop
 8002f08:	3738      	adds	r7, #56	@ 0x38
 8002f0a:	46bd      	mov	sp, r7
 8002f0c:	bd80      	pop	{r7, pc}
 8002f0e:	bf00      	nop
 8002f10:	40004400 	.word	0x40004400

08002f14 <Reset_Handler>:

    .section	.text.Reset_Handler
	.weak	Reset_Handler
	.type	Reset_Handler, %function
Reset_Handler:
  ldr   sp, =_estack    /* Set stack pointer */
 8002f14:	f8df d034 	ldr.w	sp, [pc, #52]	@ 8002f4c <LoopForever+0x2>

/* Call the clock system initialization function.*/
    bl  SystemInit
 8002f18:	f7ff fe56 	bl	8002bc8 <SystemInit>

/* Copy the data segment initializers from flash to SRAM */
  ldr r0, =_sdata
 8002f1c:	480c      	ldr	r0, [pc, #48]	@ (8002f50 <LoopForever+0x6>)
  ldr r1, =_edata
 8002f1e:	490d      	ldr	r1, [pc, #52]	@ (8002f54 <LoopForever+0xa>)
  ldr r2, =_sidata
 8002f20:	4a0d      	ldr	r2, [pc, #52]	@ (8002f58 <LoopForever+0xe>)
  movs r3, #0
 8002f22:	2300      	movs	r3, #0
  b LoopCopyDataInit
 8002f24:	e002      	b.n	8002f2c <LoopCopyDataInit>

08002f26 <CopyDataInit>:

CopyDataInit:
  ldr r4, [r2, r3]
 8002f26:	58d4      	ldr	r4, [r2, r3]
  str r4, [r0, r3]
 8002f28:	50c4      	str	r4, [r0, r3]
  adds r3, r3, #4
 8002f2a:	3304      	adds	r3, #4

08002f2c <LoopCopyDataInit>:

LoopCopyDataInit:
  adds r4, r0, r3
 8002f2c:	18c4      	adds	r4, r0, r3
  cmp r4, r1
 8002f2e:	428c      	cmp	r4, r1
  bcc CopyDataInit
 8002f30:	d3f9      	bcc.n	8002f26 <CopyDataInit>
  
/* Zero fill the bss segment. */
  ldr r2, =_sbss
 8002f32:	4a0a      	ldr	r2, [pc, #40]	@ (8002f5c <LoopForever+0x12>)
  ldr r4, =_ebss
 8002f34:	4c0a      	ldr	r4, [pc, #40]	@ (8002f60 <LoopForever+0x16>)
  movs r3, #0
 8002f36:	2300      	movs	r3, #0
  b LoopFillZerobss
 8002f38:	e001      	b.n	8002f3e <LoopFillZerobss>

08002f3a <FillZerobss>:

FillZerobss:
  str  r3, [r2]
 8002f3a:	6013      	str	r3, [r2, #0]
  adds r2, r2, #4
 8002f3c:	3204      	adds	r2, #4

08002f3e <LoopFillZerobss>:

LoopFillZerobss:
  cmp r2, r4
 8002f3e:	42a2      	cmp	r2, r4
  bcc FillZerobss
 8002f40:	d3fb      	bcc.n	8002f3a <FillZerobss>

/* Call static constructors */
    bl __libc_init_array
 8002f42:	f004 fa6f 	bl	8007424 <__libc_init_array>
/* Call the application's entry point.*/
	bl	main
 8002f46:	f7fe fca9 	bl	800189c <main>

08002f4a <LoopForever>:

LoopForever:
    b LoopForever
 8002f4a:	e7fe      	b.n	8002f4a <LoopForever>
  ldr   sp, =_estack    /* Set stack pointer */
 8002f4c:	20018000 	.word	0x20018000
  ldr r0, =_sdata
 8002f50:	20000000 	.word	0x20000000
  ldr r1, =_edata
 8002f54:	20000048 	.word	0x20000048
  ldr r2, =_sidata
 8002f58:	080081ac 	.word	0x080081ac
  ldr r2, =_sbss
 8002f5c:	20000048 	.word	0x20000048
  ldr r4, =_ebss
 8002f60:	20002878 	.word	0x20002878

08002f64 <ADC1_2_IRQHandler>:
 * @retval : None
*/
    .section	.text.Default_Handler,"ax",%progbits
Default_Handler:
Infinite_Loop:
	b	Infinite_Loop
 8002f64:	e7fe      	b.n	8002f64 <ADC1_2_IRQHandler>

08002f66 <LL_GPIO_IsInputPinSet>:
{
 8002f66:	b480      	push	{r7}
 8002f68:	b083      	sub	sp, #12
 8002f6a:	af00      	add	r7, sp, #0
 8002f6c:	6078      	str	r0, [r7, #4]
 8002f6e:	6039      	str	r1, [r7, #0]
  return ((READ_BIT(GPIOx->IDR, PinMask) == (PinMask)) ? 1UL : 0UL);
 8002f70:	687b      	ldr	r3, [r7, #4]
 8002f72:	691a      	ldr	r2, [r3, #16]
 8002f74:	683b      	ldr	r3, [r7, #0]
 8002f76:	4013      	ands	r3, r2
 8002f78:	683a      	ldr	r2, [r7, #0]
 8002f7a:	429a      	cmp	r2, r3
 8002f7c:	d101      	bne.n	8002f82 <LL_GPIO_IsInputPinSet+0x1c>
 8002f7e:	2301      	movs	r3, #1
 8002f80:	e000      	b.n	8002f84 <LL_GPIO_IsInputPinSet+0x1e>
 8002f82:	2300      	movs	r3, #0
}
 8002f84:	4618      	mov	r0, r3
 8002f86:	370c      	adds	r7, #12
 8002f88:	46bd      	mov	sp, r7
 8002f8a:	f85d 7b04 	ldr.w	r7, [sp], #4
 8002f8e:	4770      	bx	lr

08002f90 <LL_GPIO_SetOutputPin>:
{
 8002f90:	b480      	push	{r7}
 8002f92:	b083      	sub	sp, #12
 8002f94:	af00      	add	r7, sp, #0
 8002f96:	6078      	str	r0, [r7, #4]
 8002f98:	6039      	str	r1, [r7, #0]
  WRITE_REG(GPIOx->BSRR, PinMask);
 8002f9a:	687b      	ldr	r3, [r7, #4]
 8002f9c:	683a      	ldr	r2, [r7, #0]
 8002f9e:	619a      	str	r2, [r3, #24]
}
 8002fa0:	bf00      	nop
 8002fa2:	370c      	adds	r7, #12
 8002fa4:	46bd      	mov	sp, r7
 8002fa6:	f85d 7b04 	ldr.w	r7, [sp], #4
 8002faa:	4770      	bx	lr

08002fac <LL_GPIO_ResetOutputPin>:
{
 8002fac:	b480      	push	{r7}
 8002fae:	b083      	sub	sp, #12
 8002fb0:	af00      	add	r7, sp, #0
 8002fb2:	6078      	str	r0, [r7, #4]
 8002fb4:	6039      	str	r1, [r7, #0]
  WRITE_REG(GPIOx->BRR, PinMask);
 8002fb6:	687b      	ldr	r3, [r7, #4]
 8002fb8:	683a      	ldr	r2, [r7, #0]
 8002fba:	629a      	str	r2, [r3, #40]	@ 0x28
}
 8002fbc:	bf00      	nop
 8002fbe:	370c      	adds	r7, #12
 8002fc0:	46bd      	mov	sp, r7
 8002fc2:	f85d 7b04 	ldr.w	r7, [sp], #4
 8002fc6:	4770      	bx	lr

08002fc8 <AS5145B_Init>:
/*******************************************************************************
* PUBLIC FUNCTIONS
*******************************************************************************/

void AS5145B_Init ( AS5145B_Init_t *AS5145B_Init )
{
 8002fc8:	b580      	push	{r7, lr}
 8002fca:	b082      	sub	sp, #8
 8002fcc:	af00      	add	r7, sp, #0
 8002fce:	6078      	str	r0, [r7, #4]
	// Copy memory of device initialization handle to device handle (provides ownership of the device handle to this driver)
	memcpy( &AS5145B, AS5145B_Init, sizeof(AS5145B_Init_t) );
 8002fd0:	2214      	movs	r2, #20
 8002fd2:	6879      	ldr	r1, [r7, #4]
 8002fd4:	480b      	ldr	r0, [pc, #44]	@ (8003004 <AS5145B_Init+0x3c>)
 8002fd6:	f004 fa49 	bl	800746c <memcpy>

	// Initialize pins
	LL_GPIO_SetOutputPin( AS5145B.CSn_GPIOx, AS5145B.CSn_Pin );		// Chip select pin initially high (Figure 13 in DS)
 8002fda:	4b0a      	ldr	r3, [pc, #40]	@ (8003004 <AS5145B_Init+0x3c>)
 8002fdc:	681b      	ldr	r3, [r3, #0]
 8002fde:	4a09      	ldr	r2, [pc, #36]	@ (8003004 <AS5145B_Init+0x3c>)
 8002fe0:	8992      	ldrh	r2, [r2, #12]
 8002fe2:	4611      	mov	r1, r2
 8002fe4:	4618      	mov	r0, r3
 8002fe6:	f7ff ffd3 	bl	8002f90 <LL_GPIO_SetOutputPin>
	LL_GPIO_SetOutputPin( AS5145B.CLK_GPIOx, AS5145B.CLK_Pin );		// Clock pin initially high (Figure 13 in DS)
 8002fea:	4b06      	ldr	r3, [pc, #24]	@ (8003004 <AS5145B_Init+0x3c>)
 8002fec:	685b      	ldr	r3, [r3, #4]
 8002fee:	4a05      	ldr	r2, [pc, #20]	@ (8003004 <AS5145B_Init+0x3c>)
 8002ff0:	89d2      	ldrh	r2, [r2, #14]
 8002ff2:	4611      	mov	r1, r2
 8002ff4:	4618      	mov	r0, r3
 8002ff6:	f7ff ffcb 	bl	8002f90 <LL_GPIO_SetOutputPin>
}
 8002ffa:	bf00      	nop
 8002ffc:	3708      	adds	r7, #8
 8002ffe:	46bd      	mov	sp, r7
 8003000:	bd80      	pop	{r7, pc}
 8003002:	bf00      	nop
 8003004:	20000180 	.word	0x20000180

08003008 <AS5145B_ReadData>:

struct AS5145B_Data_s AS5145B_ReadData (void)
{
 8003008:	b580      	push	{r7, lr}
 800300a:	b086      	sub	sp, #24
 800300c:	af00      	add	r7, sp, #0
	struct AS5145B_Data_s data;

	data.pos_raw = 0;
 800300e:	2300      	movs	r3, #0
 8003010:	80bb      	strh	r3, [r7, #4]
	data.status = 0;
 8003012:	2300      	movs	r3, #0
 8003014:	71bb      	strb	r3, [r7, #6]

	// Enable chip select pin
	LL_GPIO_ResetOutputPin( AS5145B.CSn_GPIOx, AS5145B.CSn_Pin );	// Chip select pin is active low
 8003016:	4b45      	ldr	r3, [pc, #276]	@ (800312c <AS5145B_ReadData+0x124>)
 8003018:	681b      	ldr	r3, [r3, #0]
 800301a:	4a44      	ldr	r2, [pc, #272]	@ (800312c <AS5145B_ReadData+0x124>)
 800301c:	8992      	ldrh	r2, [r2, #12]
 800301e:	4611      	mov	r1, r2
 8003020:	4618      	mov	r0, r3
 8003022:	f7ff ffc3 	bl	8002fac <LL_GPIO_ResetOutputPin>
	AS5145B_Delay_500ns();											// Delay of 500 ns minimum required for t_(CLK FE) (Figure 10 and Figure 13 in DS)
 8003026:	f000 f8b3 	bl	8003190 <AS5145B_Delay_500ns>

	// Read angular position in ADC from first 12 bits (MSB first)
	for ( int i = 12-1; i >= 0; i-- )
 800302a:	230b      	movs	r3, #11
 800302c:	617b      	str	r3, [r7, #20]
 800302e:	e02d      	b.n	800308c <AS5145B_ReadData+0x84>
	{
		LL_GPIO_ResetOutputPin( AS5145B.CLK_GPIOx, AS5145B.CLK_Pin );						// Set clock low
 8003030:	4b3e      	ldr	r3, [pc, #248]	@ (800312c <AS5145B_ReadData+0x124>)
 8003032:	685b      	ldr	r3, [r3, #4]
 8003034:	4a3d      	ldr	r2, [pc, #244]	@ (800312c <AS5145B_ReadData+0x124>)
 8003036:	89d2      	ldrh	r2, [r2, #14]
 8003038:	4611      	mov	r1, r2
 800303a:	4618      	mov	r0, r3
 800303c:	f7ff ffb6 	bl	8002fac <LL_GPIO_ResetOutputPin>
		AS5145B_Delay_500ns();																// Delay of 500 ns minimum required for T_(CLK/2) (Figure 10 and Figure 13 in DS)
 8003040:	f000 f8a6 	bl	8003190 <AS5145B_Delay_500ns>
		LL_GPIO_SetOutputPin( AS5145B.CLK_GPIOx, AS5145B.CLK_Pin );							// Set clock high
 8003044:	4b39      	ldr	r3, [pc, #228]	@ (800312c <AS5145B_ReadData+0x124>)
 8003046:	685b      	ldr	r3, [r3, #4]
 8003048:	4a38      	ldr	r2, [pc, #224]	@ (800312c <AS5145B_ReadData+0x124>)
 800304a:	89d2      	ldrh	r2, [r2, #14]
 800304c:	4611      	mov	r1, r2
 800304e:	4618      	mov	r0, r3
 8003050:	f7ff ff9e 	bl	8002f90 <LL_GPIO_SetOutputPin>
		AS5145B_Delay_500ns();																// Delay of 500 ns minimum required for T_(CLK/2) (Figure 10 and Figure 13 in DS)
 8003054:	f000 f89c 	bl	8003190 <AS5145B_Delay_500ns>
		uint8_t temp  = LL_GPIO_IsInputPinSet( AS5145B.DO_GPIOx, AS5145B.DO_Pin ) & 0x01;	// Read data bit
 8003058:	4b34      	ldr	r3, [pc, #208]	@ (800312c <AS5145B_ReadData+0x124>)
 800305a:	689b      	ldr	r3, [r3, #8]
 800305c:	4a33      	ldr	r2, [pc, #204]	@ (800312c <AS5145B_ReadData+0x124>)
 800305e:	8a12      	ldrh	r2, [r2, #16]
 8003060:	4611      	mov	r1, r2
 8003062:	4618      	mov	r0, r3
 8003064:	f7ff ff7f 	bl	8002f66 <LL_GPIO_IsInputPinSet>
 8003068:	4603      	mov	r3, r0
 800306a:	b2db      	uxtb	r3, r3
 800306c:	f003 0301 	and.w	r3, r3, #1
 8003070:	73bb      	strb	r3, [r7, #14]
		data.pos_raw |= (temp) << i;														// Assign and shift bit
 8003072:	f9b7 2004 	ldrsh.w	r2, [r7, #4]
 8003076:	7bb9      	ldrb	r1, [r7, #14]
 8003078:	697b      	ldr	r3, [r7, #20]
 800307a:	fa01 f303 	lsl.w	r3, r1, r3
 800307e:	b21b      	sxth	r3, r3
 8003080:	4313      	orrs	r3, r2
 8003082:	b21b      	sxth	r3, r3
 8003084:	80bb      	strh	r3, [r7, #4]
	for ( int i = 12-1; i >= 0; i-- )
 8003086:	697b      	ldr	r3, [r7, #20]
 8003088:	3b01      	subs	r3, #1
 800308a:	617b      	str	r3, [r7, #20]
 800308c:	697b      	ldr	r3, [r7, #20]
 800308e:	2b00      	cmp	r3, #0
 8003090:	dace      	bge.n	8003030 <AS5145B_ReadData+0x28>
	}

	// Read remaining 6 status bits (MSB first)
	for ( int i = 6-1; i >= 0; i-- )
 8003092:	2305      	movs	r3, #5
 8003094:	613b      	str	r3, [r7, #16]
 8003096:	e02e      	b.n	80030f6 <AS5145B_ReadData+0xee>
	{
		LL_GPIO_ResetOutputPin( AS5145B.CLK_GPIOx, AS5145B.CLK_Pin );						// Set clock low
 8003098:	4b24      	ldr	r3, [pc, #144]	@ (800312c <AS5145B_ReadData+0x124>)
 800309a:	685b      	ldr	r3, [r3, #4]
 800309c:	4a23      	ldr	r2, [pc, #140]	@ (800312c <AS5145B_ReadData+0x124>)
 800309e:	89d2      	ldrh	r2, [r2, #14]
 80030a0:	4611      	mov	r1, r2
 80030a2:	4618      	mov	r0, r3
 80030a4:	f7ff ff82 	bl	8002fac <LL_GPIO_ResetOutputPin>
		AS5145B_Delay_500ns();																// Delay of 500 ns minimum required for T_(CLK/2) (Figure 10 and Figure 13 in DS)
 80030a8:	f000 f872 	bl	8003190 <AS5145B_Delay_500ns>
		LL_GPIO_SetOutputPin( AS5145B.CLK_GPIOx, AS5145B.CLK_Pin );							// Set clock high
 80030ac:	4b1f      	ldr	r3, [pc, #124]	@ (800312c <AS5145B_ReadData+0x124>)
 80030ae:	685b      	ldr	r3, [r3, #4]
 80030b0:	4a1e      	ldr	r2, [pc, #120]	@ (800312c <AS5145B_ReadData+0x124>)
 80030b2:	89d2      	ldrh	r2, [r2, #14]
 80030b4:	4611      	mov	r1, r2
 80030b6:	4618      	mov	r0, r3
 80030b8:	f7ff ff6a 	bl	8002f90 <LL_GPIO_SetOutputPin>
		AS5145B_Delay_500ns();																// Delay of 500 ns minimum required for T_(CLK/2) (Figure 10 and Figure 13 in DS)
 80030bc:	f000 f868 	bl	8003190 <AS5145B_Delay_500ns>
		uint8_t temp  = LL_GPIO_IsInputPinSet( AS5145B.DO_GPIOx, AS5145B.DO_Pin ) & 0x01;	// Read data bit
 80030c0:	4b1a      	ldr	r3, [pc, #104]	@ (800312c <AS5145B_ReadData+0x124>)
 80030c2:	689b      	ldr	r3, [r3, #8]
 80030c4:	4a19      	ldr	r2, [pc, #100]	@ (800312c <AS5145B_ReadData+0x124>)
 80030c6:	8a12      	ldrh	r2, [r2, #16]
 80030c8:	4611      	mov	r1, r2
 80030ca:	4618      	mov	r0, r3
 80030cc:	f7ff ff4b 	bl	8002f66 <LL_GPIO_IsInputPinSet>
 80030d0:	4603      	mov	r3, r0
 80030d2:	b2db      	uxtb	r3, r3
 80030d4:	f003 0301 	and.w	r3, r3, #1
 80030d8:	73fb      	strb	r3, [r7, #15]
		data.status  |= (temp) << i;														// Assign and shift bit
 80030da:	79bb      	ldrb	r3, [r7, #6]
 80030dc:	b25a      	sxtb	r2, r3
 80030de:	7bf9      	ldrb	r1, [r7, #15]
 80030e0:	693b      	ldr	r3, [r7, #16]
 80030e2:	fa01 f303 	lsl.w	r3, r1, r3
 80030e6:	b25b      	sxtb	r3, r3
 80030e8:	4313      	orrs	r3, r2
 80030ea:	b25b      	sxtb	r3, r3
 80030ec:	b2db      	uxtb	r3, r3
 80030ee:	71bb      	strb	r3, [r7, #6]
	for ( int i = 6-1; i >= 0; i-- )
 80030f0:	693b      	ldr	r3, [r7, #16]
 80030f2:	3b01      	subs	r3, #1
 80030f4:	613b      	str	r3, [r7, #16]
 80030f6:	693b      	ldr	r3, [r7, #16]
 80030f8:	2b00      	cmp	r3, #0
 80030fa:	dacd      	bge.n	8003098 <AS5145B_ReadData+0x90>
	}

	// Disable Chip select pin
	LL_GPIO_SetOutputPin( AS5145B.CSn_GPIOx, AS5145B.CSn_Pin );		// Chip select pin is inactive high
 80030fc:	4b0b      	ldr	r3, [pc, #44]	@ (800312c <AS5145B_ReadData+0x124>)
 80030fe:	681b      	ldr	r3, [r3, #0]
 8003100:	4a0a      	ldr	r2, [pc, #40]	@ (800312c <AS5145B_ReadData+0x124>)
 8003102:	8992      	ldrh	r2, [r2, #12]
 8003104:	4611      	mov	r1, r2
 8003106:	4618      	mov	r0, r3
 8003108:	f7ff ff42 	bl	8002f90 <LL_GPIO_SetOutputPin>
	AS5145B_Delay_500ns();											// Delay of 500 ns minimum required for t_(CSn) (Figure 10 and Figure 13 in DS)
 800310c:	f000 f840 	bl	8003190 <AS5145B_Delay_500ns>

	return data;
 8003110:	687b      	ldr	r3, [r7, #4]
 8003112:	60bb      	str	r3, [r7, #8]
 8003114:	2300      	movs	r3, #0
 8003116:	893a      	ldrh	r2, [r7, #8]
 8003118:	f362 030f 	bfi	r3, r2, #0, #16
 800311c:	897a      	ldrh	r2, [r7, #10]
 800311e:	f362 431f 	bfi	r3, r2, #16, #16
}
 8003122:	4618      	mov	r0, r3
 8003124:	3718      	adds	r7, #24
 8003126:	46bd      	mov	sp, r7
 8003128:	bd80      	pop	{r7, pc}
 800312a:	bf00      	nop
 800312c:	20000180 	.word	0x20000180

08003130 <AS5145B_ReadPosition_Raw>:

uint16_t AS5145B_ReadPosition_Raw (void)
{
 8003130:	b580      	push	{r7, lr}
 8003132:	b082      	sub	sp, #8
 8003134:	af00      	add	r7, sp, #0
	struct AS5145B_Data_s data = AS5145B_ReadData();
 8003136:	f7ff ff67 	bl	8003008 <AS5145B_ReadData>
 800313a:	4603      	mov	r3, r0
 800313c:	607b      	str	r3, [r7, #4]
	return data.pos_raw;
 800313e:	f9b7 3004 	ldrsh.w	r3, [r7, #4]
 8003142:	b29b      	uxth	r3, r3
}
 8003144:	4618      	mov	r0, r3
 8003146:	3708      	adds	r7, #8
 8003148:	46bd      	mov	sp, r7
 800314a:	bd80      	pop	{r7, pc}

0800314c <AS5145B_ReadPosition_Deg>:

float AS5145B_ReadPosition_Deg (void)
{
 800314c:	b580      	push	{r7, lr}
 800314e:	b082      	sub	sp, #8
 8003150:	af00      	add	r7, sp, #0
	uint16_t pos_raw = AS5145B_ReadPosition_Raw();
 8003152:	f7ff ffed 	bl	8003130 <AS5145B_ReadPosition_Raw>
 8003156:	4603      	mov	r3, r0
 8003158:	80fb      	strh	r3, [r7, #6]
	float pos_deg = (float) pos_raw * AS5145B_RAW2DEG;
 800315a:	88fb      	ldrh	r3, [r7, #6]
 800315c:	ee07 3a90 	vmov	s15, r3
 8003160:	eef8 7a67 	vcvt.f32.u32	s15, s15
 8003164:	ed9f 7a08 	vldr	s14, [pc, #32]	@ 8003188 <AS5145B_ReadPosition_Deg+0x3c>
 8003168:	ee27 7a87 	vmul.f32	s14, s15, s14
 800316c:	eddf 6a07 	vldr	s13, [pc, #28]	@ 800318c <AS5145B_ReadPosition_Deg+0x40>
 8003170:	eec7 7a26 	vdiv.f32	s15, s14, s13
 8003174:	edc7 7a00 	vstr	s15, [r7]
	return pos_deg;
 8003178:	683b      	ldr	r3, [r7, #0]
 800317a:	ee07 3a90 	vmov	s15, r3
}
 800317e:	eeb0 0a67 	vmov.f32	s0, s15
 8003182:	3708      	adds	r7, #8
 8003184:	46bd      	mov	sp, r7
 8003186:	bd80      	pop	{r7, pc}
 8003188:	43b40000 	.word	0x43b40000
 800318c:	45800000 	.word	0x45800000

08003190 <AS5145B_Delay_500ns>:
* PRIVATE FUNCTIONS
*******************************************************************************/

// See NOTES at the top of this file for more information
static void AS5145B_Delay_500ns (void)
{
 8003190:	b480      	push	{r7}
 8003192:	b083      	sub	sp, #12
 8003194:	af00      	add	r7, sp, #0
	for ( uint8_t i = 0; i < 2; i++ )
 8003196:	2300      	movs	r3, #0
 8003198:	71fb      	strb	r3, [r7, #7]
 800319a:	e00c      	b.n	80031b6 <AS5145B_Delay_500ns+0x26>
	{
		for( uint8_t j = 0; j < 3; j++ )
 800319c:	2300      	movs	r3, #0
 800319e:	71bb      	strb	r3, [r7, #6]
 80031a0:	e003      	b.n	80031aa <AS5145B_Delay_500ns+0x1a>
			__NOP();
 80031a2:	bf00      	nop
		for( uint8_t j = 0; j < 3; j++ )
 80031a4:	79bb      	ldrb	r3, [r7, #6]
 80031a6:	3301      	adds	r3, #1
 80031a8:	71bb      	strb	r3, [r7, #6]
 80031aa:	79bb      	ldrb	r3, [r7, #6]
 80031ac:	2b02      	cmp	r3, #2
 80031ae:	d9f8      	bls.n	80031a2 <AS5145B_Delay_500ns+0x12>
	for ( uint8_t i = 0; i < 2; i++ )
 80031b0:	79fb      	ldrb	r3, [r7, #7]
 80031b2:	3301      	adds	r3, #1
 80031b4:	71fb      	strb	r3, [r7, #7]
 80031b6:	79fb      	ldrb	r3, [r7, #7]
 80031b8:	2b01      	cmp	r3, #1
 80031ba:	d9ef      	bls.n	800319c <AS5145B_Delay_500ns+0xc>
	}
}
 80031bc:	bf00      	nop
 80031be:	bf00      	nop
 80031c0:	370c      	adds	r7, #12
 80031c2:	46bd      	mov	sp, r7
 80031c4:	f85d 7b04 	ldr.w	r7, [sp], #4
 80031c8:	4770      	bx	lr

080031ca <EPOS4_SetCSTMode>:
// NOTE: According to AN the below process should start at Set CST operation mode.
//       However, the device doesn't operate without first doing Shutdown and
//       then Switch on and enable device. Thus, those functions are added to the
//       beginning.
void EPOS4_SetCSTMode( uint16_t CAN_ID )
{
 80031ca:	b580      	push	{r7, lr}
 80031cc:	b084      	sub	sp, #16
 80031ce:	af00      	add	r7, sp, #0
 80031d0:	4603      	mov	r3, r0
 80031d2:	80fb      	strh	r3, [r7, #6]
	// Declare variables
    uint8_t data[8];

    // Shutdown device
    EPOS4_DataFramer( data, 0x6040, 0x00, 0x06 );
 80031d4:	f107 0008 	add.w	r0, r7, #8
 80031d8:	2306      	movs	r3, #6
 80031da:	2200      	movs	r2, #0
 80031dc:	f246 0140 	movw	r1, #24640	@ 0x6040
 80031e0:	f000 f872 	bl	80032c8 <EPOS4_DataFramer>
    CAN_transmit( CAN_ID, 8, data );
 80031e4:	f107 0208 	add.w	r2, r7, #8
 80031e8:	88fb      	ldrh	r3, [r7, #6]
 80031ea:	2108      	movs	r1, #8
 80031ec:	4618      	mov	r0, r3
 80031ee:	f000 fa76 	bl	80036de <CAN_transmit>
    LL_mDelay(10);									// Can we do better??
 80031f2:	200a      	movs	r0, #10
 80031f4:	f004 f8c6 	bl	8007384 <LL_mDelay>

    // Switch on and enable device
    EPOS4_DataFramer( data, 0x6040, 0x00, 0x0F );
 80031f8:	f107 0008 	add.w	r0, r7, #8
 80031fc:	230f      	movs	r3, #15
 80031fe:	2200      	movs	r2, #0
 8003200:	f246 0140 	movw	r1, #24640	@ 0x6040
 8003204:	f000 f860 	bl	80032c8 <EPOS4_DataFramer>
    CAN_transmit( CAN_ID, 8, data );
 8003208:	f107 0208 	add.w	r2, r7, #8
 800320c:	88fb      	ldrh	r3, [r7, #6]
 800320e:	2108      	movs	r1, #8
 8003210:	4618      	mov	r0, r3
 8003212:	f000 fa64 	bl	80036de <CAN_transmit>
    LL_mDelay(10);									// Can we do better??
 8003216:	200a      	movs	r0, #10
 8003218:	f004 f8b4 	bl	8007384 <LL_mDelay>

    // Set CST operation mode
    EPOS4_DataFramer( data, 0x6060 , 0, 0x0A );
 800321c:	f107 0008 	add.w	r0, r7, #8
 8003220:	230a      	movs	r3, #10
 8003222:	2200      	movs	r2, #0
 8003224:	f246 0160 	movw	r1, #24672	@ 0x6060
 8003228:	f000 f84e 	bl	80032c8 <EPOS4_DataFramer>
    CAN_transmit( CAN_ID, 8, data );
 800322c:	f107 0208 	add.w	r2, r7, #8
 8003230:	88fb      	ldrh	r3, [r7, #6]
 8003232:	2108      	movs	r1, #8
 8003234:	4618      	mov	r0, r3
 8003236:	f000 fa52 	bl	80036de <CAN_transmit>
    LL_mDelay(10);									// Can we do better??
 800323a:	200a      	movs	r0, #10
 800323c:	f004 f8a2 	bl	8007384 <LL_mDelay>

    // Shutdown device
    EPOS4_DataFramer( data, 0x6040, 0x00, 0x06 );
 8003240:	f107 0008 	add.w	r0, r7, #8
 8003244:	2306      	movs	r3, #6
 8003246:	2200      	movs	r2, #0
 8003248:	f246 0140 	movw	r1, #24640	@ 0x6040
 800324c:	f000 f83c 	bl	80032c8 <EPOS4_DataFramer>
    CAN_transmit( CAN_ID, 8, data );
 8003250:	f107 0208 	add.w	r2, r7, #8
 8003254:	88fb      	ldrh	r3, [r7, #6]
 8003256:	2108      	movs	r1, #8
 8003258:	4618      	mov	r0, r3
 800325a:	f000 fa40 	bl	80036de <CAN_transmit>
    LL_mDelay(10);									// Can we do better??
 800325e:	200a      	movs	r0, #10
 8003260:	f004 f890 	bl	8007384 <LL_mDelay>

    // Switch on and enable device
    EPOS4_DataFramer( data, 0x6040, 0x00, 0x0F );
 8003264:	f107 0008 	add.w	r0, r7, #8
 8003268:	230f      	movs	r3, #15
 800326a:	2200      	movs	r2, #0
 800326c:	f246 0140 	movw	r1, #24640	@ 0x6040
 8003270:	f000 f82a 	bl	80032c8 <EPOS4_DataFramer>
    CAN_transmit( CAN_ID, 8, data );
 8003274:	f107 0208 	add.w	r2, r7, #8
 8003278:	88fb      	ldrh	r3, [r7, #6]
 800327a:	2108      	movs	r1, #8
 800327c:	4618      	mov	r0, r3
 800327e:	f000 fa2e 	bl	80036de <CAN_transmit>
    LL_mDelay(10);									// Can we do better??
 8003282:	200a      	movs	r0, #10
 8003284:	f004 f87e 	bl	8007384 <LL_mDelay>
}
 8003288:	bf00      	nop
 800328a:	3710      	adds	r7, #16
 800328c:	46bd      	mov	sp, r7
 800328e:	bd80      	pop	{r7, pc}

08003290 <EPOS4_SetTorque>:

// Set torque per thousand of motor rated torque (Table 7-71 of AN)
// Motor rated torque = nominal current * torque constant
// @param torque	100 = 10% of motor rated torque
void EPOS4_SetTorque( uint16_t CAN_ID, int32_t torque )
{
 8003290:	b580      	push	{r7, lr}
 8003292:	b084      	sub	sp, #16
 8003294:	af00      	add	r7, sp, #0
 8003296:	4603      	mov	r3, r0
 8003298:	6039      	str	r1, [r7, #0]
 800329a:	80fb      	strh	r3, [r7, #6]
    uint8_t data[8];

    EPOS4_DataFramer(data, 0x6071, 0x00, torque);
 800329c:	683b      	ldr	r3, [r7, #0]
 800329e:	f107 0008 	add.w	r0, r7, #8
 80032a2:	2200      	movs	r2, #0
 80032a4:	f246 0171 	movw	r1, #24689	@ 0x6071
 80032a8:	f000 f80e 	bl	80032c8 <EPOS4_DataFramer>

    CAN_transmit(CAN_ID, 8, data);
 80032ac:	f107 0208 	add.w	r2, r7, #8
 80032b0:	88fb      	ldrh	r3, [r7, #6]
 80032b2:	2108      	movs	r1, #8
 80032b4:	4618      	mov	r0, r3
 80032b6:	f000 fa12 	bl	80036de <CAN_transmit>
    EPOS4_usDelay(50);					// Can we do better??
 80032ba:	2032      	movs	r0, #50	@ 0x32
 80032bc:	f000 f83d 	bl	800333a <EPOS4_usDelay>
}
 80032c0:	bf00      	nop
 80032c2:	3710      	adds	r7, #16
 80032c4:	46bd      	mov	sp, r7
 80032c6:	bd80      	pop	{r7, pc}

080032c8 <EPOS4_DataFramer>:
 * OTHER FUNCTIONS
 ******************************************************************************/

// This is useful for later adding in functionality. Should work for any Client to Server SDO
void EPOS4_DataFramer( uint8_t *data, uint16_t object, uint8_t subindex, uint32_t value )
{
 80032c8:	b480      	push	{r7}
 80032ca:	b085      	sub	sp, #20
 80032cc:	af00      	add	r7, sp, #0
 80032ce:	60f8      	str	r0, [r7, #12]
 80032d0:	607b      	str	r3, [r7, #4]
 80032d2:	460b      	mov	r3, r1
 80032d4:	817b      	strh	r3, [r7, #10]
 80032d6:	4613      	mov	r3, r2
 80032d8:	727b      	strb	r3, [r7, #9]
    data[0] = 0x22; 					// [Byte 0] legend Table 5-43 page 5-55 of AN
 80032da:	68fb      	ldr	r3, [r7, #12]
 80032dc:	2222      	movs	r2, #34	@ 0x22
 80032de:	701a      	strb	r2, [r3, #0]
    data[1] = (0x00 | object); 			// Index LowByte
 80032e0:	68fb      	ldr	r3, [r7, #12]
 80032e2:	3301      	adds	r3, #1
 80032e4:	897a      	ldrh	r2, [r7, #10]
 80032e6:	b2d2      	uxtb	r2, r2
 80032e8:	701a      	strb	r2, [r3, #0]
    data[2] = (0x00 | (object >> 8)); 	// Index HighByte
 80032ea:	897b      	ldrh	r3, [r7, #10]
 80032ec:	0a1b      	lsrs	r3, r3, #8
 80032ee:	b29a      	uxth	r2, r3
 80032f0:	68fb      	ldr	r3, [r7, #12]
 80032f2:	3302      	adds	r3, #2
 80032f4:	b2d2      	uxtb	r2, r2
 80032f6:	701a      	strb	r2, [r3, #0]
    data[3] = subindex; 				// subindex
 80032f8:	68fb      	ldr	r3, [r7, #12]
 80032fa:	3303      	adds	r3, #3
 80032fc:	7a7a      	ldrb	r2, [r7, #9]
 80032fe:	701a      	strb	r2, [r3, #0]
    data[4] = (0x00 | value); 			// SDO Byte 0
 8003300:	68fb      	ldr	r3, [r7, #12]
 8003302:	3304      	adds	r3, #4
 8003304:	687a      	ldr	r2, [r7, #4]
 8003306:	b2d2      	uxtb	r2, r2
 8003308:	701a      	strb	r2, [r3, #0]
    data[5] = (0x00 | (value >> 8)); 	// SDO Byte 1
 800330a:	687b      	ldr	r3, [r7, #4]
 800330c:	0a1a      	lsrs	r2, r3, #8
 800330e:	68fb      	ldr	r3, [r7, #12]
 8003310:	3305      	adds	r3, #5
 8003312:	b2d2      	uxtb	r2, r2
 8003314:	701a      	strb	r2, [r3, #0]
    data[6] = (0x00 | (value >> 16)); 	// SDO Byte 2
 8003316:	687b      	ldr	r3, [r7, #4]
 8003318:	0c1a      	lsrs	r2, r3, #16
 800331a:	68fb      	ldr	r3, [r7, #12]
 800331c:	3306      	adds	r3, #6
 800331e:	b2d2      	uxtb	r2, r2
 8003320:	701a      	strb	r2, [r3, #0]
    data[7] = (0x00 | (value >> 24));	// SDO Byte 3
 8003322:	687b      	ldr	r3, [r7, #4]
 8003324:	0e1a      	lsrs	r2, r3, #24
 8003326:	68fb      	ldr	r3, [r7, #12]
 8003328:	3307      	adds	r3, #7
 800332a:	b2d2      	uxtb	r2, r2
 800332c:	701a      	strb	r2, [r3, #0]
}
 800332e:	bf00      	nop
 8003330:	3714      	adds	r7, #20
 8003332:	46bd      	mov	sp, r7
 8003334:	f85d 7b04 	ldr.w	r7, [sp], #4
 8003338:	4770      	bx	lr

0800333a <EPOS4_usDelay>:

// Can we lose this??
void EPOS4_usDelay( uint32_t us )
{
 800333a:	b480      	push	{r7}
 800333c:	b085      	sub	sp, #20
 800333e:	af00      	add	r7, sp, #0
 8003340:	6078      	str	r0, [r7, #4]
    uint32_t i,k;
    for(k=0;k<us;k++)
 8003342:	2300      	movs	r3, #0
 8003344:	60bb      	str	r3, [r7, #8]
 8003346:	e00c      	b.n	8003362 <EPOS4_usDelay+0x28>
    {
    	for(i=0;i<11;i++)
 8003348:	2300      	movs	r3, #0
 800334a:	60fb      	str	r3, [r7, #12]
 800334c:	e003      	b.n	8003356 <EPOS4_usDelay+0x1c>
         __NOP();
 800334e:	bf00      	nop
    	for(i=0;i<11;i++)
 8003350:	68fb      	ldr	r3, [r7, #12]
 8003352:	3301      	adds	r3, #1
 8003354:	60fb      	str	r3, [r7, #12]
 8003356:	68fb      	ldr	r3, [r7, #12]
 8003358:	2b0a      	cmp	r3, #10
 800335a:	d9f8      	bls.n	800334e <EPOS4_usDelay+0x14>
    for(k=0;k<us;k++)
 800335c:	68bb      	ldr	r3, [r7, #8]
 800335e:	3301      	adds	r3, #1
 8003360:	60bb      	str	r3, [r7, #8]
 8003362:	68ba      	ldr	r2, [r7, #8]
 8003364:	687b      	ldr	r3, [r7, #4]
 8003366:	429a      	cmp	r2, r3
 8003368:	d3ee      	bcc.n	8003348 <EPOS4_usDelay+0xe>
    }
}
 800336a:	bf00      	nop
 800336c:	bf00      	nop
 800336e:	3714      	adds	r7, #20
 8003370:	46bd      	mov	sp, r7
 8003372:	f85d 7b04 	ldr.w	r7, [sp], #4
 8003376:	4770      	bx	lr

08003378 <LL_SPI_TransmitData8>:
{
 8003378:	b480      	push	{r7}
 800337a:	b085      	sub	sp, #20
 800337c:	af00      	add	r7, sp, #0
 800337e:	6078      	str	r0, [r7, #4]
 8003380:	460b      	mov	r3, r1
 8003382:	70fb      	strb	r3, [r7, #3]
  __IO uint8_t *spidr = ((__IO uint8_t *)&SPIx->DR);
 8003384:	687b      	ldr	r3, [r7, #4]
 8003386:	330c      	adds	r3, #12
 8003388:	60fb      	str	r3, [r7, #12]
  *spidr = TxData;
 800338a:	68fb      	ldr	r3, [r7, #12]
 800338c:	78fa      	ldrb	r2, [r7, #3]
 800338e:	701a      	strb	r2, [r3, #0]
}
 8003390:	bf00      	nop
 8003392:	3714      	adds	r7, #20
 8003394:	46bd      	mov	sp, r7
 8003396:	f85d 7b04 	ldr.w	r7, [sp], #4
 800339a:	4770      	bx	lr

0800339c <LL_GPIO_SetOutputPin>:
{
 800339c:	b480      	push	{r7}
 800339e:	b083      	sub	sp, #12
 80033a0:	af00      	add	r7, sp, #0
 80033a2:	6078      	str	r0, [r7, #4]
 80033a4:	6039      	str	r1, [r7, #0]
  WRITE_REG(GPIOx->BSRR, PinMask);
 80033a6:	687b      	ldr	r3, [r7, #4]
 80033a8:	683a      	ldr	r2, [r7, #0]
 80033aa:	619a      	str	r2, [r3, #24]
}
 80033ac:	bf00      	nop
 80033ae:	370c      	adds	r7, #12
 80033b0:	46bd      	mov	sp, r7
 80033b2:	f85d 7b04 	ldr.w	r7, [sp], #4
 80033b6:	4770      	bx	lr

080033b8 <LL_GPIO_ResetOutputPin>:
{
 80033b8:	b480      	push	{r7}
 80033ba:	b083      	sub	sp, #12
 80033bc:	af00      	add	r7, sp, #0
 80033be:	6078      	str	r0, [r7, #4]
 80033c0:	6039      	str	r1, [r7, #0]
  WRITE_REG(GPIOx->BRR, PinMask);
 80033c2:	687b      	ldr	r3, [r7, #4]
 80033c4:	683a      	ldr	r2, [r7, #0]
 80033c6:	629a      	str	r2, [r3, #40]	@ 0x28
}
 80033c8:	bf00      	nop
 80033ca:	370c      	adds	r7, #12
 80033cc:	46bd      	mov	sp, r7
 80033ce:	f85d 7b04 	ldr.w	r7, [sp], #4
 80033d2:	4770      	bx	lr

080033d4 <clearChipSelect>:
#include "mcp25625.h"

static mcp25625_t can_tranceiver;

// Disable CS pin (active low)
__STATIC_INLINE void clearChipSelect() {
 80033d4:	b580      	push	{r7, lr}
 80033d6:	af00      	add	r7, sp, #0
	LL_GPIO_SetOutputPin(SPI2_CS_GPIO_Port, SPI2_CS_Pin); }
 80033d8:	f44f 5180 	mov.w	r1, #4096	@ 0x1000
 80033dc:	4802      	ldr	r0, [pc, #8]	@ (80033e8 <clearChipSelect+0x14>)
 80033de:	f7ff ffdd 	bl	800339c <LL_GPIO_SetOutputPin>
 80033e2:	bf00      	nop
 80033e4:	bd80      	pop	{r7, pc}
 80033e6:	bf00      	nop
 80033e8:	48000400 	.word	0x48000400

080033ec <setChipSelect>:

// Enable CS pin (active low)
__STATIC_INLINE void setChipSelect() {
 80033ec:	b580      	push	{r7, lr}
 80033ee:	af00      	add	r7, sp, #0
	LL_GPIO_ResetOutputPin(SPI2_CS_GPIO_Port, SPI2_CS_Pin);}
 80033f0:	f44f 5180 	mov.w	r1, #4096	@ 0x1000
 80033f4:	4802      	ldr	r0, [pc, #8]	@ (8003400 <setChipSelect+0x14>)
 80033f6:	f7ff ffdf 	bl	80033b8 <LL_GPIO_ResetOutputPin>
 80033fa:	bf00      	nop
 80033fc:	bd80      	pop	{r7, pc}
 80033fe:	bf00      	nop
 8003400:	48000400 	.word	0x48000400

08003404 <mcp25625_reset>:

//
void mcp25625_reset()
{
 8003404:	b580      	push	{r7, lr}
 8003406:	b082      	sub	sp, #8
 8003408:	af00      	add	r7, sp, #0
	// Transmit reset command
	setChipSelect();							// Enable CS pin
 800340a:	f7ff ffef 	bl	80033ec <setChipSelect>
	LL_SPI_TransmitData8( SPI2, CMD_RESET );	// Send reset command
 800340e:	21c0      	movs	r1, #192	@ 0xc0
 8003410:	480d      	ldr	r0, [pc, #52]	@ (8003448 <mcp25625_reset+0x44>)
 8003412:	f7ff ffb1 	bl	8003378 <LL_SPI_TransmitData8>
	while ( (SPI2->SR & SPI_SR_BSY) );			// Wait for status register to not be busy
 8003416:	bf00      	nop
 8003418:	4b0b      	ldr	r3, [pc, #44]	@ (8003448 <mcp25625_reset+0x44>)
 800341a:	689b      	ldr	r3, [r3, #8]
 800341c:	f003 0380 	and.w	r3, r3, #128	@ 0x80
 8003420:	2b00      	cmp	r3, #0
 8003422:	d1f9      	bne.n	8003418 <mcp25625_reset+0x14>
	clearChipSelect();							// Disable CS pin
 8003424:	f7ff ffd6 	bl	80033d4 <clearChipSelect>

	// Clear Rx FIFO
	while ( (SPI2->SR & SPI_SR_FRLVL) )		// Check status register for data in Rx
 8003428:	e002      	b.n	8003430 <mcp25625_reset+0x2c>
	{
		uint8_t dummy = SPI2->DR;			// Clear Rx FIFO from the receives
 800342a:	4b07      	ldr	r3, [pc, #28]	@ (8003448 <mcp25625_reset+0x44>)
 800342c:	68db      	ldr	r3, [r3, #12]
 800342e:	71fb      	strb	r3, [r7, #7]
	while ( (SPI2->SR & SPI_SR_FRLVL) )		// Check status register for data in Rx
 8003430:	4b05      	ldr	r3, [pc, #20]	@ (8003448 <mcp25625_reset+0x44>)
 8003432:	689b      	ldr	r3, [r3, #8]
 8003434:	f403 63c0 	and.w	r3, r3, #1536	@ 0x600
 8003438:	2b00      	cmp	r3, #0
 800343a:	d1f6      	bne.n	800342a <mcp25625_reset+0x26>
		(void)dummy;						// Suppress unused variable warning
	}
}
 800343c:	bf00      	nop
 800343e:	bf00      	nop
 8003440:	3708      	adds	r7, #8
 8003442:	46bd      	mov	sp, r7
 8003444:	bd80      	pop	{r7, pc}
 8003446:	bf00      	nop
 8003448:	40003800 	.word	0x40003800

0800344c <mcp25625_writeRegister>:

/*
 * Writing a register does not need to respect the CANINTF register
 */
void mcp25625_writeRegister ( uint8_t reg, uint8_t value )
{
 800344c:	b580      	push	{r7, lr}
 800344e:	b084      	sub	sp, #16
 8003450:	af00      	add	r7, sp, #0
 8003452:	4603      	mov	r3, r0
 8003454:	460a      	mov	r2, r1
 8003456:	71fb      	strb	r3, [r7, #7]
 8003458:	4613      	mov	r3, r2
 800345a:	71bb      	strb	r3, [r7, #6]
	// Transmit value to register
	setChipSelect();						// Enable CS
 800345c:	f7ff ffc6 	bl	80033ec <setChipSelect>
	LL_SPI_TransmitData8(SPI2, CMD_WRITE);	// Send write command
 8003460:	2102      	movs	r1, #2
 8003462:	4816      	ldr	r0, [pc, #88]	@ (80034bc <mcp25625_writeRegister+0x70>)
 8003464:	f7ff ff88 	bl	8003378 <LL_SPI_TransmitData8>
	LL_SPI_TransmitData8(SPI2, reg);		// Send register to write to
 8003468:	79fb      	ldrb	r3, [r7, #7]
 800346a:	4619      	mov	r1, r3
 800346c:	4813      	ldr	r0, [pc, #76]	@ (80034bc <mcp25625_writeRegister+0x70>)
 800346e:	f7ff ff83 	bl	8003378 <LL_SPI_TransmitData8>
	LL_SPI_TransmitData8(SPI2, value);		// Transmit value to register
 8003472:	79bb      	ldrb	r3, [r7, #6]
 8003474:	4619      	mov	r1, r3
 8003476:	4811      	ldr	r0, [pc, #68]	@ (80034bc <mcp25625_writeRegister+0x70>)
 8003478:	f7ff ff7e 	bl	8003378 <LL_SPI_TransmitData8>
	while ( (SPI2->SR & SPI_SR_FTLVL) );	// Wait for Tx FIFO to be empty
 800347c:	bf00      	nop
 800347e:	4b0f      	ldr	r3, [pc, #60]	@ (80034bc <mcp25625_writeRegister+0x70>)
 8003480:	689b      	ldr	r3, [r3, #8]
 8003482:	f403 53c0 	and.w	r3, r3, #6144	@ 0x1800
 8003486:	2b00      	cmp	r3, #0
 8003488:	d1f9      	bne.n	800347e <mcp25625_writeRegister+0x32>
	while ( (SPI2->SR & SPI_SR_BSY) ); 		// Wait for Tx FIFO to not be busy
 800348a:	bf00      	nop
 800348c:	4b0b      	ldr	r3, [pc, #44]	@ (80034bc <mcp25625_writeRegister+0x70>)
 800348e:	689b      	ldr	r3, [r3, #8]
 8003490:	f003 0380 	and.w	r3, r3, #128	@ 0x80
 8003494:	2b00      	cmp	r3, #0
 8003496:	d1f9      	bne.n	800348c <mcp25625_writeRegister+0x40>
	clearChipSelect();						// Disable CS
 8003498:	f7ff ff9c 	bl	80033d4 <clearChipSelect>

	// Clear Rx FIFO
	while ( (SPI2->SR & SPI_SR_FRLVL) )		// Check status register for data in Rx
 800349c:	e002      	b.n	80034a4 <mcp25625_writeRegister+0x58>
	{
		uint8_t dummy = SPI2->DR;			// Clear Rx FIFO from the receives
 800349e:	4b07      	ldr	r3, [pc, #28]	@ (80034bc <mcp25625_writeRegister+0x70>)
 80034a0:	68db      	ldr	r3, [r3, #12]
 80034a2:	73fb      	strb	r3, [r7, #15]
	while ( (SPI2->SR & SPI_SR_FRLVL) )		// Check status register for data in Rx
 80034a4:	4b05      	ldr	r3, [pc, #20]	@ (80034bc <mcp25625_writeRegister+0x70>)
 80034a6:	689b      	ldr	r3, [r3, #8]
 80034a8:	f403 63c0 	and.w	r3, r3, #1536	@ 0x600
 80034ac:	2b00      	cmp	r3, #0
 80034ae:	d1f6      	bne.n	800349e <mcp25625_writeRegister+0x52>
		(void)dummy;						// Suppress unused variable warning
	}
}
 80034b0:	bf00      	nop
 80034b2:	bf00      	nop
 80034b4:	3710      	adds	r7, #16
 80034b6:	46bd      	mov	sp, r7
 80034b8:	bd80      	pop	{r7, pc}
 80034ba:	bf00      	nop
 80034bc:	40003800 	.word	0x40003800

080034c0 <mcp25625_readRegister>:

/*
 * Reading a register does not need to respect the CANINTF register
 */
uint8_t mcp25625_readRegister (uint8_t reg)
{
 80034c0:	b580      	push	{r7, lr}
 80034c2:	b084      	sub	sp, #16
 80034c4:	af00      	add	r7, sp, #0
 80034c6:	4603      	mov	r3, r0
 80034c8:	71fb      	strb	r3, [r7, #7]
	// Read register
	setChipSelect();						// Enable CS
 80034ca:	f7ff ff8f 	bl	80033ec <setChipSelect>
	LL_SPI_TransmitData8(SPI2, CMD_READ);	// Send read command
 80034ce:	2103      	movs	r1, #3
 80034d0:	4814      	ldr	r0, [pc, #80]	@ (8003524 <mcp25625_readRegister+0x64>)
 80034d2:	f7ff ff51 	bl	8003378 <LL_SPI_TransmitData8>
	LL_SPI_TransmitData8(SPI2, reg);		// Send register to read from
 80034d6:	79fb      	ldrb	r3, [r7, #7]
 80034d8:	4619      	mov	r1, r3
 80034da:	4812      	ldr	r0, [pc, #72]	@ (8003524 <mcp25625_readRegister+0x64>)
 80034dc:	f7ff ff4c 	bl	8003378 <LL_SPI_TransmitData8>
	LL_SPI_TransmitData8(SPI2, 0x00);		// ??
 80034e0:	2100      	movs	r1, #0
 80034e2:	4810      	ldr	r0, [pc, #64]	@ (8003524 <mcp25625_readRegister+0x64>)
 80034e4:	f7ff ff48 	bl	8003378 <LL_SPI_TransmitData8>
	while ( (SPI2->SR & SPI_SR_FTLVL) );	// Wait for Tx FIFO to be empty
 80034e8:	bf00      	nop
 80034ea:	4b0e      	ldr	r3, [pc, #56]	@ (8003524 <mcp25625_readRegister+0x64>)
 80034ec:	689b      	ldr	r3, [r3, #8]
 80034ee:	f403 53c0 	and.w	r3, r3, #6144	@ 0x1800
 80034f2:	2b00      	cmp	r3, #0
 80034f4:	d1f9      	bne.n	80034ea <mcp25625_readRegister+0x2a>
	while ( (SPI2->SR & SPI_SR_BSY) ); 		// Wait for Tx FIFO to not be busy
 80034f6:	bf00      	nop
 80034f8:	4b0a      	ldr	r3, [pc, #40]	@ (8003524 <mcp25625_readRegister+0x64>)
 80034fa:	689b      	ldr	r3, [r3, #8]
 80034fc:	f003 0380 	and.w	r3, r3, #128	@ 0x80
 8003500:	2b00      	cmp	r3, #0
 8003502:	d1f9      	bne.n	80034f8 <mcp25625_readRegister+0x38>
	uint8_t dummy  = SPI2->DR; 				// First byte is from CMD transfer
 8003504:	4b07      	ldr	r3, [pc, #28]	@ (8003524 <mcp25625_readRegister+0x64>)
 8003506:	68db      	ldr	r3, [r3, #12]
 8003508:	73fb      	strb	r3, [r7, #15]
	dummy          = SPI2->DR;				// Second byte is from address
 800350a:	4b06      	ldr	r3, [pc, #24]	@ (8003524 <mcp25625_readRegister+0x64>)
 800350c:	68db      	ldr	r3, [r3, #12]
 800350e:	73fb      	strb	r3, [r7, #15]
	uint8_t result = SPI2->DR;				// Actual result value
 8003510:	4b04      	ldr	r3, [pc, #16]	@ (8003524 <mcp25625_readRegister+0x64>)
 8003512:	68db      	ldr	r3, [r3, #12]
 8003514:	73bb      	strb	r3, [r7, #14]
	clearChipSelect();
 8003516:	f7ff ff5d 	bl	80033d4 <clearChipSelect>
	(void)dummy;							// Suppress unused variable warning

	// Return
	return result;
 800351a:	7bbb      	ldrb	r3, [r7, #14]
}
 800351c:	4618      	mov	r0, r3
 800351e:	3710      	adds	r7, #16
 8003520:	46bd      	mov	sp, r7
 8003522:	bd80      	pop	{r7, pc}
 8003524:	40003800 	.word	0x40003800

08003528 <mcp25625_loadTXB>:

void mcp25625_loadTXB ( uint8_t reg, uint8_t length, uint8_t * data )
{
 8003528:	b580      	push	{r7, lr}
 800352a:	b084      	sub	sp, #16
 800352c:	af00      	add	r7, sp, #0
 800352e:	4603      	mov	r3, r0
 8003530:	603a      	str	r2, [r7, #0]
 8003532:	71fb      	strb	r3, [r7, #7]
 8003534:	460b      	mov	r3, r1
 8003536:	71bb      	strb	r3, [r7, #6]
	setChipSelect();
 8003538:	f7ff ff58 	bl	80033ec <setChipSelect>

	LL_SPI_TransmitData8(SPI2, reg);
 800353c:	79fb      	ldrb	r3, [r7, #7]
 800353e:	4619      	mov	r1, r3
 8003540:	481d      	ldr	r0, [pc, #116]	@ (80035b8 <mcp25625_loadTXB+0x90>)
 8003542:	f7ff ff19 	bl	8003378 <LL_SPI_TransmitData8>
	for ( uint8_t i = 0; i < length; i++ )
 8003546:	2300      	movs	r3, #0
 8003548:	73fb      	strb	r3, [r7, #15]
 800354a:	e011      	b.n	8003570 <mcp25625_loadTXB+0x48>
	{
		while ( !(SPI2->SR & SPI_SR_TXE) );
 800354c:	bf00      	nop
 800354e:	4b1a      	ldr	r3, [pc, #104]	@ (80035b8 <mcp25625_loadTXB+0x90>)
 8003550:	689b      	ldr	r3, [r3, #8]
 8003552:	f003 0302 	and.w	r3, r3, #2
 8003556:	2b00      	cmp	r3, #0
 8003558:	d0f9      	beq.n	800354e <mcp25625_loadTXB+0x26>
		LL_SPI_TransmitData8(SPI2, data[i]);
 800355a:	7bfb      	ldrb	r3, [r7, #15]
 800355c:	683a      	ldr	r2, [r7, #0]
 800355e:	4413      	add	r3, r2
 8003560:	781b      	ldrb	r3, [r3, #0]
 8003562:	4619      	mov	r1, r3
 8003564:	4814      	ldr	r0, [pc, #80]	@ (80035b8 <mcp25625_loadTXB+0x90>)
 8003566:	f7ff ff07 	bl	8003378 <LL_SPI_TransmitData8>
	for ( uint8_t i = 0; i < length; i++ )
 800356a:	7bfb      	ldrb	r3, [r7, #15]
 800356c:	3301      	adds	r3, #1
 800356e:	73fb      	strb	r3, [r7, #15]
 8003570:	7bfa      	ldrb	r2, [r7, #15]
 8003572:	79bb      	ldrb	r3, [r7, #6]
 8003574:	429a      	cmp	r2, r3
 8003576:	d3e9      	bcc.n	800354c <mcp25625_loadTXB+0x24>
	}

	// wait for completion
	while ( (SPI2->SR & SPI_SR_FTLVL) ); 	// transmit fifo empty?
 8003578:	bf00      	nop
 800357a:	4b0f      	ldr	r3, [pc, #60]	@ (80035b8 <mcp25625_loadTXB+0x90>)
 800357c:	689b      	ldr	r3, [r3, #8]
 800357e:	f403 53c0 	and.w	r3, r3, #6144	@ 0x1800
 8003582:	2b00      	cmp	r3, #0
 8003584:	d1f9      	bne.n	800357a <mcp25625_loadTXB+0x52>
	while ( (SPI2->SR & SPI_SR_BSY) ); 		// no longer busy
 8003586:	bf00      	nop
 8003588:	4b0b      	ldr	r3, [pc, #44]	@ (80035b8 <mcp25625_loadTXB+0x90>)
 800358a:	689b      	ldr	r3, [r3, #8]
 800358c:	f003 0380 	and.w	r3, r3, #128	@ 0x80
 8003590:	2b00      	cmp	r3, #0
 8003592:	d1f9      	bne.n	8003588 <mcp25625_loadTXB+0x60>
	clearChipSelect();
 8003594:	f7ff ff1e 	bl	80033d4 <clearChipSelect>

	// clear receive fifo
	while ( (SPI2->SR & SPI_SR_FRLVL) )
 8003598:	e002      	b.n	80035a0 <mcp25625_loadTXB+0x78>
	{
		uint8_t dummy = SPI2->DR; 			// clear rx fifo from the receives.
 800359a:	4b07      	ldr	r3, [pc, #28]	@ (80035b8 <mcp25625_loadTXB+0x90>)
 800359c:	68db      	ldr	r3, [r3, #12]
 800359e:	73bb      	strb	r3, [r7, #14]
	while ( (SPI2->SR & SPI_SR_FRLVL) )
 80035a0:	4b05      	ldr	r3, [pc, #20]	@ (80035b8 <mcp25625_loadTXB+0x90>)
 80035a2:	689b      	ldr	r3, [r3, #8]
 80035a4:	f403 63c0 	and.w	r3, r3, #1536	@ 0x600
 80035a8:	2b00      	cmp	r3, #0
 80035aa:	d1f6      	bne.n	800359a <mcp25625_loadTXB+0x72>
		(void)dummy;						// suppress unused variable warning
	}
}
 80035ac:	bf00      	nop
 80035ae:	bf00      	nop
 80035b0:	3710      	adds	r7, #16
 80035b2:	46bd      	mov	sp, r7
 80035b4:	bd80      	pop	{r7, pc}
 80035b6:	bf00      	nop
 80035b8:	40003800 	.word	0x40003800

080035bc <getTXB0CTRL>:
	return (canintf_t)mcp25625_readRegister(CANINTF); }

/*
 * Abstraction for reading the TXB0CTRL register
 */
__STATIC_INLINE txb_ctrl_t getTXB0CTRL() {
 80035bc:	b580      	push	{r7, lr}
 80035be:	af00      	add	r7, sp, #0
	return (txb_ctrl_t)mcp25625_readRegister(TXB0CTRL); }
 80035c0:	2030      	movs	r0, #48	@ 0x30
 80035c2:	f7ff ff7d 	bl	80034c0 <mcp25625_readRegister>
 80035c6:	4603      	mov	r3, r0
 80035c8:	4618      	mov	r0, r3
 80035ca:	bd80      	pop	{r7, pc}

080035cc <getTXB1CTRL>:

/*
 * Abstraction for reading the TXB1CTRL register
 */
__STATIC_INLINE txb_ctrl_t getTXB1CTRL() {
 80035cc:	b580      	push	{r7, lr}
 80035ce:	af00      	add	r7, sp, #0
	return (txb_ctrl_t)mcp25625_readRegister(TXB1CTRL); }
 80035d0:	2040      	movs	r0, #64	@ 0x40
 80035d2:	f7ff ff75 	bl	80034c0 <mcp25625_readRegister>
 80035d6:	4603      	mov	r3, r0
 80035d8:	4618      	mov	r0, r3
 80035da:	bd80      	pop	{r7, pc}

080035dc <getTXB2CTRL>:

/*
 * Abstraction for reading the TXB2CTRL register
 */
__STATIC_INLINE txb_ctrl_t getTXB2CTRL() {
 80035dc:	b580      	push	{r7, lr}
 80035de:	af00      	add	r7, sp, #0
	return (txb_ctrl_t)mcp25625_readRegister(TXB2CTRL); }
 80035e0:	2050      	movs	r0, #80	@ 0x50
 80035e2:	f7ff ff6d 	bl	80034c0 <mcp25625_readRegister>
 80035e6:	4603      	mov	r3, r0
 80035e8:	4618      	mov	r0, r3
 80035ea:	bd80      	pop	{r7, pc}

080035ec <loadTXB2>:
	return (rxb_ctrl_t)mcp25625_readRegister(RXB0CTRL); }

/* Abstraction for loading TXB2
 *
 */
__STATIC_INLINE void loadTXB2 (uint8_t * data) {
 80035ec:	b580      	push	{r7, lr}
 80035ee:	b082      	sub	sp, #8
 80035f0:	af00      	add	r7, sp, #0
 80035f2:	6078      	str	r0, [r7, #4]
	mcp25625_loadTXB((CMD_LOAD_TX_BUFFER_BASE | TXB2_SIDH), 13, data); }
 80035f4:	687a      	ldr	r2, [r7, #4]
 80035f6:	210d      	movs	r1, #13
 80035f8:	2044      	movs	r0, #68	@ 0x44
 80035fa:	f7ff ff95 	bl	8003528 <mcp25625_loadTXB>
 80035fe:	bf00      	nop
 8003600:	3708      	adds	r7, #8
 8003602:	46bd      	mov	sp, r7
 8003604:	bd80      	pop	{r7, pc}

08003606 <loadTXB1>:

/* Abstraction for loading TXB1
 *
 */
__STATIC_INLINE void loadTXB1 (uint8_t * data) {
 8003606:	b580      	push	{r7, lr}
 8003608:	b082      	sub	sp, #8
 800360a:	af00      	add	r7, sp, #0
 800360c:	6078      	str	r0, [r7, #4]
	mcp25625_loadTXB((CMD_LOAD_TX_BUFFER_BASE | TXB1_SIDH), 13, data); }
 800360e:	687a      	ldr	r2, [r7, #4]
 8003610:	210d      	movs	r1, #13
 8003612:	2042      	movs	r0, #66	@ 0x42
 8003614:	f7ff ff88 	bl	8003528 <mcp25625_loadTXB>
 8003618:	bf00      	nop
 800361a:	3708      	adds	r7, #8
 800361c:	46bd      	mov	sp, r7
 800361e:	bd80      	pop	{r7, pc}

08003620 <loadTXB0>:

/* Abstraction for loading TXB2
 *
 */
__STATIC_INLINE void loadTXB0 (uint8_t * data) {
 8003620:	b580      	push	{r7, lr}
 8003622:	b082      	sub	sp, #8
 8003624:	af00      	add	r7, sp, #0
 8003626:	6078      	str	r0, [r7, #4]
	mcp25625_loadTXB((CMD_LOAD_TX_BUFFER_BASE | TXB0_SIDH), 13, data); }
 8003628:	687a      	ldr	r2, [r7, #4]
 800362a:	210d      	movs	r1, #13
 800362c:	2040      	movs	r0, #64	@ 0x40
 800362e:	f7ff ff7b 	bl	8003528 <mcp25625_loadTXB>
 8003632:	bf00      	nop
 8003634:	3708      	adds	r7, #8
 8003636:	46bd      	mov	sp, r7
 8003638:	bd80      	pop	{r7, pc}

0800363a <setTXREQ2>:

/*
 * Abstraction for setting TXREQ
 */
__STATIC_INLINE void setTXREQ2() {
 800363a:	b580      	push	{r7, lr}
 800363c:	af00      	add	r7, sp, #0
	mcp25625_writeRegister(TXB2CTRL, TXBCTRL_TXREQ); }
 800363e:	210b      	movs	r1, #11
 8003640:	2050      	movs	r0, #80	@ 0x50
 8003642:	f7ff ff03 	bl	800344c <mcp25625_writeRegister>
 8003646:	bf00      	nop
 8003648:	bd80      	pop	{r7, pc}

0800364a <setTXREQ1>:

/*
 * Abstraction for setting TXREQ
 */
__STATIC_INLINE void setTXREQ1() {
 800364a:	b580      	push	{r7, lr}
 800364c:	af00      	add	r7, sp, #0
	mcp25625_writeRegister(TXB1CTRL, TXBCTRL_TXREQ); }
 800364e:	210b      	movs	r1, #11
 8003650:	2040      	movs	r0, #64	@ 0x40
 8003652:	f7ff fefb 	bl	800344c <mcp25625_writeRegister>
 8003656:	bf00      	nop
 8003658:	bd80      	pop	{r7, pc}

0800365a <setTXREQ0>:

/*
 * Abstraction for setting TXREQ
 */
__STATIC_INLINE void setTXREQ0() {
 800365a:	b580      	push	{r7, lr}
 800365c:	af00      	add	r7, sp, #0
	mcp25625_writeRegister(TXB0CTRL, TXBCTRL_TXREQ); }
 800365e:	210b      	movs	r1, #11
 8003660:	2030      	movs	r0, #48	@ 0x30
 8003662:	f7ff fef3 	bl	800344c <mcp25625_writeRegister>
 8003666:	bf00      	nop
 8003668:	bd80      	pop	{r7, pc}

0800366a <mcp25625_sendCAN>:
/*
 * This must respect the TXB Control registers. Read it first!
 * By default, higher number buffer registers have higher priority.
 */
void mcp25625_sendCAN (txbuff_t * buffer)
{
 800366a:	b580      	push	{r7, lr}
 800366c:	b084      	sub	sp, #16
 800366e:	af00      	add	r7, sp, #0
 8003670:	6078      	str	r0, [r7, #4]
	txb_ctrl_t txb;

	txb = getTXB2CTRL();
 8003672:	f7ff ffb3 	bl	80035dc <getTXB2CTRL>
 8003676:	4603      	mov	r3, r0
 8003678:	733b      	strb	r3, [r7, #12]
	// check if already sending
	if (!txb.bits.TXREQ)
 800367a:	7b3b      	ldrb	r3, [r7, #12]
 800367c:	f003 0310 	and.w	r3, r3, #16
 8003680:	b2db      	uxtb	r3, r3
 8003682:	2b00      	cmp	r3, #0
 8003684:	d106      	bne.n	8003694 <mcp25625_sendCAN+0x2a>
	{
		// not sending, can load txb block
		loadTXB2(buffer->bytes);
 8003686:	687b      	ldr	r3, [r7, #4]
 8003688:	4618      	mov	r0, r3
 800368a:	f7ff ffaf 	bl	80035ec <loadTXB2>
		setTXREQ2();
 800368e:	f7ff ffd4 	bl	800363a <setTXREQ2>
		return; // once txbuffer is loaded, return
 8003692:	e021      	b.n	80036d8 <mcp25625_sendCAN+0x6e>
	}

	txb = getTXB1CTRL();
 8003694:	f7ff ff9a 	bl	80035cc <getTXB1CTRL>
 8003698:	4603      	mov	r3, r0
 800369a:	733b      	strb	r3, [r7, #12]
	// check if txb1 is already sending
	if (!txb.bits.TXREQ)
 800369c:	7b3b      	ldrb	r3, [r7, #12]
 800369e:	f003 0310 	and.w	r3, r3, #16
 80036a2:	b2db      	uxtb	r3, r3
 80036a4:	2b00      	cmp	r3, #0
 80036a6:	d106      	bne.n	80036b6 <mcp25625_sendCAN+0x4c>
	{
		// not sending, can load txb buffer
		loadTXB1(buffer->bytes);
 80036a8:	687b      	ldr	r3, [r7, #4]
 80036aa:	4618      	mov	r0, r3
 80036ac:	f7ff ffab 	bl	8003606 <loadTXB1>
		setTXREQ1();
 80036b0:	f7ff ffcb 	bl	800364a <setTXREQ1>
		return; //once tx buffer is loaded, return
 80036b4:	e010      	b.n	80036d8 <mcp25625_sendCAN+0x6e>
	}

	txb = getTXB0CTRL();
 80036b6:	f7ff ff81 	bl	80035bc <getTXB0CTRL>
 80036ba:	4603      	mov	r3, r0
 80036bc:	733b      	strb	r3, [r7, #12]
	// check if txb0 is already sending
	if (!txb.bits.TXREQ)
 80036be:	7b3b      	ldrb	r3, [r7, #12]
 80036c0:	f003 0310 	and.w	r3, r3, #16
 80036c4:	b2db      	uxtb	r3, r3
 80036c6:	2b00      	cmp	r3, #0
 80036c8:	d106      	bne.n	80036d8 <mcp25625_sendCAN+0x6e>
	{
		// not sending, can load txb buffer
		loadTXB0(buffer->bytes);
 80036ca:	687b      	ldr	r3, [r7, #4]
 80036cc:	4618      	mov	r0, r3
 80036ce:	f7ff ffa7 	bl	8003620 <loadTXB0>
		setTXREQ0();
 80036d2:	f7ff ffc2 	bl	800365a <setTXREQ0>
		return; // once tx buffer is loaded, return
 80036d6:	bf00      	nop
	}
}
 80036d8:	3710      	adds	r7, #16
 80036da:	46bd      	mov	sp, r7
 80036dc:	bd80      	pop	{r7, pc}

080036de <CAN_transmit>:
/*
 * callable entry function
 * IN: ID, length of message, pointer to message
 */
void CAN_transmit ( uint16_t CAN_ID, uint8_t length, uint8_t * message )
{
 80036de:	b580      	push	{r7, lr}
 80036e0:	b086      	sub	sp, #24
 80036e2:	af00      	add	r7, sp, #0
 80036e4:	4603      	mov	r3, r0
 80036e6:	603a      	str	r2, [r7, #0]
 80036e8:	80fb      	strh	r3, [r7, #6]
 80036ea:	460b      	mov	r3, r1
 80036ec:	717b      	strb	r3, [r7, #5]
	txbuff_t t;
	memset(&t, 0, sizeof(t));
 80036ee:	f107 0308 	add.w	r3, r7, #8
 80036f2:	220d      	movs	r2, #13
 80036f4:	2100      	movs	r1, #0
 80036f6:	4618      	mov	r0, r3
 80036f8:	f003 fe8c 	bl	8007414 <memset>

	t.txb.SIDH = CAN_ID >> 3;
 80036fc:	88fb      	ldrh	r3, [r7, #6]
 80036fe:	08db      	lsrs	r3, r3, #3
 8003700:	b29b      	uxth	r3, r3
 8003702:	b2db      	uxtb	r3, r3
 8003704:	723b      	strb	r3, [r7, #8]
	t.txb.SIDL.value = (CAN_ID & 0x07) << 5;
 8003706:	88fb      	ldrh	r3, [r7, #6]
 8003708:	015b      	lsls	r3, r3, #5
 800370a:	b2db      	uxtb	r3, r3
 800370c:	727b      	strb	r3, [r7, #9]
	t.txb.DLC.value = length;
 800370e:	797b      	ldrb	r3, [r7, #5]
 8003710:	733b      	strb	r3, [r7, #12]
	for (uint8_t i = 0; i < length; i++)
 8003712:	2300      	movs	r3, #0
 8003714:	75fb      	strb	r3, [r7, #23]
 8003716:	e00b      	b.n	8003730 <CAN_transmit+0x52>
	{
		t.txb.data[i] = message[i];
 8003718:	7dfb      	ldrb	r3, [r7, #23]
 800371a:	683a      	ldr	r2, [r7, #0]
 800371c:	441a      	add	r2, r3
 800371e:	7dfb      	ldrb	r3, [r7, #23]
 8003720:	7812      	ldrb	r2, [r2, #0]
 8003722:	3318      	adds	r3, #24
 8003724:	443b      	add	r3, r7
 8003726:	f803 2c0b 	strb.w	r2, [r3, #-11]
	for (uint8_t i = 0; i < length; i++)
 800372a:	7dfb      	ldrb	r3, [r7, #23]
 800372c:	3301      	adds	r3, #1
 800372e:	75fb      	strb	r3, [r7, #23]
 8003730:	7dfa      	ldrb	r2, [r7, #23]
 8003732:	797b      	ldrb	r3, [r7, #5]
 8003734:	429a      	cmp	r2, r3
 8003736:	d3ef      	bcc.n	8003718 <CAN_transmit+0x3a>
	}

	mcp25625_sendCAN(&t);
 8003738:	f107 0308 	add.w	r3, r7, #8
 800373c:	4618      	mov	r0, r3
 800373e:	f7ff ff94 	bl	800366a <mcp25625_sendCAN>
}
 8003742:	bf00      	nop
 8003744:	3718      	adds	r7, #24
 8003746:	46bd      	mov	sp, r7
 8003748:	bd80      	pop	{r7, pc}
	...

0800374c <mcp25625_init>:

void mcp25625_init (void)
{
 800374c:	b580      	push	{r7, lr}
 800374e:	af00      	add	r7, sp, #0
	memset(&can_tranceiver, 0, sizeof(can_tranceiver));
 8003750:	f240 2276 	movw	r2, #630	@ 0x276
 8003754:	2100      	movs	r1, #0
 8003756:	4804      	ldr	r0, [pc, #16]	@ (8003768 <mcp25625_init+0x1c>)
 8003758:	f003 fe5c 	bl	8007414 <memset>
	clearChipSelect();
 800375c:	f7ff fe3a 	bl	80033d4 <clearChipSelect>
	mcp25625_reset();
 8003760:	f7ff fe50 	bl	8003404 <mcp25625_reset>
}
 8003764:	bf00      	nop
 8003766:	bd80      	pop	{r7, pc}
 8003768:	20000194 	.word	0x20000194

0800376c <CAN_configure>:

void CAN_configure()
{
 800376c:	b580      	push	{r7, lr}
 800376e:	b084      	sub	sp, #16
 8003770:	af00      	add	r7, sp, #0
	cnf1_t c1;
	cnf2_t c2;
	cnf3_t c3;
	canctrl_t canctrl;

	c1.value      = 0xC0;
 8003772:	23c0      	movs	r3, #192	@ 0xc0
 8003774:	733b      	strb	r3, [r7, #12]
	c2.value      = 0x89;
 8003776:	2389      	movs	r3, #137	@ 0x89
 8003778:	723b      	strb	r3, [r7, #8]
	c3.value      = 0x04;
 800377a:	2304      	movs	r3, #4
 800377c:	713b      	strb	r3, [r7, #4]
	canctrl.value = 0x08;
 800377e:	2308      	movs	r3, #8
 8003780:	703b      	strb	r3, [r7, #0]

	mcp25625_init();
 8003782:	f7ff ffe3 	bl	800374c <mcp25625_init>

	mcp25625_writeRegister(CNF1, c1.value);				// Configuration 1 register
 8003786:	7b3b      	ldrb	r3, [r7, #12]
 8003788:	4619      	mov	r1, r3
 800378a:	202a      	movs	r0, #42	@ 0x2a
 800378c:	f7ff fe5e 	bl	800344c <mcp25625_writeRegister>
	mcp25625_writeRegister(CNF2, c2.value);				// Configuration 2 register
 8003790:	7a3b      	ldrb	r3, [r7, #8]
 8003792:	4619      	mov	r1, r3
 8003794:	2029      	movs	r0, #41	@ 0x29
 8003796:	f7ff fe59 	bl	800344c <mcp25625_writeRegister>
	mcp25625_writeRegister(CNF3, c3.value);				// Configuration 3 register
 800379a:	793b      	ldrb	r3, [r7, #4]
 800379c:	4619      	mov	r1, r3
 800379e:	2028      	movs	r0, #40	@ 0x28
 80037a0:	f7ff fe54 	bl	800344c <mcp25625_writeRegister>
	mcp25625_writeRegister(CANCTRL, canctrl.value);		// CAN control register
 80037a4:	783b      	ldrb	r3, [r7, #0]
 80037a6:	4619      	mov	r1, r3
 80037a8:	200f      	movs	r0, #15
 80037aa:	f7ff fe4f 	bl	800344c <mcp25625_writeRegister>
}
 80037ae:	bf00      	nop
 80037b0:	3710      	adds	r7, #16
 80037b2:	46bd      	mov	sp, r7
 80037b4:	bd80      	pop	{r7, pc}
	...

080037b8 <set_int_enable>:
 *  interrupt is used.
 *  @param[in]  enable      1 to enable interrupt.
 *  @return     0 if successful.
 */
static int set_int_enable(unsigned char enable)
{
 80037b8:	b580      	push	{r7, lr}
 80037ba:	b084      	sub	sp, #16
 80037bc:	af00      	add	r7, sp, #0
 80037be:	4603      	mov	r3, r0
 80037c0:	71fb      	strb	r3, [r7, #7]
    unsigned char tmp;

    if (st.chip_cfg.dmp_on) {
 80037c2:	4b29      	ldr	r3, [pc, #164]	@ (8003868 <set_int_enable+0xb0>)
 80037c4:	f893 3024 	ldrb.w	r3, [r3, #36]	@ 0x24
 80037c8:	2b00      	cmp	r3, #0
 80037ca:	d01c      	beq.n	8003806 <set_int_enable+0x4e>
        if (enable)
 80037cc:	79fb      	ldrb	r3, [r7, #7]
 80037ce:	2b00      	cmp	r3, #0
 80037d0:	d002      	beq.n	80037d8 <set_int_enable+0x20>
            tmp = BIT_DMP_INT_EN;
 80037d2:	2302      	movs	r3, #2
 80037d4:	73fb      	strb	r3, [r7, #15]
 80037d6:	e001      	b.n	80037dc <set_int_enable+0x24>
        else
            tmp = 0x00;
 80037d8:	2300      	movs	r3, #0
 80037da:	73fb      	strb	r3, [r7, #15]
        if (i2c_write(st.hw->addr, st.reg->int_enable, 1, &tmp))
 80037dc:	4b22      	ldr	r3, [pc, #136]	@ (8003868 <set_int_enable+0xb0>)
 80037de:	685b      	ldr	r3, [r3, #4]
 80037e0:	7818      	ldrb	r0, [r3, #0]
 80037e2:	4b21      	ldr	r3, [pc, #132]	@ (8003868 <set_int_enable+0xb0>)
 80037e4:	681b      	ldr	r3, [r3, #0]
 80037e6:	7c59      	ldrb	r1, [r3, #17]
 80037e8:	f107 030f 	add.w	r3, r7, #15
 80037ec:	2201      	movs	r2, #1
 80037ee:	f002 f93b 	bl	8005a68 <mpu9255_write>
 80037f2:	4603      	mov	r3, r0
 80037f4:	2b00      	cmp	r3, #0
 80037f6:	d002      	beq.n	80037fe <set_int_enable+0x46>
            return -1;
 80037f8:	f04f 33ff 	mov.w	r3, #4294967295
 80037fc:	e030      	b.n	8003860 <set_int_enable+0xa8>
        st.chip_cfg.int_enable = tmp;
 80037fe:	7bfa      	ldrb	r2, [r7, #15]
 8003800:	4b19      	ldr	r3, [pc, #100]	@ (8003868 <set_int_enable+0xb0>)
 8003802:	745a      	strb	r2, [r3, #17]
 8003804:	e02b      	b.n	800385e <set_int_enable+0xa6>
    } else {
        if (!st.chip_cfg.sensors)
 8003806:	4b18      	ldr	r3, [pc, #96]	@ (8003868 <set_int_enable+0xb0>)
 8003808:	7a9b      	ldrb	r3, [r3, #10]
 800380a:	2b00      	cmp	r3, #0
 800380c:	d102      	bne.n	8003814 <set_int_enable+0x5c>
            return -1;
 800380e:	f04f 33ff 	mov.w	r3, #4294967295
 8003812:	e025      	b.n	8003860 <set_int_enable+0xa8>
        if (enable && st.chip_cfg.int_enable)
 8003814:	79fb      	ldrb	r3, [r7, #7]
 8003816:	2b00      	cmp	r3, #0
 8003818:	d005      	beq.n	8003826 <set_int_enable+0x6e>
 800381a:	4b13      	ldr	r3, [pc, #76]	@ (8003868 <set_int_enable+0xb0>)
 800381c:	7c5b      	ldrb	r3, [r3, #17]
 800381e:	2b00      	cmp	r3, #0
 8003820:	d001      	beq.n	8003826 <set_int_enable+0x6e>
            return 0;
 8003822:	2300      	movs	r3, #0
 8003824:	e01c      	b.n	8003860 <set_int_enable+0xa8>
        if (enable)
 8003826:	79fb      	ldrb	r3, [r7, #7]
 8003828:	2b00      	cmp	r3, #0
 800382a:	d002      	beq.n	8003832 <set_int_enable+0x7a>
            tmp = BIT_DATA_RDY_EN;
 800382c:	2301      	movs	r3, #1
 800382e:	73fb      	strb	r3, [r7, #15]
 8003830:	e001      	b.n	8003836 <set_int_enable+0x7e>
        else
            tmp = 0x00;
 8003832:	2300      	movs	r3, #0
 8003834:	73fb      	strb	r3, [r7, #15]
        if (i2c_write(st.hw->addr, st.reg->int_enable, 1, &tmp))
 8003836:	4b0c      	ldr	r3, [pc, #48]	@ (8003868 <set_int_enable+0xb0>)
 8003838:	685b      	ldr	r3, [r3, #4]
 800383a:	7818      	ldrb	r0, [r3, #0]
 800383c:	4b0a      	ldr	r3, [pc, #40]	@ (8003868 <set_int_enable+0xb0>)
 800383e:	681b      	ldr	r3, [r3, #0]
 8003840:	7c59      	ldrb	r1, [r3, #17]
 8003842:	f107 030f 	add.w	r3, r7, #15
 8003846:	2201      	movs	r2, #1
 8003848:	f002 f90e 	bl	8005a68 <mpu9255_write>
 800384c:	4603      	mov	r3, r0
 800384e:	2b00      	cmp	r3, #0
 8003850:	d002      	beq.n	8003858 <set_int_enable+0xa0>
            return -1;
 8003852:	f04f 33ff 	mov.w	r3, #4294967295
 8003856:	e003      	b.n	8003860 <set_int_enable+0xa8>
        st.chip_cfg.int_enable = tmp;
 8003858:	7bfa      	ldrb	r2, [r7, #15]
 800385a:	4b03      	ldr	r3, [pc, #12]	@ (8003868 <set_int_enable+0xb0>)
 800385c:	745a      	strb	r2, [r3, #17]
    }
    return 0;
 800385e:	2300      	movs	r3, #0
}
 8003860:	4618      	mov	r0, r3
 8003862:	3710      	adds	r7, #16
 8003864:	46bd      	mov	sp, r7
 8003866:	bd80      	pop	{r7, pc}
 8003868:	20000010 	.word	0x20000010

0800386c <mpu_init>:
 *  Data ready interrupt: Disabled, active low, unlatched.
 *  @param[in]  int_param   Platform-specific parameters to interrupt API.
 *  @return     0 if successful.
 */
int mpu_init(struct int_param_s *int_param)
{
 800386c:	b580      	push	{r7, lr}
 800386e:	b084      	sub	sp, #16
 8003870:	af00      	add	r7, sp, #0
 8003872:	6078      	str	r0, [r7, #4]
    unsigned char data[6];

    /* Reset device. */
    data[0] = BIT_RESET;
 8003874:	2380      	movs	r3, #128	@ 0x80
 8003876:	723b      	strb	r3, [r7, #8]
    if (i2c_write(st.hw->addr, st.reg->pwr_mgmt_1, 1, data))
 8003878:	4b5c      	ldr	r3, [pc, #368]	@ (80039ec <mpu_init+0x180>)
 800387a:	685b      	ldr	r3, [r3, #4]
 800387c:	7818      	ldrb	r0, [r3, #0]
 800387e:	4b5b      	ldr	r3, [pc, #364]	@ (80039ec <mpu_init+0x180>)
 8003880:	681b      	ldr	r3, [r3, #0]
 8003882:	7d59      	ldrb	r1, [r3, #21]
 8003884:	f107 0308 	add.w	r3, r7, #8
 8003888:	2201      	movs	r2, #1
 800388a:	f002 f8ed 	bl	8005a68 <mpu9255_write>
 800388e:	4603      	mov	r3, r0
 8003890:	2b00      	cmp	r3, #0
 8003892:	d002      	beq.n	800389a <mpu_init+0x2e>
        return -1;
 8003894:	f04f 33ff 	mov.w	r3, #4294967295
 8003898:	e0a3      	b.n	80039e2 <mpu_init+0x176>
    delay_ms(100);
 800389a:	2064      	movs	r0, #100	@ 0x64
 800389c:	f002 f97a 	bl	8005b94 <mpu9255_delay_ms>

    /* Wake up chip. */
    data[0] = 0x00;
 80038a0:	2300      	movs	r3, #0
 80038a2:	723b      	strb	r3, [r7, #8]
    if (i2c_write(st.hw->addr, st.reg->pwr_mgmt_1, 1, data))
 80038a4:	4b51      	ldr	r3, [pc, #324]	@ (80039ec <mpu_init+0x180>)
 80038a6:	685b      	ldr	r3, [r3, #4]
 80038a8:	7818      	ldrb	r0, [r3, #0]
 80038aa:	4b50      	ldr	r3, [pc, #320]	@ (80039ec <mpu_init+0x180>)
 80038ac:	681b      	ldr	r3, [r3, #0]
 80038ae:	7d59      	ldrb	r1, [r3, #21]
 80038b0:	f107 0308 	add.w	r3, r7, #8
 80038b4:	2201      	movs	r2, #1
 80038b6:	f002 f8d7 	bl	8005a68 <mpu9255_write>
 80038ba:	4603      	mov	r3, r0
 80038bc:	2b00      	cmp	r3, #0
 80038be:	d002      	beq.n	80038c6 <mpu_init+0x5a>
        return -1;
 80038c0:	f04f 33ff 	mov.w	r3, #4294967295
 80038c4:	e08d      	b.n	80039e2 <mpu_init+0x176>

   st.chip_cfg.accel_half = 0;
 80038c6:	4b49      	ldr	r3, [pc, #292]	@ (80039ec <mpu_init+0x180>)
 80038c8:	2200      	movs	r2, #0
 80038ca:	74da      	strb	r2, [r3, #19]

#ifdef MPU6500
    /* MPU6500 shares 4kB of memory between the DMP and the FIFO. Since the
     * first 3kB are needed by the DMP, we'll use the last 1kB for the FIFO.
     */
    data[0] = BIT_FIFO_SIZE_1024 | 0x8;
 80038cc:	2348      	movs	r3, #72	@ 0x48
 80038ce:	723b      	strb	r3, [r7, #8]
    if (i2c_write(st.hw->addr, st.reg->accel_cfg2, 1, data))
 80038d0:	4b46      	ldr	r3, [pc, #280]	@ (80039ec <mpu_init+0x180>)
 80038d2:	685b      	ldr	r3, [r3, #4]
 80038d4:	7818      	ldrb	r0, [r3, #0]
 80038d6:	4b45      	ldr	r3, [pc, #276]	@ (80039ec <mpu_init+0x180>)
 80038d8:	681b      	ldr	r3, [r3, #0]
 80038da:	7a19      	ldrb	r1, [r3, #8]
 80038dc:	f107 0308 	add.w	r3, r7, #8
 80038e0:	2201      	movs	r2, #1
 80038e2:	f002 f8c1 	bl	8005a68 <mpu9255_write>
 80038e6:	4603      	mov	r3, r0
 80038e8:	2b00      	cmp	r3, #0
 80038ea:	d002      	beq.n	80038f2 <mpu_init+0x86>
        return -1;
 80038ec:	f04f 33ff 	mov.w	r3, #4294967295
 80038f0:	e077      	b.n	80039e2 <mpu_init+0x176>
#endif

    /* Set to invalid values to ensure no I2C writes are skipped. */
    st.chip_cfg.sensors = 0xFF;
 80038f2:	4b3e      	ldr	r3, [pc, #248]	@ (80039ec <mpu_init+0x180>)
 80038f4:	22ff      	movs	r2, #255	@ 0xff
 80038f6:	729a      	strb	r2, [r3, #10]
    st.chip_cfg.gyro_fsr = 0xFF;
 80038f8:	4b3c      	ldr	r3, [pc, #240]	@ (80039ec <mpu_init+0x180>)
 80038fa:	22ff      	movs	r2, #255	@ 0xff
 80038fc:	721a      	strb	r2, [r3, #8]
    st.chip_cfg.accel_fsr = 0xFF;
 80038fe:	4b3b      	ldr	r3, [pc, #236]	@ (80039ec <mpu_init+0x180>)
 8003900:	22ff      	movs	r2, #255	@ 0xff
 8003902:	725a      	strb	r2, [r3, #9]
    st.chip_cfg.lpf = 0xFF;
 8003904:	4b39      	ldr	r3, [pc, #228]	@ (80039ec <mpu_init+0x180>)
 8003906:	22ff      	movs	r2, #255	@ 0xff
 8003908:	72da      	strb	r2, [r3, #11]
    st.chip_cfg.sample_rate = 0xFFFF;
 800390a:	4b38      	ldr	r3, [pc, #224]	@ (80039ec <mpu_init+0x180>)
 800390c:	f64f 72ff 	movw	r2, #65535	@ 0xffff
 8003910:	81da      	strh	r2, [r3, #14]
    st.chip_cfg.fifo_enable = 0xFF;
 8003912:	4b36      	ldr	r3, [pc, #216]	@ (80039ec <mpu_init+0x180>)
 8003914:	22ff      	movs	r2, #255	@ 0xff
 8003916:	741a      	strb	r2, [r3, #16]
    st.chip_cfg.bypass_mode = 0xFF;
 8003918:	4b34      	ldr	r3, [pc, #208]	@ (80039ec <mpu_init+0x180>)
 800391a:	22ff      	movs	r2, #255	@ 0xff
 800391c:	749a      	strb	r2, [r3, #18]
#ifdef AK89xx_SECONDARY
    st.chip_cfg.compass_sample_rate = 0xFFFF;
 800391e:	4b33      	ldr	r3, [pc, #204]	@ (80039ec <mpu_init+0x180>)
 8003920:	f64f 72ff 	movw	r2, #65535	@ 0xffff
 8003924:	851a      	strh	r2, [r3, #40]	@ 0x28
#endif
    /* mpu_set_sensors always preserves this setting. */
    st.chip_cfg.clk_src = INV_CLK_PLL;
 8003926:	4b31      	ldr	r3, [pc, #196]	@ (80039ec <mpu_init+0x180>)
 8003928:	2201      	movs	r2, #1
 800392a:	731a      	strb	r2, [r3, #12]
    /* Handled in next call to mpu_set_bypass. */
    st.chip_cfg.active_low_int = 1;
 800392c:	4b2f      	ldr	r3, [pc, #188]	@ (80039ec <mpu_init+0x180>)
 800392e:	2201      	movs	r2, #1
 8003930:	f883 2022 	strb.w	r2, [r3, #34]	@ 0x22
    st.chip_cfg.latched_int = 0;
 8003934:	4b2d      	ldr	r3, [pc, #180]	@ (80039ec <mpu_init+0x180>)
 8003936:	2200      	movs	r2, #0
 8003938:	f883 2023 	strb.w	r2, [r3, #35]	@ 0x23
    st.chip_cfg.int_motion_only = 0;
 800393c:	4b2b      	ldr	r3, [pc, #172]	@ (80039ec <mpu_init+0x180>)
 800393e:	2200      	movs	r2, #0
 8003940:	755a      	strb	r2, [r3, #21]
    st.chip_cfg.lp_accel_mode = 0;
 8003942:	4b2a      	ldr	r3, [pc, #168]	@ (80039ec <mpu_init+0x180>)
 8003944:	2200      	movs	r2, #0
 8003946:	751a      	strb	r2, [r3, #20]
    memset(&st.chip_cfg.cache, 0, sizeof(st.chip_cfg.cache));
 8003948:	220c      	movs	r2, #12
 800394a:	2100      	movs	r1, #0
 800394c:	4828      	ldr	r0, [pc, #160]	@ (80039f0 <mpu_init+0x184>)
 800394e:	f003 fd61 	bl	8007414 <memset>
    st.chip_cfg.dmp_on = 0;
 8003952:	4b26      	ldr	r3, [pc, #152]	@ (80039ec <mpu_init+0x180>)
 8003954:	2200      	movs	r2, #0
 8003956:	f883 2024 	strb.w	r2, [r3, #36]	@ 0x24
    st.chip_cfg.dmp_loaded = 0;
 800395a:	4b24      	ldr	r3, [pc, #144]	@ (80039ec <mpu_init+0x180>)
 800395c:	2200      	movs	r2, #0
 800395e:	f883 2025 	strb.w	r2, [r3, #37]	@ 0x25
    st.chip_cfg.dmp_sample_rate = 0;
 8003962:	4b22      	ldr	r3, [pc, #136]	@ (80039ec <mpu_init+0x180>)
 8003964:	2200      	movs	r2, #0
 8003966:	84da      	strh	r2, [r3, #38]	@ 0x26

    if (mpu_set_gyro_fsr(2000))
 8003968:	f44f 60fa 	mov.w	r0, #2000	@ 0x7d0
 800396c:	f000 f9e4 	bl	8003d38 <mpu_set_gyro_fsr>
 8003970:	4603      	mov	r3, r0
 8003972:	2b00      	cmp	r3, #0
 8003974:	d002      	beq.n	800397c <mpu_init+0x110>
        return -1;
 8003976:	f04f 33ff 	mov.w	r3, #4294967295
 800397a:	e032      	b.n	80039e2 <mpu_init+0x176>
    if (mpu_set_accel_fsr(8))
 800397c:	2008      	movs	r0, #8
 800397e:	f000 fa69 	bl	8003e54 <mpu_set_accel_fsr>
 8003982:	4603      	mov	r3, r0
 8003984:	2b00      	cmp	r3, #0
 8003986:	d002      	beq.n	800398e <mpu_init+0x122>
        return -1;
 8003988:	f04f 33ff 	mov.w	r3, #4294967295
 800398c:	e029      	b.n	80039e2 <mpu_init+0x176>
    if (mpu_set_lpf(188))
 800398e:	20bc      	movs	r0, #188	@ 0xbc
 8003990:	f000 fac8 	bl	8003f24 <mpu_set_lpf>
 8003994:	4603      	mov	r3, r0
 8003996:	2b00      	cmp	r3, #0
 8003998:	d002      	beq.n	80039a0 <mpu_init+0x134>
        return -1;
 800399a:	f04f 33ff 	mov.w	r3, #4294967295
 800399e:	e020      	b.n	80039e2 <mpu_init+0x176>
    if (mpu_set_sample_rate(100))
 80039a0:	2064      	movs	r0, #100	@ 0x64
 80039a2:	f000 fb0d 	bl	8003fc0 <mpu_set_sample_rate>
 80039a6:	4603      	mov	r3, r0
 80039a8:	2b00      	cmp	r3, #0
 80039aa:	d002      	beq.n	80039b2 <mpu_init+0x146>
        return -1;
 80039ac:	f04f 33ff 	mov.w	r3, #4294967295
 80039b0:	e017      	b.n	80039e2 <mpu_init+0x176>
    if (mpu_configure_fifo(0))
 80039b2:	2000      	movs	r0, #0
 80039b4:	f000 fbb2 	bl	800411c <mpu_configure_fifo>
 80039b8:	4603      	mov	r3, r0
 80039ba:	2b00      	cmp	r3, #0
 80039bc:	d002      	beq.n	80039c4 <mpu_init+0x158>
        return -1;
 80039be:	f04f 33ff 	mov.w	r3, #4294967295
 80039c2:	e00e      	b.n	80039e2 <mpu_init+0x176>
    if (int_param)
        reg_int_cb(int_param);
#endif

#ifdef AK89xx_SECONDARY
    setup_compass();
 80039c4:	f000 ffd8 	bl	8004978 <setup_compass>
    if (mpu_set_compass_sample_rate(10))
 80039c8:	200a      	movs	r0, #10
 80039ca:	f000 fb67 	bl	800409c <mpu_set_compass_sample_rate>
 80039ce:	4603      	mov	r3, r0
 80039d0:	2b00      	cmp	r3, #0
 80039d2:	d002      	beq.n	80039da <mpu_init+0x16e>
        return -1;
 80039d4:	f04f 33ff 	mov.w	r3, #4294967295
 80039d8:	e003      	b.n	80039e2 <mpu_init+0x176>
    /* Already disabled by setup_compass. */
    if (mpu_set_bypass(0))
        return -1;
#endif

    mpu_set_sensors(0);
 80039da:	2000      	movs	r0, #0
 80039dc:	f000 fbf0 	bl	80041c0 <mpu_set_sensors>
    return 0;
 80039e0:	2300      	movs	r3, #0
}
 80039e2:	4618      	mov	r0, r3
 80039e4:	3710      	adds	r7, #16
 80039e6:	46bd      	mov	sp, r7
 80039e8:	bd80      	pop	{r7, pc}
 80039ea:	bf00      	nop
 80039ec:	20000010 	.word	0x20000010
 80039f0:	20000026 	.word	0x20000026

080039f4 <mpu_lp_accel_mode>:
 *  @param[in]  rate        Minimum sampling rate, or zero to disable LP
 *                          accel mode.
 *  @return     0 if successful.
 */
int mpu_lp_accel_mode(unsigned short rate)
{
 80039f4:	b580      	push	{r7, lr}
 80039f6:	b084      	sub	sp, #16
 80039f8:	af00      	add	r7, sp, #0
 80039fa:	4603      	mov	r3, r0
 80039fc:	80fb      	strh	r3, [r7, #6]
    unsigned char tmp[2];

    if (rate > 40)
 80039fe:	88fb      	ldrh	r3, [r7, #6]
 8003a00:	2b28      	cmp	r3, #40	@ 0x28
 8003a02:	d902      	bls.n	8003a0a <mpu_lp_accel_mode+0x16>
        return -1;
 8003a04:	f04f 33ff 	mov.w	r3, #4294967295
 8003a08:	e08c      	b.n	8003b24 <mpu_lp_accel_mode+0x130>

    if (!rate) {
 8003a0a:	88fb      	ldrh	r3, [r7, #6]
 8003a0c:	2b00      	cmp	r3, #0
 8003a0e:	d11c      	bne.n	8003a4a <mpu_lp_accel_mode+0x56>
        mpu_set_int_latched(0);
 8003a10:	2000      	movs	r0, #0
 8003a12:	f000 fdf7 	bl	8004604 <mpu_set_int_latched>
        tmp[0] = 0;
 8003a16:	2300      	movs	r3, #0
 8003a18:	733b      	strb	r3, [r7, #12]
        tmp[1] = BIT_STBY_XYZG;
 8003a1a:	2307      	movs	r3, #7
 8003a1c:	737b      	strb	r3, [r7, #13]
        if (i2c_write(st.hw->addr, st.reg->pwr_mgmt_1, 2, tmp))
 8003a1e:	4b43      	ldr	r3, [pc, #268]	@ (8003b2c <mpu_lp_accel_mode+0x138>)
 8003a20:	685b      	ldr	r3, [r3, #4]
 8003a22:	7818      	ldrb	r0, [r3, #0]
 8003a24:	4b41      	ldr	r3, [pc, #260]	@ (8003b2c <mpu_lp_accel_mode+0x138>)
 8003a26:	681b      	ldr	r3, [r3, #0]
 8003a28:	7d59      	ldrb	r1, [r3, #21]
 8003a2a:	f107 030c 	add.w	r3, r7, #12
 8003a2e:	2202      	movs	r2, #2
 8003a30:	f002 f81a 	bl	8005a68 <mpu9255_write>
 8003a34:	4603      	mov	r3, r0
 8003a36:	2b00      	cmp	r3, #0
 8003a38:	d002      	beq.n	8003a40 <mpu_lp_accel_mode+0x4c>
            return -1;
 8003a3a:	f04f 33ff 	mov.w	r3, #4294967295
 8003a3e:	e071      	b.n	8003b24 <mpu_lp_accel_mode+0x130>
        st.chip_cfg.lp_accel_mode = 0;
 8003a40:	4b3a      	ldr	r3, [pc, #232]	@ (8003b2c <mpu_lp_accel_mode+0x138>)
 8003a42:	2200      	movs	r2, #0
 8003a44:	751a      	strb	r2, [r3, #20]
        return 0;
 8003a46:	2300      	movs	r3, #0
 8003a48:	e06c      	b.n	8003b24 <mpu_lp_accel_mode+0x130>
     * it gets a chance to deassert the interrupt pin; therefore, we shift this
     * responsibility over to the MCU.
     *
     * Any register read will clear the interrupt.
     */
    mpu_set_int_latched(1);
 8003a4a:	2001      	movs	r0, #1
 8003a4c:	f000 fdda 	bl	8004604 <mpu_set_int_latched>
    tmp[1] = (tmp[1] << 6) | BIT_STBY_XYZG;
    if (i2c_write(st.hw->addr, st.reg->pwr_mgmt_1, 2, tmp))
        return -1;
#elif defined MPU6500
    /* Set wake frequency. */
    if (rate == 1)
 8003a50:	88fb      	ldrh	r3, [r7, #6]
 8003a52:	2b01      	cmp	r3, #1
 8003a54:	d102      	bne.n	8003a5c <mpu_lp_accel_mode+0x68>
        tmp[0] = INV_LPA_1_25HZ;
 8003a56:	2302      	movs	r3, #2
 8003a58:	733b      	strb	r3, [r7, #12]
 8003a5a:	e032      	b.n	8003ac2 <mpu_lp_accel_mode+0xce>
    else if (rate == 2)
 8003a5c:	88fb      	ldrh	r3, [r7, #6]
 8003a5e:	2b02      	cmp	r3, #2
 8003a60:	d102      	bne.n	8003a68 <mpu_lp_accel_mode+0x74>
        tmp[0] = INV_LPA_2_5HZ;
 8003a62:	2303      	movs	r3, #3
 8003a64:	733b      	strb	r3, [r7, #12]
 8003a66:	e02c      	b.n	8003ac2 <mpu_lp_accel_mode+0xce>
    else if (rate <= 5)
 8003a68:	88fb      	ldrh	r3, [r7, #6]
 8003a6a:	2b05      	cmp	r3, #5
 8003a6c:	d802      	bhi.n	8003a74 <mpu_lp_accel_mode+0x80>
        tmp[0] = INV_LPA_5HZ;
 8003a6e:	2304      	movs	r3, #4
 8003a70:	733b      	strb	r3, [r7, #12]
 8003a72:	e026      	b.n	8003ac2 <mpu_lp_accel_mode+0xce>
    else if (rate <= 10)
 8003a74:	88fb      	ldrh	r3, [r7, #6]
 8003a76:	2b0a      	cmp	r3, #10
 8003a78:	d802      	bhi.n	8003a80 <mpu_lp_accel_mode+0x8c>
        tmp[0] = INV_LPA_10HZ;
 8003a7a:	2305      	movs	r3, #5
 8003a7c:	733b      	strb	r3, [r7, #12]
 8003a7e:	e020      	b.n	8003ac2 <mpu_lp_accel_mode+0xce>
    else if (rate <= 20)
 8003a80:	88fb      	ldrh	r3, [r7, #6]
 8003a82:	2b14      	cmp	r3, #20
 8003a84:	d802      	bhi.n	8003a8c <mpu_lp_accel_mode+0x98>
        tmp[0] = INV_LPA_20HZ;
 8003a86:	2306      	movs	r3, #6
 8003a88:	733b      	strb	r3, [r7, #12]
 8003a8a:	e01a      	b.n	8003ac2 <mpu_lp_accel_mode+0xce>
    else if (rate <= 40)
 8003a8c:	88fb      	ldrh	r3, [r7, #6]
 8003a8e:	2b28      	cmp	r3, #40	@ 0x28
 8003a90:	d802      	bhi.n	8003a98 <mpu_lp_accel_mode+0xa4>
        tmp[0] = INV_LPA_40HZ;
 8003a92:	2307      	movs	r3, #7
 8003a94:	733b      	strb	r3, [r7, #12]
 8003a96:	e014      	b.n	8003ac2 <mpu_lp_accel_mode+0xce>
    else if (rate <= 80)
 8003a98:	88fb      	ldrh	r3, [r7, #6]
 8003a9a:	2b50      	cmp	r3, #80	@ 0x50
 8003a9c:	d802      	bhi.n	8003aa4 <mpu_lp_accel_mode+0xb0>
        tmp[0] = INV_LPA_80HZ;
 8003a9e:	2308      	movs	r3, #8
 8003aa0:	733b      	strb	r3, [r7, #12]
 8003aa2:	e00e      	b.n	8003ac2 <mpu_lp_accel_mode+0xce>
    else if (rate <= 160)
 8003aa4:	88fb      	ldrh	r3, [r7, #6]
 8003aa6:	2ba0      	cmp	r3, #160	@ 0xa0
 8003aa8:	d802      	bhi.n	8003ab0 <mpu_lp_accel_mode+0xbc>
        tmp[0] = INV_LPA_160HZ;
 8003aaa:	2309      	movs	r3, #9
 8003aac:	733b      	strb	r3, [r7, #12]
 8003aae:	e008      	b.n	8003ac2 <mpu_lp_accel_mode+0xce>
    else if (rate <= 320)
 8003ab0:	88fb      	ldrh	r3, [r7, #6]
 8003ab2:	f5b3 7fa0 	cmp.w	r3, #320	@ 0x140
 8003ab6:	d802      	bhi.n	8003abe <mpu_lp_accel_mode+0xca>
        tmp[0] = INV_LPA_320HZ;
 8003ab8:	230a      	movs	r3, #10
 8003aba:	733b      	strb	r3, [r7, #12]
 8003abc:	e001      	b.n	8003ac2 <mpu_lp_accel_mode+0xce>
    else
        tmp[0] = INV_LPA_640HZ;
 8003abe:	230b      	movs	r3, #11
 8003ac0:	733b      	strb	r3, [r7, #12]
    if (i2c_write(st.hw->addr, st.reg->lp_accel_odr, 1, tmp))
 8003ac2:	4b1a      	ldr	r3, [pc, #104]	@ (8003b2c <mpu_lp_accel_mode+0x138>)
 8003ac4:	685b      	ldr	r3, [r3, #4]
 8003ac6:	7818      	ldrb	r0, [r3, #0]
 8003ac8:	4b18      	ldr	r3, [pc, #96]	@ (8003b2c <mpu_lp_accel_mode+0x138>)
 8003aca:	681b      	ldr	r3, [r3, #0]
 8003acc:	7a59      	ldrb	r1, [r3, #9]
 8003ace:	f107 030c 	add.w	r3, r7, #12
 8003ad2:	2201      	movs	r2, #1
 8003ad4:	f001 ffc8 	bl	8005a68 <mpu9255_write>
 8003ad8:	4603      	mov	r3, r0
 8003ada:	2b00      	cmp	r3, #0
 8003adc:	d002      	beq.n	8003ae4 <mpu_lp_accel_mode+0xf0>
        return -1;
 8003ade:	f04f 33ff 	mov.w	r3, #4294967295
 8003ae2:	e01f      	b.n	8003b24 <mpu_lp_accel_mode+0x130>
    tmp[0] = BIT_LPA_CYCLE;
 8003ae4:	2320      	movs	r3, #32
 8003ae6:	733b      	strb	r3, [r7, #12]
    if (i2c_write(st.hw->addr, st.reg->pwr_mgmt_1, 1, tmp))
 8003ae8:	4b10      	ldr	r3, [pc, #64]	@ (8003b2c <mpu_lp_accel_mode+0x138>)
 8003aea:	685b      	ldr	r3, [r3, #4]
 8003aec:	7818      	ldrb	r0, [r3, #0]
 8003aee:	4b0f      	ldr	r3, [pc, #60]	@ (8003b2c <mpu_lp_accel_mode+0x138>)
 8003af0:	681b      	ldr	r3, [r3, #0]
 8003af2:	7d59      	ldrb	r1, [r3, #21]
 8003af4:	f107 030c 	add.w	r3, r7, #12
 8003af8:	2201      	movs	r2, #1
 8003afa:	f001 ffb5 	bl	8005a68 <mpu9255_write>
 8003afe:	4603      	mov	r3, r0
 8003b00:	2b00      	cmp	r3, #0
 8003b02:	d002      	beq.n	8003b0a <mpu_lp_accel_mode+0x116>
        return -1;
 8003b04:	f04f 33ff 	mov.w	r3, #4294967295
 8003b08:	e00c      	b.n	8003b24 <mpu_lp_accel_mode+0x130>
#endif
    st.chip_cfg.sensors = INV_XYZ_ACCEL;
 8003b0a:	4b08      	ldr	r3, [pc, #32]	@ (8003b2c <mpu_lp_accel_mode+0x138>)
 8003b0c:	2208      	movs	r2, #8
 8003b0e:	729a      	strb	r2, [r3, #10]
    st.chip_cfg.clk_src = 0;
 8003b10:	4b06      	ldr	r3, [pc, #24]	@ (8003b2c <mpu_lp_accel_mode+0x138>)
 8003b12:	2200      	movs	r2, #0
 8003b14:	731a      	strb	r2, [r3, #12]
    st.chip_cfg.lp_accel_mode = 1;
 8003b16:	4b05      	ldr	r3, [pc, #20]	@ (8003b2c <mpu_lp_accel_mode+0x138>)
 8003b18:	2201      	movs	r2, #1
 8003b1a:	751a      	strb	r2, [r3, #20]
    mpu_configure_fifo(0);
 8003b1c:	2000      	movs	r0, #0
 8003b1e:	f000 fafd 	bl	800411c <mpu_configure_fifo>

    return 0;
 8003b22:	2300      	movs	r3, #0
}
 8003b24:	4618      	mov	r0, r3
 8003b26:	3710      	adds	r7, #16
 8003b28:	46bd      	mov	sp, r7
 8003b2a:	bd80      	pop	{r7, pc}
 8003b2c:	20000010 	.word	0x20000010

08003b30 <mpu_reset_fifo>:
/**
 *  @brief  Reset FIFO read/write pointers.
 *  @return 0 if successful.
 */
int mpu_reset_fifo(void)
{
 8003b30:	b580      	push	{r7, lr}
 8003b32:	b082      	sub	sp, #8
 8003b34:	af00      	add	r7, sp, #0
    unsigned char data;

    if (!(st.chip_cfg.sensors))
 8003b36:	4b7e      	ldr	r3, [pc, #504]	@ (8003d30 <mpu_reset_fifo+0x200>)
 8003b38:	7a9b      	ldrb	r3, [r3, #10]
 8003b3a:	2b00      	cmp	r3, #0
 8003b3c:	d102      	bne.n	8003b44 <mpu_reset_fifo+0x14>
        return -1;
 8003b3e:	f04f 33ff 	mov.w	r3, #4294967295
 8003b42:	e0f1      	b.n	8003d28 <mpu_reset_fifo+0x1f8>

    data = 0;
 8003b44:	2300      	movs	r3, #0
 8003b46:	71fb      	strb	r3, [r7, #7]
    if (i2c_write(st.hw->addr, st.reg->int_enable, 1, &data))
 8003b48:	4b79      	ldr	r3, [pc, #484]	@ (8003d30 <mpu_reset_fifo+0x200>)
 8003b4a:	685b      	ldr	r3, [r3, #4]
 8003b4c:	7818      	ldrb	r0, [r3, #0]
 8003b4e:	4b78      	ldr	r3, [pc, #480]	@ (8003d30 <mpu_reset_fifo+0x200>)
 8003b50:	681b      	ldr	r3, [r3, #0]
 8003b52:	7c59      	ldrb	r1, [r3, #17]
 8003b54:	1dfb      	adds	r3, r7, #7
 8003b56:	2201      	movs	r2, #1
 8003b58:	f001 ff86 	bl	8005a68 <mpu9255_write>
 8003b5c:	4603      	mov	r3, r0
 8003b5e:	2b00      	cmp	r3, #0
 8003b60:	d002      	beq.n	8003b68 <mpu_reset_fifo+0x38>
        return -1;
 8003b62:	f04f 33ff 	mov.w	r3, #4294967295
 8003b66:	e0df      	b.n	8003d28 <mpu_reset_fifo+0x1f8>
    if (i2c_write(st.hw->addr, st.reg->fifo_en, 1, &data))
 8003b68:	4b71      	ldr	r3, [pc, #452]	@ (8003d30 <mpu_reset_fifo+0x200>)
 8003b6a:	685b      	ldr	r3, [r3, #4]
 8003b6c:	7818      	ldrb	r0, [r3, #0]
 8003b6e:	4b70      	ldr	r3, [pc, #448]	@ (8003d30 <mpu_reset_fifo+0x200>)
 8003b70:	681b      	ldr	r3, [r3, #0]
 8003b72:	7959      	ldrb	r1, [r3, #5]
 8003b74:	1dfb      	adds	r3, r7, #7
 8003b76:	2201      	movs	r2, #1
 8003b78:	f001 ff76 	bl	8005a68 <mpu9255_write>
 8003b7c:	4603      	mov	r3, r0
 8003b7e:	2b00      	cmp	r3, #0
 8003b80:	d002      	beq.n	8003b88 <mpu_reset_fifo+0x58>
        return -1;
 8003b82:	f04f 33ff 	mov.w	r3, #4294967295
 8003b86:	e0cf      	b.n	8003d28 <mpu_reset_fifo+0x1f8>
    if (i2c_write(st.hw->addr, st.reg->user_ctrl, 1, &data))
 8003b88:	4b69      	ldr	r3, [pc, #420]	@ (8003d30 <mpu_reset_fifo+0x200>)
 8003b8a:	685b      	ldr	r3, [r3, #4]
 8003b8c:	7818      	ldrb	r0, [r3, #0]
 8003b8e:	4b68      	ldr	r3, [pc, #416]	@ (8003d30 <mpu_reset_fifo+0x200>)
 8003b90:	681b      	ldr	r3, [r3, #0]
 8003b92:	7919      	ldrb	r1, [r3, #4]
 8003b94:	1dfb      	adds	r3, r7, #7
 8003b96:	2201      	movs	r2, #1
 8003b98:	f001 ff66 	bl	8005a68 <mpu9255_write>
 8003b9c:	4603      	mov	r3, r0
 8003b9e:	2b00      	cmp	r3, #0
 8003ba0:	d002      	beq.n	8003ba8 <mpu_reset_fifo+0x78>
        return -1;
 8003ba2:	f04f 33ff 	mov.w	r3, #4294967295
 8003ba6:	e0bf      	b.n	8003d28 <mpu_reset_fifo+0x1f8>

    if (st.chip_cfg.dmp_on) {
 8003ba8:	4b61      	ldr	r3, [pc, #388]	@ (8003d30 <mpu_reset_fifo+0x200>)
 8003baa:	f893 3024 	ldrb.w	r3, [r3, #36]	@ 0x24
 8003bae:	2b00      	cmp	r3, #0
 8003bb0:	d05c      	beq.n	8003c6c <mpu_reset_fifo+0x13c>
        data = BIT_FIFO_RST | BIT_DMP_RST;
 8003bb2:	230c      	movs	r3, #12
 8003bb4:	71fb      	strb	r3, [r7, #7]
        if (i2c_write(st.hw->addr, st.reg->user_ctrl, 1, &data))
 8003bb6:	4b5e      	ldr	r3, [pc, #376]	@ (8003d30 <mpu_reset_fifo+0x200>)
 8003bb8:	685b      	ldr	r3, [r3, #4]
 8003bba:	7818      	ldrb	r0, [r3, #0]
 8003bbc:	4b5c      	ldr	r3, [pc, #368]	@ (8003d30 <mpu_reset_fifo+0x200>)
 8003bbe:	681b      	ldr	r3, [r3, #0]
 8003bc0:	7919      	ldrb	r1, [r3, #4]
 8003bc2:	1dfb      	adds	r3, r7, #7
 8003bc4:	2201      	movs	r2, #1
 8003bc6:	f001 ff4f 	bl	8005a68 <mpu9255_write>
 8003bca:	4603      	mov	r3, r0
 8003bcc:	2b00      	cmp	r3, #0
 8003bce:	d002      	beq.n	8003bd6 <mpu_reset_fifo+0xa6>
            return -1;
 8003bd0:	f04f 33ff 	mov.w	r3, #4294967295
 8003bd4:	e0a8      	b.n	8003d28 <mpu_reset_fifo+0x1f8>
        delay_ms(50);
 8003bd6:	2032      	movs	r0, #50	@ 0x32
 8003bd8:	f001 ffdc 	bl	8005b94 <mpu9255_delay_ms>
        data = BIT_DMP_EN | BIT_FIFO_EN;
 8003bdc:	23c0      	movs	r3, #192	@ 0xc0
 8003bde:	71fb      	strb	r3, [r7, #7]
        if (st.chip_cfg.sensors & INV_XYZ_COMPASS)
 8003be0:	4b53      	ldr	r3, [pc, #332]	@ (8003d30 <mpu_reset_fifo+0x200>)
 8003be2:	7a9b      	ldrb	r3, [r3, #10]
 8003be4:	f003 0301 	and.w	r3, r3, #1
 8003be8:	2b00      	cmp	r3, #0
 8003bea:	d004      	beq.n	8003bf6 <mpu_reset_fifo+0xc6>
            data |= BIT_AUX_IF_EN;
 8003bec:	79fb      	ldrb	r3, [r7, #7]
 8003bee:	f043 0320 	orr.w	r3, r3, #32
 8003bf2:	b2db      	uxtb	r3, r3
 8003bf4:	71fb      	strb	r3, [r7, #7]
        if (i2c_write(st.hw->addr, st.reg->user_ctrl, 1, &data))
 8003bf6:	4b4e      	ldr	r3, [pc, #312]	@ (8003d30 <mpu_reset_fifo+0x200>)
 8003bf8:	685b      	ldr	r3, [r3, #4]
 8003bfa:	7818      	ldrb	r0, [r3, #0]
 8003bfc:	4b4c      	ldr	r3, [pc, #304]	@ (8003d30 <mpu_reset_fifo+0x200>)
 8003bfe:	681b      	ldr	r3, [r3, #0]
 8003c00:	7919      	ldrb	r1, [r3, #4]
 8003c02:	1dfb      	adds	r3, r7, #7
 8003c04:	2201      	movs	r2, #1
 8003c06:	f001 ff2f 	bl	8005a68 <mpu9255_write>
 8003c0a:	4603      	mov	r3, r0
 8003c0c:	2b00      	cmp	r3, #0
 8003c0e:	d002      	beq.n	8003c16 <mpu_reset_fifo+0xe6>
            return -1;
 8003c10:	f04f 33ff 	mov.w	r3, #4294967295
 8003c14:	e088      	b.n	8003d28 <mpu_reset_fifo+0x1f8>
        if (st.chip_cfg.int_enable)
 8003c16:	4b46      	ldr	r3, [pc, #280]	@ (8003d30 <mpu_reset_fifo+0x200>)
 8003c18:	7c5b      	ldrb	r3, [r3, #17]
 8003c1a:	2b00      	cmp	r3, #0
 8003c1c:	d002      	beq.n	8003c24 <mpu_reset_fifo+0xf4>
            data = BIT_DMP_INT_EN;
 8003c1e:	2302      	movs	r3, #2
 8003c20:	71fb      	strb	r3, [r7, #7]
 8003c22:	e001      	b.n	8003c28 <mpu_reset_fifo+0xf8>
        else
            data = 0;
 8003c24:	2300      	movs	r3, #0
 8003c26:	71fb      	strb	r3, [r7, #7]
        if (i2c_write(st.hw->addr, st.reg->int_enable, 1, &data))
 8003c28:	4b41      	ldr	r3, [pc, #260]	@ (8003d30 <mpu_reset_fifo+0x200>)
 8003c2a:	685b      	ldr	r3, [r3, #4]
 8003c2c:	7818      	ldrb	r0, [r3, #0]
 8003c2e:	4b40      	ldr	r3, [pc, #256]	@ (8003d30 <mpu_reset_fifo+0x200>)
 8003c30:	681b      	ldr	r3, [r3, #0]
 8003c32:	7c59      	ldrb	r1, [r3, #17]
 8003c34:	1dfb      	adds	r3, r7, #7
 8003c36:	2201      	movs	r2, #1
 8003c38:	f001 ff16 	bl	8005a68 <mpu9255_write>
 8003c3c:	4603      	mov	r3, r0
 8003c3e:	2b00      	cmp	r3, #0
 8003c40:	d002      	beq.n	8003c48 <mpu_reset_fifo+0x118>
            return -1;
 8003c42:	f04f 33ff 	mov.w	r3, #4294967295
 8003c46:	e06f      	b.n	8003d28 <mpu_reset_fifo+0x1f8>
        data = 0;
 8003c48:	2300      	movs	r3, #0
 8003c4a:	71fb      	strb	r3, [r7, #7]
        if (i2c_write(st.hw->addr, st.reg->fifo_en, 1, &data))
 8003c4c:	4b38      	ldr	r3, [pc, #224]	@ (8003d30 <mpu_reset_fifo+0x200>)
 8003c4e:	685b      	ldr	r3, [r3, #4]
 8003c50:	7818      	ldrb	r0, [r3, #0]
 8003c52:	4b37      	ldr	r3, [pc, #220]	@ (8003d30 <mpu_reset_fifo+0x200>)
 8003c54:	681b      	ldr	r3, [r3, #0]
 8003c56:	7959      	ldrb	r1, [r3, #5]
 8003c58:	1dfb      	adds	r3, r7, #7
 8003c5a:	2201      	movs	r2, #1
 8003c5c:	f001 ff04 	bl	8005a68 <mpu9255_write>
 8003c60:	4603      	mov	r3, r0
 8003c62:	2b00      	cmp	r3, #0
 8003c64:	d05f      	beq.n	8003d26 <mpu_reset_fifo+0x1f6>
            return -1;
 8003c66:	f04f 33ff 	mov.w	r3, #4294967295
 8003c6a:	e05d      	b.n	8003d28 <mpu_reset_fifo+0x1f8>
    } else {
        data = BIT_FIFO_RST;
 8003c6c:	2304      	movs	r3, #4
 8003c6e:	71fb      	strb	r3, [r7, #7]
        if (i2c_write(st.hw->addr, st.reg->user_ctrl, 1, &data))
 8003c70:	4b2f      	ldr	r3, [pc, #188]	@ (8003d30 <mpu_reset_fifo+0x200>)
 8003c72:	685b      	ldr	r3, [r3, #4]
 8003c74:	7818      	ldrb	r0, [r3, #0]
 8003c76:	4b2e      	ldr	r3, [pc, #184]	@ (8003d30 <mpu_reset_fifo+0x200>)
 8003c78:	681b      	ldr	r3, [r3, #0]
 8003c7a:	7919      	ldrb	r1, [r3, #4]
 8003c7c:	1dfb      	adds	r3, r7, #7
 8003c7e:	2201      	movs	r2, #1
 8003c80:	f001 fef2 	bl	8005a68 <mpu9255_write>
 8003c84:	4603      	mov	r3, r0
 8003c86:	2b00      	cmp	r3, #0
 8003c88:	d002      	beq.n	8003c90 <mpu_reset_fifo+0x160>
            return -1;
 8003c8a:	f04f 33ff 	mov.w	r3, #4294967295
 8003c8e:	e04b      	b.n	8003d28 <mpu_reset_fifo+0x1f8>
        if (st.chip_cfg.bypass_mode || !(st.chip_cfg.sensors & INV_XYZ_COMPASS))
 8003c90:	4b27      	ldr	r3, [pc, #156]	@ (8003d30 <mpu_reset_fifo+0x200>)
 8003c92:	7c9b      	ldrb	r3, [r3, #18]
 8003c94:	2b00      	cmp	r3, #0
 8003c96:	d105      	bne.n	8003ca4 <mpu_reset_fifo+0x174>
 8003c98:	4b25      	ldr	r3, [pc, #148]	@ (8003d30 <mpu_reset_fifo+0x200>)
 8003c9a:	7a9b      	ldrb	r3, [r3, #10]
 8003c9c:	f003 0301 	and.w	r3, r3, #1
 8003ca0:	2b00      	cmp	r3, #0
 8003ca2:	d102      	bne.n	8003caa <mpu_reset_fifo+0x17a>
            data = BIT_FIFO_EN;
 8003ca4:	2340      	movs	r3, #64	@ 0x40
 8003ca6:	71fb      	strb	r3, [r7, #7]
 8003ca8:	e001      	b.n	8003cae <mpu_reset_fifo+0x17e>
        else
            data = BIT_FIFO_EN | BIT_AUX_IF_EN;
 8003caa:	2360      	movs	r3, #96	@ 0x60
 8003cac:	71fb      	strb	r3, [r7, #7]
        if (i2c_write(st.hw->addr, st.reg->user_ctrl, 1, &data))
 8003cae:	4b20      	ldr	r3, [pc, #128]	@ (8003d30 <mpu_reset_fifo+0x200>)
 8003cb0:	685b      	ldr	r3, [r3, #4]
 8003cb2:	7818      	ldrb	r0, [r3, #0]
 8003cb4:	4b1e      	ldr	r3, [pc, #120]	@ (8003d30 <mpu_reset_fifo+0x200>)
 8003cb6:	681b      	ldr	r3, [r3, #0]
 8003cb8:	7919      	ldrb	r1, [r3, #4]
 8003cba:	1dfb      	adds	r3, r7, #7
 8003cbc:	2201      	movs	r2, #1
 8003cbe:	f001 fed3 	bl	8005a68 <mpu9255_write>
 8003cc2:	4603      	mov	r3, r0
 8003cc4:	2b00      	cmp	r3, #0
 8003cc6:	d002      	beq.n	8003cce <mpu_reset_fifo+0x19e>
            return -1;
 8003cc8:	f04f 33ff 	mov.w	r3, #4294967295
 8003ccc:	e02c      	b.n	8003d28 <mpu_reset_fifo+0x1f8>
        delay_ms(50);
 8003cce:	2032      	movs	r0, #50	@ 0x32
 8003cd0:	f001 ff60 	bl	8005b94 <mpu9255_delay_ms>
        if (st.chip_cfg.int_enable)
 8003cd4:	4b16      	ldr	r3, [pc, #88]	@ (8003d30 <mpu_reset_fifo+0x200>)
 8003cd6:	7c5b      	ldrb	r3, [r3, #17]
 8003cd8:	2b00      	cmp	r3, #0
 8003cda:	d002      	beq.n	8003ce2 <mpu_reset_fifo+0x1b2>
            data = BIT_DATA_RDY_EN;
 8003cdc:	2301      	movs	r3, #1
 8003cde:	71fb      	strb	r3, [r7, #7]
 8003ce0:	e001      	b.n	8003ce6 <mpu_reset_fifo+0x1b6>
        else
            data = 0;
 8003ce2:	2300      	movs	r3, #0
 8003ce4:	71fb      	strb	r3, [r7, #7]
        if (i2c_write(st.hw->addr, st.reg->int_enable, 1, &data))
 8003ce6:	4b12      	ldr	r3, [pc, #72]	@ (8003d30 <mpu_reset_fifo+0x200>)
 8003ce8:	685b      	ldr	r3, [r3, #4]
 8003cea:	7818      	ldrb	r0, [r3, #0]
 8003cec:	4b10      	ldr	r3, [pc, #64]	@ (8003d30 <mpu_reset_fifo+0x200>)
 8003cee:	681b      	ldr	r3, [r3, #0]
 8003cf0:	7c59      	ldrb	r1, [r3, #17]
 8003cf2:	1dfb      	adds	r3, r7, #7
 8003cf4:	2201      	movs	r2, #1
 8003cf6:	f001 feb7 	bl	8005a68 <mpu9255_write>
 8003cfa:	4603      	mov	r3, r0
 8003cfc:	2b00      	cmp	r3, #0
 8003cfe:	d002      	beq.n	8003d06 <mpu_reset_fifo+0x1d6>
            return -1;
 8003d00:	f04f 33ff 	mov.w	r3, #4294967295
 8003d04:	e010      	b.n	8003d28 <mpu_reset_fifo+0x1f8>
        if (i2c_write(st.hw->addr, st.reg->fifo_en, 1, &st.chip_cfg.fifo_enable))
 8003d06:	4b0a      	ldr	r3, [pc, #40]	@ (8003d30 <mpu_reset_fifo+0x200>)
 8003d08:	685b      	ldr	r3, [r3, #4]
 8003d0a:	7818      	ldrb	r0, [r3, #0]
 8003d0c:	4b08      	ldr	r3, [pc, #32]	@ (8003d30 <mpu_reset_fifo+0x200>)
 8003d0e:	681b      	ldr	r3, [r3, #0]
 8003d10:	7959      	ldrb	r1, [r3, #5]
 8003d12:	4b08      	ldr	r3, [pc, #32]	@ (8003d34 <mpu_reset_fifo+0x204>)
 8003d14:	2201      	movs	r2, #1
 8003d16:	f001 fea7 	bl	8005a68 <mpu9255_write>
 8003d1a:	4603      	mov	r3, r0
 8003d1c:	2b00      	cmp	r3, #0
 8003d1e:	d002      	beq.n	8003d26 <mpu_reset_fifo+0x1f6>
            return -1;
 8003d20:	f04f 33ff 	mov.w	r3, #4294967295
 8003d24:	e000      	b.n	8003d28 <mpu_reset_fifo+0x1f8>
    }
    return 0;
 8003d26:	2300      	movs	r3, #0
}
 8003d28:	4618      	mov	r0, r3
 8003d2a:	3708      	adds	r7, #8
 8003d2c:	46bd      	mov	sp, r7
 8003d2e:	bd80      	pop	{r7, pc}
 8003d30:	20000010 	.word	0x20000010
 8003d34:	20000020 	.word	0x20000020

08003d38 <mpu_set_gyro_fsr>:
 *  @brief      Set the gyro full-scale range.
 *  @param[in]  fsr Desired full-scale range.
 *  @return     0 if successful.
 */
int mpu_set_gyro_fsr(unsigned short fsr)
{
 8003d38:	b580      	push	{r7, lr}
 8003d3a:	b084      	sub	sp, #16
 8003d3c:	af00      	add	r7, sp, #0
 8003d3e:	4603      	mov	r3, r0
 8003d40:	80fb      	strh	r3, [r7, #6]
    unsigned char data;

    if (!(st.chip_cfg.sensors))
 8003d42:	4b26      	ldr	r3, [pc, #152]	@ (8003ddc <mpu_set_gyro_fsr+0xa4>)
 8003d44:	7a9b      	ldrb	r3, [r3, #10]
 8003d46:	2b00      	cmp	r3, #0
 8003d48:	d102      	bne.n	8003d50 <mpu_set_gyro_fsr+0x18>
        return -1;
 8003d4a:	f04f 33ff 	mov.w	r3, #4294967295
 8003d4e:	e041      	b.n	8003dd4 <mpu_set_gyro_fsr+0x9c>

    switch (fsr) {
 8003d50:	88fb      	ldrh	r3, [r7, #6]
 8003d52:	f5b3 6ffa 	cmp.w	r3, #2000	@ 0x7d0
 8003d56:	d017      	beq.n	8003d88 <mpu_set_gyro_fsr+0x50>
 8003d58:	f5b3 6ffa 	cmp.w	r3, #2000	@ 0x7d0
 8003d5c:	dc17      	bgt.n	8003d8e <mpu_set_gyro_fsr+0x56>
 8003d5e:	f5b3 7f7a 	cmp.w	r3, #1000	@ 0x3e8
 8003d62:	d00e      	beq.n	8003d82 <mpu_set_gyro_fsr+0x4a>
 8003d64:	f5b3 7f7a 	cmp.w	r3, #1000	@ 0x3e8
 8003d68:	dc11      	bgt.n	8003d8e <mpu_set_gyro_fsr+0x56>
 8003d6a:	2bfa      	cmp	r3, #250	@ 0xfa
 8003d6c:	d003      	beq.n	8003d76 <mpu_set_gyro_fsr+0x3e>
 8003d6e:	f5b3 7ffa 	cmp.w	r3, #500	@ 0x1f4
 8003d72:	d003      	beq.n	8003d7c <mpu_set_gyro_fsr+0x44>
 8003d74:	e00b      	b.n	8003d8e <mpu_set_gyro_fsr+0x56>
    case 250:
        data = INV_FSR_250DPS << 3;
 8003d76:	2300      	movs	r3, #0
 8003d78:	73fb      	strb	r3, [r7, #15]
        break;
 8003d7a:	e00b      	b.n	8003d94 <mpu_set_gyro_fsr+0x5c>
    case 500:
        data = INV_FSR_500DPS << 3;
 8003d7c:	2308      	movs	r3, #8
 8003d7e:	73fb      	strb	r3, [r7, #15]
        break;
 8003d80:	e008      	b.n	8003d94 <mpu_set_gyro_fsr+0x5c>
    case 1000:
        data = INV_FSR_1000DPS << 3;
 8003d82:	2310      	movs	r3, #16
 8003d84:	73fb      	strb	r3, [r7, #15]
        break;
 8003d86:	e005      	b.n	8003d94 <mpu_set_gyro_fsr+0x5c>
    case 2000:
        data = INV_FSR_2000DPS << 3;
 8003d88:	2318      	movs	r3, #24
 8003d8a:	73fb      	strb	r3, [r7, #15]
        break;
 8003d8c:	e002      	b.n	8003d94 <mpu_set_gyro_fsr+0x5c>
    default:
        return -1;
 8003d8e:	f04f 33ff 	mov.w	r3, #4294967295
 8003d92:	e01f      	b.n	8003dd4 <mpu_set_gyro_fsr+0x9c>
    }

    if (st.chip_cfg.gyro_fsr == (data >> 3))
 8003d94:	4b11      	ldr	r3, [pc, #68]	@ (8003ddc <mpu_set_gyro_fsr+0xa4>)
 8003d96:	7a1a      	ldrb	r2, [r3, #8]
 8003d98:	7bfb      	ldrb	r3, [r7, #15]
 8003d9a:	08db      	lsrs	r3, r3, #3
 8003d9c:	b2db      	uxtb	r3, r3
 8003d9e:	429a      	cmp	r2, r3
 8003da0:	d101      	bne.n	8003da6 <mpu_set_gyro_fsr+0x6e>
        return 0;
 8003da2:	2300      	movs	r3, #0
 8003da4:	e016      	b.n	8003dd4 <mpu_set_gyro_fsr+0x9c>
    if (i2c_write(st.hw->addr, st.reg->gyro_cfg, 1, &data))
 8003da6:	4b0d      	ldr	r3, [pc, #52]	@ (8003ddc <mpu_set_gyro_fsr+0xa4>)
 8003da8:	685b      	ldr	r3, [r3, #4]
 8003daa:	7818      	ldrb	r0, [r3, #0]
 8003dac:	4b0b      	ldr	r3, [pc, #44]	@ (8003ddc <mpu_set_gyro_fsr+0xa4>)
 8003dae:	681b      	ldr	r3, [r3, #0]
 8003db0:	7999      	ldrb	r1, [r3, #6]
 8003db2:	f107 030f 	add.w	r3, r7, #15
 8003db6:	2201      	movs	r2, #1
 8003db8:	f001 fe56 	bl	8005a68 <mpu9255_write>
 8003dbc:	4603      	mov	r3, r0
 8003dbe:	2b00      	cmp	r3, #0
 8003dc0:	d002      	beq.n	8003dc8 <mpu_set_gyro_fsr+0x90>
        return -1;
 8003dc2:	f04f 33ff 	mov.w	r3, #4294967295
 8003dc6:	e005      	b.n	8003dd4 <mpu_set_gyro_fsr+0x9c>
    st.chip_cfg.gyro_fsr = data >> 3;
 8003dc8:	7bfb      	ldrb	r3, [r7, #15]
 8003dca:	08db      	lsrs	r3, r3, #3
 8003dcc:	b2da      	uxtb	r2, r3
 8003dce:	4b03      	ldr	r3, [pc, #12]	@ (8003ddc <mpu_set_gyro_fsr+0xa4>)
 8003dd0:	721a      	strb	r2, [r3, #8]
    return 0;
 8003dd2:	2300      	movs	r3, #0
}
 8003dd4:	4618      	mov	r0, r3
 8003dd6:	3710      	adds	r7, #16
 8003dd8:	46bd      	mov	sp, r7
 8003dda:	bd80      	pop	{r7, pc}
 8003ddc:	20000010 	.word	0x20000010

08003de0 <mpu_get_accel_fsr>:
 *  @brief      Get the accel full-scale range.
 *  @param[out] fsr Current full-scale range.
 *  @return     0 if successful.
 */
int mpu_get_accel_fsr(unsigned char *fsr)
{
 8003de0:	b480      	push	{r7}
 8003de2:	b083      	sub	sp, #12
 8003de4:	af00      	add	r7, sp, #0
 8003de6:	6078      	str	r0, [r7, #4]
    switch (st.chip_cfg.accel_fsr) {
 8003de8:	4b19      	ldr	r3, [pc, #100]	@ (8003e50 <mpu_get_accel_fsr+0x70>)
 8003dea:	7a5b      	ldrb	r3, [r3, #9]
 8003dec:	2b03      	cmp	r3, #3
 8003dee:	d81b      	bhi.n	8003e28 <mpu_get_accel_fsr+0x48>
 8003df0:	a201      	add	r2, pc, #4	@ (adr r2, 8003df8 <mpu_get_accel_fsr+0x18>)
 8003df2:	f852 f023 	ldr.w	pc, [r2, r3, lsl #2]
 8003df6:	bf00      	nop
 8003df8:	08003e09 	.word	0x08003e09
 8003dfc:	08003e11 	.word	0x08003e11
 8003e00:	08003e19 	.word	0x08003e19
 8003e04:	08003e21 	.word	0x08003e21
    case INV_FSR_2G:
        fsr[0] = 2;
 8003e08:	687b      	ldr	r3, [r7, #4]
 8003e0a:	2202      	movs	r2, #2
 8003e0c:	701a      	strb	r2, [r3, #0]
        break;
 8003e0e:	e00e      	b.n	8003e2e <mpu_get_accel_fsr+0x4e>
    case INV_FSR_4G:
        fsr[0] = 4;
 8003e10:	687b      	ldr	r3, [r7, #4]
 8003e12:	2204      	movs	r2, #4
 8003e14:	701a      	strb	r2, [r3, #0]
        break;
 8003e16:	e00a      	b.n	8003e2e <mpu_get_accel_fsr+0x4e>
    case INV_FSR_8G:
        fsr[0] = 8;
 8003e18:	687b      	ldr	r3, [r7, #4]
 8003e1a:	2208      	movs	r2, #8
 8003e1c:	701a      	strb	r2, [r3, #0]
        break;
 8003e1e:	e006      	b.n	8003e2e <mpu_get_accel_fsr+0x4e>
    case INV_FSR_16G:
        fsr[0] = 16;
 8003e20:	687b      	ldr	r3, [r7, #4]
 8003e22:	2210      	movs	r2, #16
 8003e24:	701a      	strb	r2, [r3, #0]
        break;
 8003e26:	e002      	b.n	8003e2e <mpu_get_accel_fsr+0x4e>
    default:
        return -1;
 8003e28:	f04f 33ff 	mov.w	r3, #4294967295
 8003e2c:	e00a      	b.n	8003e44 <mpu_get_accel_fsr+0x64>
    }
    if (st.chip_cfg.accel_half)
 8003e2e:	4b08      	ldr	r3, [pc, #32]	@ (8003e50 <mpu_get_accel_fsr+0x70>)
 8003e30:	7cdb      	ldrb	r3, [r3, #19]
 8003e32:	2b00      	cmp	r3, #0
 8003e34:	d005      	beq.n	8003e42 <mpu_get_accel_fsr+0x62>
        fsr[0] <<= 1;
 8003e36:	687b      	ldr	r3, [r7, #4]
 8003e38:	781b      	ldrb	r3, [r3, #0]
 8003e3a:	005b      	lsls	r3, r3, #1
 8003e3c:	b2da      	uxtb	r2, r3
 8003e3e:	687b      	ldr	r3, [r7, #4]
 8003e40:	701a      	strb	r2, [r3, #0]
    return 0;
 8003e42:	2300      	movs	r3, #0
}
 8003e44:	4618      	mov	r0, r3
 8003e46:	370c      	adds	r7, #12
 8003e48:	46bd      	mov	sp, r7
 8003e4a:	f85d 7b04 	ldr.w	r7, [sp], #4
 8003e4e:	4770      	bx	lr
 8003e50:	20000010 	.word	0x20000010

08003e54 <mpu_set_accel_fsr>:
 *  @brief      Set the accel full-scale range.
 *  @param[in]  fsr Desired full-scale range.
 *  @return     0 if successful.
 */
int mpu_set_accel_fsr(unsigned char fsr)
{
 8003e54:	b580      	push	{r7, lr}
 8003e56:	b084      	sub	sp, #16
 8003e58:	af00      	add	r7, sp, #0
 8003e5a:	4603      	mov	r3, r0
 8003e5c:	71fb      	strb	r3, [r7, #7]
    unsigned char data;

    if (!(st.chip_cfg.sensors))
 8003e5e:	4b30      	ldr	r3, [pc, #192]	@ (8003f20 <mpu_set_accel_fsr+0xcc>)
 8003e60:	7a9b      	ldrb	r3, [r3, #10]
 8003e62:	2b00      	cmp	r3, #0
 8003e64:	d102      	bne.n	8003e6c <mpu_set_accel_fsr+0x18>
        return -1;
 8003e66:	f04f 33ff 	mov.w	r3, #4294967295
 8003e6a:	e054      	b.n	8003f16 <mpu_set_accel_fsr+0xc2>

    switch (fsr) {
 8003e6c:	79fb      	ldrb	r3, [r7, #7]
 8003e6e:	3b02      	subs	r3, #2
 8003e70:	2b0e      	cmp	r3, #14
 8003e72:	d82d      	bhi.n	8003ed0 <mpu_set_accel_fsr+0x7c>
 8003e74:	a201      	add	r2, pc, #4	@ (adr r2, 8003e7c <mpu_set_accel_fsr+0x28>)
 8003e76:	f852 f023 	ldr.w	pc, [r2, r3, lsl #2]
 8003e7a:	bf00      	nop
 8003e7c:	08003eb9 	.word	0x08003eb9
 8003e80:	08003ed1 	.word	0x08003ed1
 8003e84:	08003ebf 	.word	0x08003ebf
 8003e88:	08003ed1 	.word	0x08003ed1
 8003e8c:	08003ed1 	.word	0x08003ed1
 8003e90:	08003ed1 	.word	0x08003ed1
 8003e94:	08003ec5 	.word	0x08003ec5
 8003e98:	08003ed1 	.word	0x08003ed1
 8003e9c:	08003ed1 	.word	0x08003ed1
 8003ea0:	08003ed1 	.word	0x08003ed1
 8003ea4:	08003ed1 	.word	0x08003ed1
 8003ea8:	08003ed1 	.word	0x08003ed1
 8003eac:	08003ed1 	.word	0x08003ed1
 8003eb0:	08003ed1 	.word	0x08003ed1
 8003eb4:	08003ecb 	.word	0x08003ecb
    case 2:
        data = INV_FSR_2G << 3;
 8003eb8:	2300      	movs	r3, #0
 8003eba:	73fb      	strb	r3, [r7, #15]
        break;
 8003ebc:	e00b      	b.n	8003ed6 <mpu_set_accel_fsr+0x82>
    case 4:
        data = INV_FSR_4G << 3;
 8003ebe:	2308      	movs	r3, #8
 8003ec0:	73fb      	strb	r3, [r7, #15]
        break;
 8003ec2:	e008      	b.n	8003ed6 <mpu_set_accel_fsr+0x82>
    case 8:
        data = INV_FSR_8G << 3;
 8003ec4:	2310      	movs	r3, #16
 8003ec6:	73fb      	strb	r3, [r7, #15]
        break;
 8003ec8:	e005      	b.n	8003ed6 <mpu_set_accel_fsr+0x82>
    case 16:
        data = INV_FSR_16G << 3;
 8003eca:	2318      	movs	r3, #24
 8003ecc:	73fb      	strb	r3, [r7, #15]
        break;
 8003ece:	e002      	b.n	8003ed6 <mpu_set_accel_fsr+0x82>
    default:
        return -1;
 8003ed0:	f04f 33ff 	mov.w	r3, #4294967295
 8003ed4:	e01f      	b.n	8003f16 <mpu_set_accel_fsr+0xc2>
    }

    if (st.chip_cfg.accel_fsr == (data >> 3))
 8003ed6:	4b12      	ldr	r3, [pc, #72]	@ (8003f20 <mpu_set_accel_fsr+0xcc>)
 8003ed8:	7a5a      	ldrb	r2, [r3, #9]
 8003eda:	7bfb      	ldrb	r3, [r7, #15]
 8003edc:	08db      	lsrs	r3, r3, #3
 8003ede:	b2db      	uxtb	r3, r3
 8003ee0:	429a      	cmp	r2, r3
 8003ee2:	d101      	bne.n	8003ee8 <mpu_set_accel_fsr+0x94>
        return 0;
 8003ee4:	2300      	movs	r3, #0
 8003ee6:	e016      	b.n	8003f16 <mpu_set_accel_fsr+0xc2>
    if (i2c_write(st.hw->addr, st.reg->accel_cfg, 1, &data))
 8003ee8:	4b0d      	ldr	r3, [pc, #52]	@ (8003f20 <mpu_set_accel_fsr+0xcc>)
 8003eea:	685b      	ldr	r3, [r3, #4]
 8003eec:	7818      	ldrb	r0, [r3, #0]
 8003eee:	4b0c      	ldr	r3, [pc, #48]	@ (8003f20 <mpu_set_accel_fsr+0xcc>)
 8003ef0:	681b      	ldr	r3, [r3, #0]
 8003ef2:	79d9      	ldrb	r1, [r3, #7]
 8003ef4:	f107 030f 	add.w	r3, r7, #15
 8003ef8:	2201      	movs	r2, #1
 8003efa:	f001 fdb5 	bl	8005a68 <mpu9255_write>
 8003efe:	4603      	mov	r3, r0
 8003f00:	2b00      	cmp	r3, #0
 8003f02:	d002      	beq.n	8003f0a <mpu_set_accel_fsr+0xb6>
        return -1;
 8003f04:	f04f 33ff 	mov.w	r3, #4294967295
 8003f08:	e005      	b.n	8003f16 <mpu_set_accel_fsr+0xc2>
    st.chip_cfg.accel_fsr = data >> 3;
 8003f0a:	7bfb      	ldrb	r3, [r7, #15]
 8003f0c:	08db      	lsrs	r3, r3, #3
 8003f0e:	b2da      	uxtb	r2, r3
 8003f10:	4b03      	ldr	r3, [pc, #12]	@ (8003f20 <mpu_set_accel_fsr+0xcc>)
 8003f12:	725a      	strb	r2, [r3, #9]
    return 0;
 8003f14:	2300      	movs	r3, #0
}
 8003f16:	4618      	mov	r0, r3
 8003f18:	3710      	adds	r7, #16
 8003f1a:	46bd      	mov	sp, r7
 8003f1c:	bd80      	pop	{r7, pc}
 8003f1e:	bf00      	nop
 8003f20:	20000010 	.word	0x20000010

08003f24 <mpu_set_lpf>:
 *  The following LPF settings are supported: 188, 98, 42, 20, 10, 5.
 *  @param[in]  lpf Desired LPF setting.
 *  @return     0 if successful.
 */
int mpu_set_lpf(unsigned short lpf)
{
 8003f24:	b580      	push	{r7, lr}
 8003f26:	b084      	sub	sp, #16
 8003f28:	af00      	add	r7, sp, #0
 8003f2a:	4603      	mov	r3, r0
 8003f2c:	80fb      	strh	r3, [r7, #6]
    unsigned char data;

    if (!(st.chip_cfg.sensors))
 8003f2e:	4b23      	ldr	r3, [pc, #140]	@ (8003fbc <mpu_set_lpf+0x98>)
 8003f30:	7a9b      	ldrb	r3, [r3, #10]
 8003f32:	2b00      	cmp	r3, #0
 8003f34:	d102      	bne.n	8003f3c <mpu_set_lpf+0x18>
        return -1;
 8003f36:	f04f 33ff 	mov.w	r3, #4294967295
 8003f3a:	e03b      	b.n	8003fb4 <mpu_set_lpf+0x90>

    if (lpf >= 188)
 8003f3c:	88fb      	ldrh	r3, [r7, #6]
 8003f3e:	2bbb      	cmp	r3, #187	@ 0xbb
 8003f40:	d902      	bls.n	8003f48 <mpu_set_lpf+0x24>
        data = INV_FILTER_188HZ;
 8003f42:	2301      	movs	r3, #1
 8003f44:	73fb      	strb	r3, [r7, #15]
 8003f46:	e019      	b.n	8003f7c <mpu_set_lpf+0x58>
    else if (lpf >= 98)
 8003f48:	88fb      	ldrh	r3, [r7, #6]
 8003f4a:	2b61      	cmp	r3, #97	@ 0x61
 8003f4c:	d902      	bls.n	8003f54 <mpu_set_lpf+0x30>
        data = INV_FILTER_98HZ;
 8003f4e:	2302      	movs	r3, #2
 8003f50:	73fb      	strb	r3, [r7, #15]
 8003f52:	e013      	b.n	8003f7c <mpu_set_lpf+0x58>
    else if (lpf >= 42)
 8003f54:	88fb      	ldrh	r3, [r7, #6]
 8003f56:	2b29      	cmp	r3, #41	@ 0x29
 8003f58:	d902      	bls.n	8003f60 <mpu_set_lpf+0x3c>
        data = INV_FILTER_42HZ;
 8003f5a:	2303      	movs	r3, #3
 8003f5c:	73fb      	strb	r3, [r7, #15]
 8003f5e:	e00d      	b.n	8003f7c <mpu_set_lpf+0x58>
    else if (lpf >= 20)
 8003f60:	88fb      	ldrh	r3, [r7, #6]
 8003f62:	2b13      	cmp	r3, #19
 8003f64:	d902      	bls.n	8003f6c <mpu_set_lpf+0x48>
        data = INV_FILTER_20HZ;
 8003f66:	2304      	movs	r3, #4
 8003f68:	73fb      	strb	r3, [r7, #15]
 8003f6a:	e007      	b.n	8003f7c <mpu_set_lpf+0x58>
    else if (lpf >= 10)
 8003f6c:	88fb      	ldrh	r3, [r7, #6]
 8003f6e:	2b09      	cmp	r3, #9
 8003f70:	d902      	bls.n	8003f78 <mpu_set_lpf+0x54>
        data = INV_FILTER_10HZ;
 8003f72:	2305      	movs	r3, #5
 8003f74:	73fb      	strb	r3, [r7, #15]
 8003f76:	e001      	b.n	8003f7c <mpu_set_lpf+0x58>
    else
        data = INV_FILTER_5HZ;
 8003f78:	2306      	movs	r3, #6
 8003f7a:	73fb      	strb	r3, [r7, #15]

    if (st.chip_cfg.lpf == data)
 8003f7c:	4b0f      	ldr	r3, [pc, #60]	@ (8003fbc <mpu_set_lpf+0x98>)
 8003f7e:	7ada      	ldrb	r2, [r3, #11]
 8003f80:	7bfb      	ldrb	r3, [r7, #15]
 8003f82:	429a      	cmp	r2, r3
 8003f84:	d101      	bne.n	8003f8a <mpu_set_lpf+0x66>
        return 0;
 8003f86:	2300      	movs	r3, #0
 8003f88:	e014      	b.n	8003fb4 <mpu_set_lpf+0x90>
    if (i2c_write(st.hw->addr, st.reg->lpf, 1, &data))
 8003f8a:	4b0c      	ldr	r3, [pc, #48]	@ (8003fbc <mpu_set_lpf+0x98>)
 8003f8c:	685b      	ldr	r3, [r3, #4]
 8003f8e:	7818      	ldrb	r0, [r3, #0]
 8003f90:	4b0a      	ldr	r3, [pc, #40]	@ (8003fbc <mpu_set_lpf+0x98>)
 8003f92:	681b      	ldr	r3, [r3, #0]
 8003f94:	7899      	ldrb	r1, [r3, #2]
 8003f96:	f107 030f 	add.w	r3, r7, #15
 8003f9a:	2201      	movs	r2, #1
 8003f9c:	f001 fd64 	bl	8005a68 <mpu9255_write>
 8003fa0:	4603      	mov	r3, r0
 8003fa2:	2b00      	cmp	r3, #0
 8003fa4:	d002      	beq.n	8003fac <mpu_set_lpf+0x88>
        return -1;
 8003fa6:	f04f 33ff 	mov.w	r3, #4294967295
 8003faa:	e003      	b.n	8003fb4 <mpu_set_lpf+0x90>
    st.chip_cfg.lpf = data;
 8003fac:	7bfa      	ldrb	r2, [r7, #15]
 8003fae:	4b03      	ldr	r3, [pc, #12]	@ (8003fbc <mpu_set_lpf+0x98>)
 8003fb0:	72da      	strb	r2, [r3, #11]
    return 0;
 8003fb2:	2300      	movs	r3, #0
}
 8003fb4:	4618      	mov	r0, r3
 8003fb6:	3710      	adds	r7, #16
 8003fb8:	46bd      	mov	sp, r7
 8003fba:	bd80      	pop	{r7, pc}
 8003fbc:	20000010 	.word	0x20000010

08003fc0 <mpu_set_sample_rate>:
 *  Sampling rate must be between 4Hz and 1kHz.
 *  @param[in]  rate    Desired sampling rate (Hz).
 *  @return     0 if successful.
 */
int mpu_set_sample_rate(unsigned short rate)
{
 8003fc0:	b580      	push	{r7, lr}
 8003fc2:	b084      	sub	sp, #16
 8003fc4:	af00      	add	r7, sp, #0
 8003fc6:	4603      	mov	r3, r0
 8003fc8:	80fb      	strh	r3, [r7, #6]
    unsigned char data;

    if (!(st.chip_cfg.sensors))
 8003fca:	4b33      	ldr	r3, [pc, #204]	@ (8004098 <mpu_set_sample_rate+0xd8>)
 8003fcc:	7a9b      	ldrb	r3, [r3, #10]
 8003fce:	2b00      	cmp	r3, #0
 8003fd0:	d102      	bne.n	8003fd8 <mpu_set_sample_rate+0x18>
        return -1;
 8003fd2:	f04f 33ff 	mov.w	r3, #4294967295
 8003fd6:	e05b      	b.n	8004090 <mpu_set_sample_rate+0xd0>

    if (st.chip_cfg.dmp_on)
 8003fd8:	4b2f      	ldr	r3, [pc, #188]	@ (8004098 <mpu_set_sample_rate+0xd8>)
 8003fda:	f893 3024 	ldrb.w	r3, [r3, #36]	@ 0x24
 8003fde:	2b00      	cmp	r3, #0
 8003fe0:	d002      	beq.n	8003fe8 <mpu_set_sample_rate+0x28>
        return -1;
 8003fe2:	f04f 33ff 	mov.w	r3, #4294967295
 8003fe6:	e053      	b.n	8004090 <mpu_set_sample_rate+0xd0>
    else {
        if (st.chip_cfg.lp_accel_mode) {
 8003fe8:	4b2b      	ldr	r3, [pc, #172]	@ (8004098 <mpu_set_sample_rate+0xd8>)
 8003fea:	7d1b      	ldrb	r3, [r3, #20]
 8003fec:	2b00      	cmp	r3, #0
 8003fee:	d00e      	beq.n	800400e <mpu_set_sample_rate+0x4e>
            if (rate && (rate <= 40)) {
 8003ff0:	88fb      	ldrh	r3, [r7, #6]
 8003ff2:	2b00      	cmp	r3, #0
 8003ff4:	d008      	beq.n	8004008 <mpu_set_sample_rate+0x48>
 8003ff6:	88fb      	ldrh	r3, [r7, #6]
 8003ff8:	2b28      	cmp	r3, #40	@ 0x28
 8003ffa:	d805      	bhi.n	8004008 <mpu_set_sample_rate+0x48>
                /* Just stay in low-power accel mode. */
                mpu_lp_accel_mode(rate);
 8003ffc:	88fb      	ldrh	r3, [r7, #6]
 8003ffe:	4618      	mov	r0, r3
 8004000:	f7ff fcf8 	bl	80039f4 <mpu_lp_accel_mode>
                return 0;
 8004004:	2300      	movs	r3, #0
 8004006:	e043      	b.n	8004090 <mpu_set_sample_rate+0xd0>
            }
            /* Requested rate exceeds the allowed frequencies in LP accel mode,
             * switch back to full-power mode.
             */
            mpu_lp_accel_mode(0);
 8004008:	2000      	movs	r0, #0
 800400a:	f7ff fcf3 	bl	80039f4 <mpu_lp_accel_mode>
        }
        if (rate < 4)
 800400e:	88fb      	ldrh	r3, [r7, #6]
 8004010:	2b03      	cmp	r3, #3
 8004012:	d802      	bhi.n	800401a <mpu_set_sample_rate+0x5a>
            rate = 4;
 8004014:	2304      	movs	r3, #4
 8004016:	80fb      	strh	r3, [r7, #6]
 8004018:	e006      	b.n	8004028 <mpu_set_sample_rate+0x68>
        else if (rate > 1000)
 800401a:	88fb      	ldrh	r3, [r7, #6]
 800401c:	f5b3 7f7a 	cmp.w	r3, #1000	@ 0x3e8
 8004020:	d902      	bls.n	8004028 <mpu_set_sample_rate+0x68>
            rate = 1000;
 8004022:	f44f 737a 	mov.w	r3, #1000	@ 0x3e8
 8004026:	80fb      	strh	r3, [r7, #6]

        data = 1000 / rate - 1;
 8004028:	88fb      	ldrh	r3, [r7, #6]
 800402a:	f44f 727a 	mov.w	r2, #1000	@ 0x3e8
 800402e:	fb92 f3f3 	sdiv	r3, r2, r3
 8004032:	b2db      	uxtb	r3, r3
 8004034:	3b01      	subs	r3, #1
 8004036:	b2db      	uxtb	r3, r3
 8004038:	73fb      	strb	r3, [r7, #15]
        if (i2c_write(st.hw->addr, st.reg->rate_div, 1, &data))
 800403a:	4b17      	ldr	r3, [pc, #92]	@ (8004098 <mpu_set_sample_rate+0xd8>)
 800403c:	685b      	ldr	r3, [r3, #4]
 800403e:	7818      	ldrb	r0, [r3, #0]
 8004040:	4b15      	ldr	r3, [pc, #84]	@ (8004098 <mpu_set_sample_rate+0xd8>)
 8004042:	681b      	ldr	r3, [r3, #0]
 8004044:	7859      	ldrb	r1, [r3, #1]
 8004046:	f107 030f 	add.w	r3, r7, #15
 800404a:	2201      	movs	r2, #1
 800404c:	f001 fd0c 	bl	8005a68 <mpu9255_write>
 8004050:	4603      	mov	r3, r0
 8004052:	2b00      	cmp	r3, #0
 8004054:	d002      	beq.n	800405c <mpu_set_sample_rate+0x9c>
            return -1;
 8004056:	f04f 33ff 	mov.w	r3, #4294967295
 800405a:	e019      	b.n	8004090 <mpu_set_sample_rate+0xd0>

        st.chip_cfg.sample_rate = 1000 / (1 + data);
 800405c:	7bfb      	ldrb	r3, [r7, #15]
 800405e:	3301      	adds	r3, #1
 8004060:	f44f 727a 	mov.w	r2, #1000	@ 0x3e8
 8004064:	fb92 f3f3 	sdiv	r3, r2, r3
 8004068:	b29a      	uxth	r2, r3
 800406a:	4b0b      	ldr	r3, [pc, #44]	@ (8004098 <mpu_set_sample_rate+0xd8>)
 800406c:	81da      	strh	r2, [r3, #14]

#ifdef AK89xx_SECONDARY
        mpu_set_compass_sample_rate(min(st.chip_cfg.compass_sample_rate, MAX_COMPASS_SAMPLE_RATE));
 800406e:	4b0a      	ldr	r3, [pc, #40]	@ (8004098 <mpu_set_sample_rate+0xd8>)
 8004070:	8d1b      	ldrh	r3, [r3, #40]	@ 0x28
 8004072:	2b64      	cmp	r3, #100	@ 0x64
 8004074:	bf28      	it	cs
 8004076:	2364      	movcs	r3, #100	@ 0x64
 8004078:	b29b      	uxth	r3, r3
 800407a:	4618      	mov	r0, r3
 800407c:	f000 f80e 	bl	800409c <mpu_set_compass_sample_rate>
#endif

        /* Automatically set LPF to 1/2 sampling rate. */
        mpu_set_lpf(st.chip_cfg.sample_rate >> 1);
 8004080:	4b05      	ldr	r3, [pc, #20]	@ (8004098 <mpu_set_sample_rate+0xd8>)
 8004082:	89db      	ldrh	r3, [r3, #14]
 8004084:	085b      	lsrs	r3, r3, #1
 8004086:	b29b      	uxth	r3, r3
 8004088:	4618      	mov	r0, r3
 800408a:	f7ff ff4b 	bl	8003f24 <mpu_set_lpf>
        return 0;
 800408e:	2300      	movs	r3, #0
    }
}
 8004090:	4618      	mov	r0, r3
 8004092:	3710      	adds	r7, #16
 8004094:	46bd      	mov	sp, r7
 8004096:	bd80      	pop	{r7, pc}
 8004098:	20000010 	.word	0x20000010

0800409c <mpu_set_compass_sample_rate>:
 *  mpu_get_compass_sample_rate to check the actual setting.
 *  @param[in]  rate    Desired compass sampling rate (Hz).
 *  @return     0 if successful.
 */
int mpu_set_compass_sample_rate(unsigned short rate)
{
 800409c:	b580      	push	{r7, lr}
 800409e:	b084      	sub	sp, #16
 80040a0:	af00      	add	r7, sp, #0
 80040a2:	4603      	mov	r3, r0
 80040a4:	80fb      	strh	r3, [r7, #6]
#ifdef AK89xx_SECONDARY
    unsigned char div;
    if (!rate || rate > st.chip_cfg.sample_rate || rate > MAX_COMPASS_SAMPLE_RATE)
 80040a6:	88fb      	ldrh	r3, [r7, #6]
 80040a8:	2b00      	cmp	r3, #0
 80040aa:	d007      	beq.n	80040bc <mpu_set_compass_sample_rate+0x20>
 80040ac:	4b1a      	ldr	r3, [pc, #104]	@ (8004118 <mpu_set_compass_sample_rate+0x7c>)
 80040ae:	89db      	ldrh	r3, [r3, #14]
 80040b0:	88fa      	ldrh	r2, [r7, #6]
 80040b2:	429a      	cmp	r2, r3
 80040b4:	d802      	bhi.n	80040bc <mpu_set_compass_sample_rate+0x20>
 80040b6:	88fb      	ldrh	r3, [r7, #6]
 80040b8:	2b64      	cmp	r3, #100	@ 0x64
 80040ba:	d902      	bls.n	80040c2 <mpu_set_compass_sample_rate+0x26>
        return -1;
 80040bc:	f04f 33ff 	mov.w	r3, #4294967295
 80040c0:	e026      	b.n	8004110 <mpu_set_compass_sample_rate+0x74>

    div = st.chip_cfg.sample_rate / rate - 1;
 80040c2:	4b15      	ldr	r3, [pc, #84]	@ (8004118 <mpu_set_compass_sample_rate+0x7c>)
 80040c4:	89da      	ldrh	r2, [r3, #14]
 80040c6:	88fb      	ldrh	r3, [r7, #6]
 80040c8:	fbb2 f3f3 	udiv	r3, r2, r3
 80040cc:	b29b      	uxth	r3, r3
 80040ce:	b2db      	uxtb	r3, r3
 80040d0:	3b01      	subs	r3, #1
 80040d2:	b2db      	uxtb	r3, r3
 80040d4:	73fb      	strb	r3, [r7, #15]
    if (i2c_write(st.hw->addr, st.reg->s4_ctrl, 1, &div))
 80040d6:	4b10      	ldr	r3, [pc, #64]	@ (8004118 <mpu_set_compass_sample_rate+0x7c>)
 80040d8:	685b      	ldr	r3, [r3, #4]
 80040da:	7818      	ldrb	r0, [r3, #0]
 80040dc:	4b0e      	ldr	r3, [pc, #56]	@ (8004118 <mpu_set_compass_sample_rate+0x7c>)
 80040de:	681b      	ldr	r3, [r3, #0]
 80040e0:	f893 1024 	ldrb.w	r1, [r3, #36]	@ 0x24
 80040e4:	f107 030f 	add.w	r3, r7, #15
 80040e8:	2201      	movs	r2, #1
 80040ea:	f001 fcbd 	bl	8005a68 <mpu9255_write>
 80040ee:	4603      	mov	r3, r0
 80040f0:	2b00      	cmp	r3, #0
 80040f2:	d002      	beq.n	80040fa <mpu_set_compass_sample_rate+0x5e>
        return -1;
 80040f4:	f04f 33ff 	mov.w	r3, #4294967295
 80040f8:	e00a      	b.n	8004110 <mpu_set_compass_sample_rate+0x74>
    st.chip_cfg.compass_sample_rate = st.chip_cfg.sample_rate / (div + 1);
 80040fa:	4b07      	ldr	r3, [pc, #28]	@ (8004118 <mpu_set_compass_sample_rate+0x7c>)
 80040fc:	89db      	ldrh	r3, [r3, #14]
 80040fe:	461a      	mov	r2, r3
 8004100:	7bfb      	ldrb	r3, [r7, #15]
 8004102:	3301      	adds	r3, #1
 8004104:	fb92 f3f3 	sdiv	r3, r2, r3
 8004108:	b29a      	uxth	r2, r3
 800410a:	4b03      	ldr	r3, [pc, #12]	@ (8004118 <mpu_set_compass_sample_rate+0x7c>)
 800410c:	851a      	strh	r2, [r3, #40]	@ 0x28
    return 0;
 800410e:	2300      	movs	r3, #0
#else
    return -1;
#endif
}
 8004110:	4618      	mov	r0, r3
 8004112:	3710      	adds	r7, #16
 8004114:	46bd      	mov	sp, r7
 8004116:	bd80      	pop	{r7, pc}
 8004118:	20000010 	.word	0x20000010

0800411c <mpu_configure_fifo>:
 *  \n INV_XYZ_ACCEL
 *  @param[in]  sensors Mask of sensors to push to FIFO.
 *  @return     0 if successful.
 */
int mpu_configure_fifo(unsigned char sensors)
{
 800411c:	b580      	push	{r7, lr}
 800411e:	b084      	sub	sp, #16
 8004120:	af00      	add	r7, sp, #0
 8004122:	4603      	mov	r3, r0
 8004124:	71fb      	strb	r3, [r7, #7]
    unsigned char prev;
    int result = 0;
 8004126:	2300      	movs	r3, #0
 8004128:	60fb      	str	r3, [r7, #12]

    /* Compass data isn't going into the FIFO. Stop trying. */
    sensors &= ~INV_XYZ_COMPASS;
 800412a:	79fb      	ldrb	r3, [r7, #7]
 800412c:	f023 0301 	bic.w	r3, r3, #1
 8004130:	71fb      	strb	r3, [r7, #7]

    if (st.chip_cfg.dmp_on)
 8004132:	4b22      	ldr	r3, [pc, #136]	@ (80041bc <mpu_configure_fifo+0xa0>)
 8004134:	f893 3024 	ldrb.w	r3, [r3, #36]	@ 0x24
 8004138:	2b00      	cmp	r3, #0
 800413a:	d001      	beq.n	8004140 <mpu_configure_fifo+0x24>
        return 0;
 800413c:	2300      	movs	r3, #0
 800413e:	e038      	b.n	80041b2 <mpu_configure_fifo+0x96>
    else {
        if (!(st.chip_cfg.sensors))
 8004140:	4b1e      	ldr	r3, [pc, #120]	@ (80041bc <mpu_configure_fifo+0xa0>)
 8004142:	7a9b      	ldrb	r3, [r3, #10]
 8004144:	2b00      	cmp	r3, #0
 8004146:	d102      	bne.n	800414e <mpu_configure_fifo+0x32>
            return -1;
 8004148:	f04f 33ff 	mov.w	r3, #4294967295
 800414c:	e031      	b.n	80041b2 <mpu_configure_fifo+0x96>
        prev = st.chip_cfg.fifo_enable;
 800414e:	4b1b      	ldr	r3, [pc, #108]	@ (80041bc <mpu_configure_fifo+0xa0>)
 8004150:	7c1b      	ldrb	r3, [r3, #16]
 8004152:	72fb      	strb	r3, [r7, #11]
        st.chip_cfg.fifo_enable = sensors & st.chip_cfg.sensors;
 8004154:	4b19      	ldr	r3, [pc, #100]	@ (80041bc <mpu_configure_fifo+0xa0>)
 8004156:	7a9a      	ldrb	r2, [r3, #10]
 8004158:	79fb      	ldrb	r3, [r7, #7]
 800415a:	4013      	ands	r3, r2
 800415c:	b2da      	uxtb	r2, r3
 800415e:	4b17      	ldr	r3, [pc, #92]	@ (80041bc <mpu_configure_fifo+0xa0>)
 8004160:	741a      	strb	r2, [r3, #16]
        if (st.chip_cfg.fifo_enable != sensors)
 8004162:	4b16      	ldr	r3, [pc, #88]	@ (80041bc <mpu_configure_fifo+0xa0>)
 8004164:	7c1b      	ldrb	r3, [r3, #16]
 8004166:	79fa      	ldrb	r2, [r7, #7]
 8004168:	429a      	cmp	r2, r3
 800416a:	d003      	beq.n	8004174 <mpu_configure_fifo+0x58>
            /* You're not getting what you asked for. Some sensors are
             * asleep.
             */
            result = -1;
 800416c:	f04f 33ff 	mov.w	r3, #4294967295
 8004170:	60fb      	str	r3, [r7, #12]
 8004172:	e001      	b.n	8004178 <mpu_configure_fifo+0x5c>
        else
            result = 0;
 8004174:	2300      	movs	r3, #0
 8004176:	60fb      	str	r3, [r7, #12]
        if (sensors || st.chip_cfg.lp_accel_mode)
 8004178:	79fb      	ldrb	r3, [r7, #7]
 800417a:	2b00      	cmp	r3, #0
 800417c:	d103      	bne.n	8004186 <mpu_configure_fifo+0x6a>
 800417e:	4b0f      	ldr	r3, [pc, #60]	@ (80041bc <mpu_configure_fifo+0xa0>)
 8004180:	7d1b      	ldrb	r3, [r3, #20]
 8004182:	2b00      	cmp	r3, #0
 8004184:	d003      	beq.n	800418e <mpu_configure_fifo+0x72>
            set_int_enable(1);
 8004186:	2001      	movs	r0, #1
 8004188:	f7ff fb16 	bl	80037b8 <set_int_enable>
 800418c:	e002      	b.n	8004194 <mpu_configure_fifo+0x78>
        else
            set_int_enable(0);
 800418e:	2000      	movs	r0, #0
 8004190:	f7ff fb12 	bl	80037b8 <set_int_enable>
        if (sensors) {
 8004194:	79fb      	ldrb	r3, [r7, #7]
 8004196:	2b00      	cmp	r3, #0
 8004198:	d00a      	beq.n	80041b0 <mpu_configure_fifo+0x94>
            if (mpu_reset_fifo()) {
 800419a:	f7ff fcc9 	bl	8003b30 <mpu_reset_fifo>
 800419e:	4603      	mov	r3, r0
 80041a0:	2b00      	cmp	r3, #0
 80041a2:	d005      	beq.n	80041b0 <mpu_configure_fifo+0x94>
                st.chip_cfg.fifo_enable = prev;
 80041a4:	4a05      	ldr	r2, [pc, #20]	@ (80041bc <mpu_configure_fifo+0xa0>)
 80041a6:	7afb      	ldrb	r3, [r7, #11]
 80041a8:	7413      	strb	r3, [r2, #16]
                return -1;
 80041aa:	f04f 33ff 	mov.w	r3, #4294967295
 80041ae:	e000      	b.n	80041b2 <mpu_configure_fifo+0x96>
            }
        }
    }

    return result;
 80041b0:	68fb      	ldr	r3, [r7, #12]
}
 80041b2:	4618      	mov	r0, r3
 80041b4:	3710      	adds	r7, #16
 80041b6:	46bd      	mov	sp, r7
 80041b8:	bd80      	pop	{r7, pc}
 80041ba:	bf00      	nop
 80041bc:	20000010 	.word	0x20000010

080041c0 <mpu_set_sensors>:
 *  \n INV_XYZ_COMPASS
 *  @param[in]  sensors    Mask of sensors to wake.
 *  @return     0 if successful.
 */
int mpu_set_sensors(unsigned char sensors)
{
 80041c0:	b580      	push	{r7, lr}
 80041c2:	b084      	sub	sp, #16
 80041c4:	af00      	add	r7, sp, #0
 80041c6:	4603      	mov	r3, r0
 80041c8:	71fb      	strb	r3, [r7, #7]
    unsigned char data;
#ifdef AK89xx_SECONDARY
    unsigned char user_ctrl;
#endif

    if (sensors & INV_XYZ_GYRO)
 80041ca:	79fb      	ldrb	r3, [r7, #7]
 80041cc:	f003 0370 	and.w	r3, r3, #112	@ 0x70
 80041d0:	2b00      	cmp	r3, #0
 80041d2:	d002      	beq.n	80041da <mpu_set_sensors+0x1a>
        data = INV_CLK_PLL;
 80041d4:	2301      	movs	r3, #1
 80041d6:	73fb      	strb	r3, [r7, #15]
 80041d8:	e007      	b.n	80041ea <mpu_set_sensors+0x2a>
    else if (sensors)
 80041da:	79fb      	ldrb	r3, [r7, #7]
 80041dc:	2b00      	cmp	r3, #0
 80041de:	d002      	beq.n	80041e6 <mpu_set_sensors+0x26>
        data = 0;
 80041e0:	2300      	movs	r3, #0
 80041e2:	73fb      	strb	r3, [r7, #15]
 80041e4:	e001      	b.n	80041ea <mpu_set_sensors+0x2a>
    else
        data = BIT_SLEEP;
 80041e6:	2340      	movs	r3, #64	@ 0x40
 80041e8:	73fb      	strb	r3, [r7, #15]
    if (i2c_write(st.hw->addr, st.reg->pwr_mgmt_1, 1, &data)) {
 80041ea:	4b63      	ldr	r3, [pc, #396]	@ (8004378 <mpu_set_sensors+0x1b8>)
 80041ec:	685b      	ldr	r3, [r3, #4]
 80041ee:	7818      	ldrb	r0, [r3, #0]
 80041f0:	4b61      	ldr	r3, [pc, #388]	@ (8004378 <mpu_set_sensors+0x1b8>)
 80041f2:	681b      	ldr	r3, [r3, #0]
 80041f4:	7d59      	ldrb	r1, [r3, #21]
 80041f6:	f107 030f 	add.w	r3, r7, #15
 80041fa:	2201      	movs	r2, #1
 80041fc:	f001 fc34 	bl	8005a68 <mpu9255_write>
 8004200:	4603      	mov	r3, r0
 8004202:	2b00      	cmp	r3, #0
 8004204:	d005      	beq.n	8004212 <mpu_set_sensors+0x52>
        st.chip_cfg.sensors = 0;
 8004206:	4b5c      	ldr	r3, [pc, #368]	@ (8004378 <mpu_set_sensors+0x1b8>)
 8004208:	2200      	movs	r2, #0
 800420a:	729a      	strb	r2, [r3, #10]
        return -1;
 800420c:	f04f 33ff 	mov.w	r3, #4294967295
 8004210:	e0ae      	b.n	8004370 <mpu_set_sensors+0x1b0>
    }
    st.chip_cfg.clk_src = data & ~BIT_SLEEP;
 8004212:	7bfb      	ldrb	r3, [r7, #15]
 8004214:	f023 0340 	bic.w	r3, r3, #64	@ 0x40
 8004218:	b2da      	uxtb	r2, r3
 800421a:	4b57      	ldr	r3, [pc, #348]	@ (8004378 <mpu_set_sensors+0x1b8>)
 800421c:	731a      	strb	r2, [r3, #12]

    data = 0;
 800421e:	2300      	movs	r3, #0
 8004220:	73fb      	strb	r3, [r7, #15]
    if (!(sensors & INV_X_GYRO))
 8004222:	79fb      	ldrb	r3, [r7, #7]
 8004224:	f003 0340 	and.w	r3, r3, #64	@ 0x40
 8004228:	2b00      	cmp	r3, #0
 800422a:	d104      	bne.n	8004236 <mpu_set_sensors+0x76>
        data |= BIT_STBY_XG;
 800422c:	7bfb      	ldrb	r3, [r7, #15]
 800422e:	f043 0304 	orr.w	r3, r3, #4
 8004232:	b2db      	uxtb	r3, r3
 8004234:	73fb      	strb	r3, [r7, #15]
    if (!(sensors & INV_Y_GYRO))
 8004236:	79fb      	ldrb	r3, [r7, #7]
 8004238:	f003 0320 	and.w	r3, r3, #32
 800423c:	2b00      	cmp	r3, #0
 800423e:	d104      	bne.n	800424a <mpu_set_sensors+0x8a>
        data |= BIT_STBY_YG;
 8004240:	7bfb      	ldrb	r3, [r7, #15]
 8004242:	f043 0302 	orr.w	r3, r3, #2
 8004246:	b2db      	uxtb	r3, r3
 8004248:	73fb      	strb	r3, [r7, #15]
    if (!(sensors & INV_Z_GYRO))
 800424a:	79fb      	ldrb	r3, [r7, #7]
 800424c:	f003 0310 	and.w	r3, r3, #16
 8004250:	2b00      	cmp	r3, #0
 8004252:	d104      	bne.n	800425e <mpu_set_sensors+0x9e>
        data |= BIT_STBY_ZG;
 8004254:	7bfb      	ldrb	r3, [r7, #15]
 8004256:	f043 0301 	orr.w	r3, r3, #1
 800425a:	b2db      	uxtb	r3, r3
 800425c:	73fb      	strb	r3, [r7, #15]
    if (!(sensors & INV_XYZ_ACCEL))
 800425e:	79fb      	ldrb	r3, [r7, #7]
 8004260:	f003 0308 	and.w	r3, r3, #8
 8004264:	2b00      	cmp	r3, #0
 8004266:	d104      	bne.n	8004272 <mpu_set_sensors+0xb2>
        data |= BIT_STBY_XYZA;
 8004268:	7bfb      	ldrb	r3, [r7, #15]
 800426a:	f043 0338 	orr.w	r3, r3, #56	@ 0x38
 800426e:	b2db      	uxtb	r3, r3
 8004270:	73fb      	strb	r3, [r7, #15]
    if (i2c_write(st.hw->addr, st.reg->pwr_mgmt_2, 1, &data)) {
 8004272:	4b41      	ldr	r3, [pc, #260]	@ (8004378 <mpu_set_sensors+0x1b8>)
 8004274:	685b      	ldr	r3, [r3, #4]
 8004276:	7818      	ldrb	r0, [r3, #0]
 8004278:	4b3f      	ldr	r3, [pc, #252]	@ (8004378 <mpu_set_sensors+0x1b8>)
 800427a:	681b      	ldr	r3, [r3, #0]
 800427c:	7d99      	ldrb	r1, [r3, #22]
 800427e:	f107 030f 	add.w	r3, r7, #15
 8004282:	2201      	movs	r2, #1
 8004284:	f001 fbf0 	bl	8005a68 <mpu9255_write>
 8004288:	4603      	mov	r3, r0
 800428a:	2b00      	cmp	r3, #0
 800428c:	d005      	beq.n	800429a <mpu_set_sensors+0xda>
        st.chip_cfg.sensors = 0;
 800428e:	4b3a      	ldr	r3, [pc, #232]	@ (8004378 <mpu_set_sensors+0x1b8>)
 8004290:	2200      	movs	r2, #0
 8004292:	729a      	strb	r2, [r3, #10]
        return -1;
 8004294:	f04f 33ff 	mov.w	r3, #4294967295
 8004298:	e06a      	b.n	8004370 <mpu_set_sensors+0x1b0>
    }

    if (sensors && (sensors != INV_XYZ_ACCEL))
 800429a:	79fb      	ldrb	r3, [r7, #7]
 800429c:	2b00      	cmp	r3, #0
 800429e:	d005      	beq.n	80042ac <mpu_set_sensors+0xec>
 80042a0:	79fb      	ldrb	r3, [r7, #7]
 80042a2:	2b08      	cmp	r3, #8
 80042a4:	d002      	beq.n	80042ac <mpu_set_sensors+0xec>
        /* Latched interrupts only used in LP accel mode. */
        mpu_set_int_latched(0);
 80042a6:	2000      	movs	r0, #0
 80042a8:	f000 f9ac 	bl	8004604 <mpu_set_int_latched>
    if (sensors & INV_XYZ_COMPASS)
        mpu_set_bypass(1);
    else
        mpu_set_bypass(0);
#else
    if (i2c_read(st.hw->addr, st.reg->user_ctrl, 1, &user_ctrl))
 80042ac:	4b32      	ldr	r3, [pc, #200]	@ (8004378 <mpu_set_sensors+0x1b8>)
 80042ae:	685b      	ldr	r3, [r3, #4]
 80042b0:	7818      	ldrb	r0, [r3, #0]
 80042b2:	4b31      	ldr	r3, [pc, #196]	@ (8004378 <mpu_set_sensors+0x1b8>)
 80042b4:	681b      	ldr	r3, [r3, #0]
 80042b6:	7919      	ldrb	r1, [r3, #4]
 80042b8:	f107 030e 	add.w	r3, r7, #14
 80042bc:	2201      	movs	r2, #1
 80042be:	f001 fc1f 	bl	8005b00 <mpu9255_read>
 80042c2:	4603      	mov	r3, r0
 80042c4:	2b00      	cmp	r3, #0
 80042c6:	d002      	beq.n	80042ce <mpu_set_sensors+0x10e>
        return -1;
 80042c8:	f04f 33ff 	mov.w	r3, #4294967295
 80042cc:	e050      	b.n	8004370 <mpu_set_sensors+0x1b0>
    /* Handle AKM power management. */
    if (sensors & INV_XYZ_COMPASS) {
 80042ce:	79fb      	ldrb	r3, [r7, #7]
 80042d0:	f003 0301 	and.w	r3, r3, #1
 80042d4:	2b00      	cmp	r3, #0
 80042d6:	d007      	beq.n	80042e8 <mpu_set_sensors+0x128>
        data = AKM_SINGLE_MEASUREMENT;
 80042d8:	2311      	movs	r3, #17
 80042da:	73fb      	strb	r3, [r7, #15]
        user_ctrl |= BIT_AUX_IF_EN;
 80042dc:	7bbb      	ldrb	r3, [r7, #14]
 80042de:	f043 0320 	orr.w	r3, r3, #32
 80042e2:	b2db      	uxtb	r3, r3
 80042e4:	73bb      	strb	r3, [r7, #14]
 80042e6:	e006      	b.n	80042f6 <mpu_set_sensors+0x136>
    } else {
        data = AKM_POWER_DOWN;
 80042e8:	2310      	movs	r3, #16
 80042ea:	73fb      	strb	r3, [r7, #15]
        user_ctrl &= ~BIT_AUX_IF_EN;
 80042ec:	7bbb      	ldrb	r3, [r7, #14]
 80042ee:	f023 0320 	bic.w	r3, r3, #32
 80042f2:	b2db      	uxtb	r3, r3
 80042f4:	73bb      	strb	r3, [r7, #14]
    }
    if (st.chip_cfg.dmp_on)
 80042f6:	4b20      	ldr	r3, [pc, #128]	@ (8004378 <mpu_set_sensors+0x1b8>)
 80042f8:	f893 3024 	ldrb.w	r3, [r3, #36]	@ 0x24
 80042fc:	2b00      	cmp	r3, #0
 80042fe:	d005      	beq.n	800430c <mpu_set_sensors+0x14c>
        user_ctrl |= BIT_DMP_EN;
 8004300:	7bbb      	ldrb	r3, [r7, #14]
 8004302:	f063 037f 	orn	r3, r3, #127	@ 0x7f
 8004306:	b2db      	uxtb	r3, r3
 8004308:	73bb      	strb	r3, [r7, #14]
 800430a:	e004      	b.n	8004316 <mpu_set_sensors+0x156>
    else
        user_ctrl &= ~BIT_DMP_EN;
 800430c:	7bbb      	ldrb	r3, [r7, #14]
 800430e:	f003 037f 	and.w	r3, r3, #127	@ 0x7f
 8004312:	b2db      	uxtb	r3, r3
 8004314:	73bb      	strb	r3, [r7, #14]
    if (i2c_write(st.hw->addr, st.reg->s1_do, 1, &data))
 8004316:	4b18      	ldr	r3, [pc, #96]	@ (8004378 <mpu_set_sensors+0x1b8>)
 8004318:	685b      	ldr	r3, [r3, #4]
 800431a:	7818      	ldrb	r0, [r3, #0]
 800431c:	4b16      	ldr	r3, [pc, #88]	@ (8004378 <mpu_set_sensors+0x1b8>)
 800431e:	681b      	ldr	r3, [r3, #0]
 8004320:	f893 1026 	ldrb.w	r1, [r3, #38]	@ 0x26
 8004324:	f107 030f 	add.w	r3, r7, #15
 8004328:	2201      	movs	r2, #1
 800432a:	f001 fb9d 	bl	8005a68 <mpu9255_write>
 800432e:	4603      	mov	r3, r0
 8004330:	2b00      	cmp	r3, #0
 8004332:	d002      	beq.n	800433a <mpu_set_sensors+0x17a>
        return -1;
 8004334:	f04f 33ff 	mov.w	r3, #4294967295
 8004338:	e01a      	b.n	8004370 <mpu_set_sensors+0x1b0>
    /* Enable/disable I2C master mode. */
    if (i2c_write(st.hw->addr, st.reg->user_ctrl, 1, &user_ctrl))
 800433a:	4b0f      	ldr	r3, [pc, #60]	@ (8004378 <mpu_set_sensors+0x1b8>)
 800433c:	685b      	ldr	r3, [r3, #4]
 800433e:	7818      	ldrb	r0, [r3, #0]
 8004340:	4b0d      	ldr	r3, [pc, #52]	@ (8004378 <mpu_set_sensors+0x1b8>)
 8004342:	681b      	ldr	r3, [r3, #0]
 8004344:	7919      	ldrb	r1, [r3, #4]
 8004346:	f107 030e 	add.w	r3, r7, #14
 800434a:	2201      	movs	r2, #1
 800434c:	f001 fb8c 	bl	8005a68 <mpu9255_write>
 8004350:	4603      	mov	r3, r0
 8004352:	2b00      	cmp	r3, #0
 8004354:	d002      	beq.n	800435c <mpu_set_sensors+0x19c>
        return -1;
 8004356:	f04f 33ff 	mov.w	r3, #4294967295
 800435a:	e009      	b.n	8004370 <mpu_set_sensors+0x1b0>
#endif
#endif

    st.chip_cfg.sensors = sensors;
 800435c:	4a06      	ldr	r2, [pc, #24]	@ (8004378 <mpu_set_sensors+0x1b8>)
 800435e:	79fb      	ldrb	r3, [r7, #7]
 8004360:	7293      	strb	r3, [r2, #10]
    st.chip_cfg.lp_accel_mode = 0;
 8004362:	4b05      	ldr	r3, [pc, #20]	@ (8004378 <mpu_set_sensors+0x1b8>)
 8004364:	2200      	movs	r2, #0
 8004366:	751a      	strb	r2, [r3, #20]
    delay_ms(50);
 8004368:	2032      	movs	r0, #50	@ 0x32
 800436a:	f001 fc13 	bl	8005b94 <mpu9255_delay_ms>
    return 0;
 800436e:	2300      	movs	r3, #0
}
 8004370:	4618      	mov	r0, r3
 8004372:	3710      	adds	r7, #16
 8004374:	46bd      	mov	sp, r7
 8004376:	bd80      	pop	{r7, pc}
 8004378:	20000010 	.word	0x20000010

0800437c <mpu_read_fifo_stream>:
 *  @param[in]  data    FIFO packet.
 *  @param[in]  more    Number of remaining packets.
 */
int mpu_read_fifo_stream(unsigned short length, unsigned char *data,
    unsigned char *more)
{
 800437c:	b580      	push	{r7, lr}
 800437e:	b086      	sub	sp, #24
 8004380:	af00      	add	r7, sp, #0
 8004382:	4603      	mov	r3, r0
 8004384:	60b9      	str	r1, [r7, #8]
 8004386:	607a      	str	r2, [r7, #4]
 8004388:	81fb      	strh	r3, [r7, #14]
    unsigned char tmp[2];
    unsigned short fifo_count;
    if (!st.chip_cfg.dmp_on)
 800438a:	4b3a      	ldr	r3, [pc, #232]	@ (8004474 <mpu_read_fifo_stream+0xf8>)
 800438c:	f893 3024 	ldrb.w	r3, [r3, #36]	@ 0x24
 8004390:	2b00      	cmp	r3, #0
 8004392:	d102      	bne.n	800439a <mpu_read_fifo_stream+0x1e>
        return -1;
 8004394:	f04f 33ff 	mov.w	r3, #4294967295
 8004398:	e068      	b.n	800446c <mpu_read_fifo_stream+0xf0>
    if (!st.chip_cfg.sensors)
 800439a:	4b36      	ldr	r3, [pc, #216]	@ (8004474 <mpu_read_fifo_stream+0xf8>)
 800439c:	7a9b      	ldrb	r3, [r3, #10]
 800439e:	2b00      	cmp	r3, #0
 80043a0:	d102      	bne.n	80043a8 <mpu_read_fifo_stream+0x2c>
        return -1;
 80043a2:	f04f 33ff 	mov.w	r3, #4294967295
 80043a6:	e061      	b.n	800446c <mpu_read_fifo_stream+0xf0>

    if (i2c_read(st.hw->addr, st.reg->fifo_count_h, 2, tmp))
 80043a8:	4b32      	ldr	r3, [pc, #200]	@ (8004474 <mpu_read_fifo_stream+0xf8>)
 80043aa:	685b      	ldr	r3, [r3, #4]
 80043ac:	7818      	ldrb	r0, [r3, #0]
 80043ae:	4b31      	ldr	r3, [pc, #196]	@ (8004474 <mpu_read_fifo_stream+0xf8>)
 80043b0:	681b      	ldr	r3, [r3, #0]
 80043b2:	7b19      	ldrb	r1, [r3, #12]
 80043b4:	f107 0314 	add.w	r3, r7, #20
 80043b8:	2202      	movs	r2, #2
 80043ba:	f001 fba1 	bl	8005b00 <mpu9255_read>
 80043be:	4603      	mov	r3, r0
 80043c0:	2b00      	cmp	r3, #0
 80043c2:	d002      	beq.n	80043ca <mpu_read_fifo_stream+0x4e>
        return -1;
 80043c4:	f04f 33ff 	mov.w	r3, #4294967295
 80043c8:	e050      	b.n	800446c <mpu_read_fifo_stream+0xf0>
    fifo_count = (tmp[0] << 8) | tmp[1];
 80043ca:	7d3b      	ldrb	r3, [r7, #20]
 80043cc:	021b      	lsls	r3, r3, #8
 80043ce:	b21a      	sxth	r2, r3
 80043d0:	7d7b      	ldrb	r3, [r7, #21]
 80043d2:	b21b      	sxth	r3, r3
 80043d4:	4313      	orrs	r3, r2
 80043d6:	b21b      	sxth	r3, r3
 80043d8:	82fb      	strh	r3, [r7, #22]
    if (fifo_count < length) {
 80043da:	8afa      	ldrh	r2, [r7, #22]
 80043dc:	89fb      	ldrh	r3, [r7, #14]
 80043de:	429a      	cmp	r2, r3
 80043e0:	d205      	bcs.n	80043ee <mpu_read_fifo_stream+0x72>
        more[0] = 0;
 80043e2:	687b      	ldr	r3, [r7, #4]
 80043e4:	2200      	movs	r2, #0
 80043e6:	701a      	strb	r2, [r3, #0]
        return -1;
 80043e8:	f04f 33ff 	mov.w	r3, #4294967295
 80043ec:	e03e      	b.n	800446c <mpu_read_fifo_stream+0xf0>
    }
    if (fifo_count > (st.hw->max_fifo >> 1)) {
 80043ee:	4b21      	ldr	r3, [pc, #132]	@ (8004474 <mpu_read_fifo_stream+0xf8>)
 80043f0:	685b      	ldr	r3, [r3, #4]
 80043f2:	885b      	ldrh	r3, [r3, #2]
 80043f4:	085b      	lsrs	r3, r3, #1
 80043f6:	b29b      	uxth	r3, r3
 80043f8:	8afa      	ldrh	r2, [r7, #22]
 80043fa:	429a      	cmp	r2, r3
 80043fc:	d91a      	bls.n	8004434 <mpu_read_fifo_stream+0xb8>
        /* FIFO is 50% full, better check overflow bit. */
        if (i2c_read(st.hw->addr, st.reg->int_status, 1, tmp))
 80043fe:	4b1d      	ldr	r3, [pc, #116]	@ (8004474 <mpu_read_fifo_stream+0xf8>)
 8004400:	685b      	ldr	r3, [r3, #4]
 8004402:	7818      	ldrb	r0, [r3, #0]
 8004404:	4b1b      	ldr	r3, [pc, #108]	@ (8004474 <mpu_read_fifo_stream+0xf8>)
 8004406:	681b      	ldr	r3, [r3, #0]
 8004408:	7cd9      	ldrb	r1, [r3, #19]
 800440a:	f107 0314 	add.w	r3, r7, #20
 800440e:	2201      	movs	r2, #1
 8004410:	f001 fb76 	bl	8005b00 <mpu9255_read>
 8004414:	4603      	mov	r3, r0
 8004416:	2b00      	cmp	r3, #0
 8004418:	d002      	beq.n	8004420 <mpu_read_fifo_stream+0xa4>
            return -1;
 800441a:	f04f 33ff 	mov.w	r3, #4294967295
 800441e:	e025      	b.n	800446c <mpu_read_fifo_stream+0xf0>
        if (tmp[0] & BIT_FIFO_OVERFLOW) {
 8004420:	7d3b      	ldrb	r3, [r7, #20]
 8004422:	f003 0310 	and.w	r3, r3, #16
 8004426:	2b00      	cmp	r3, #0
 8004428:	d004      	beq.n	8004434 <mpu_read_fifo_stream+0xb8>
            mpu_reset_fifo();
 800442a:	f7ff fb81 	bl	8003b30 <mpu_reset_fifo>
            return -2;
 800442e:	f06f 0301 	mvn.w	r3, #1
 8004432:	e01b      	b.n	800446c <mpu_read_fifo_stream+0xf0>
        }
    }

    if (i2c_read(st.hw->addr, st.reg->fifo_r_w, length, data))
 8004434:	4b0f      	ldr	r3, [pc, #60]	@ (8004474 <mpu_read_fifo_stream+0xf8>)
 8004436:	685b      	ldr	r3, [r3, #4]
 8004438:	7818      	ldrb	r0, [r3, #0]
 800443a:	4b0e      	ldr	r3, [pc, #56]	@ (8004474 <mpu_read_fifo_stream+0xf8>)
 800443c:	681b      	ldr	r3, [r3, #0]
 800443e:	7b59      	ldrb	r1, [r3, #13]
 8004440:	89fb      	ldrh	r3, [r7, #14]
 8004442:	b2da      	uxtb	r2, r3
 8004444:	68bb      	ldr	r3, [r7, #8]
 8004446:	f001 fb5b 	bl	8005b00 <mpu9255_read>
 800444a:	4603      	mov	r3, r0
 800444c:	2b00      	cmp	r3, #0
 800444e:	d002      	beq.n	8004456 <mpu_read_fifo_stream+0xda>
        return -1;
 8004450:	f04f 33ff 	mov.w	r3, #4294967295
 8004454:	e00a      	b.n	800446c <mpu_read_fifo_stream+0xf0>
    more[0] = fifo_count / length - 1;
 8004456:	8afa      	ldrh	r2, [r7, #22]
 8004458:	89fb      	ldrh	r3, [r7, #14]
 800445a:	fbb2 f3f3 	udiv	r3, r2, r3
 800445e:	b29b      	uxth	r3, r3
 8004460:	b2db      	uxtb	r3, r3
 8004462:	3b01      	subs	r3, #1
 8004464:	b2da      	uxtb	r2, r3
 8004466:	687b      	ldr	r3, [r7, #4]
 8004468:	701a      	strb	r2, [r3, #0]
    return 0;
 800446a:	2300      	movs	r3, #0
}
 800446c:	4618      	mov	r0, r3
 800446e:	3718      	adds	r7, #24
 8004470:	46bd      	mov	sp, r7
 8004472:	bd80      	pop	{r7, pc}
 8004474:	20000010 	.word	0x20000010

08004478 <mpu_set_bypass>:
 *  @brief      Set device to bypass mode.
 *  @param[in]  bypass_on   1 to enable bypass mode.
 *  @return     0 if successful.
 */
int mpu_set_bypass(unsigned char bypass_on)
{
 8004478:	b580      	push	{r7, lr}
 800447a:	b084      	sub	sp, #16
 800447c:	af00      	add	r7, sp, #0
 800447e:	4603      	mov	r3, r0
 8004480:	71fb      	strb	r3, [r7, #7]
    unsigned char tmp;

    if (st.chip_cfg.bypass_mode == bypass_on)
 8004482:	4b5f      	ldr	r3, [pc, #380]	@ (8004600 <mpu_set_bypass+0x188>)
 8004484:	7c9b      	ldrb	r3, [r3, #18]
 8004486:	79fa      	ldrb	r2, [r7, #7]
 8004488:	429a      	cmp	r2, r3
 800448a:	d101      	bne.n	8004490 <mpu_set_bypass+0x18>
        return 0;
 800448c:	2300      	movs	r3, #0
 800448e:	e0b2      	b.n	80045f6 <mpu_set_bypass+0x17e>

    if (bypass_on) {
 8004490:	79fb      	ldrb	r3, [r7, #7]
 8004492:	2b00      	cmp	r3, #0
 8004494:	d050      	beq.n	8004538 <mpu_set_bypass+0xc0>
        if (i2c_read(st.hw->addr, st.reg->user_ctrl, 1, &tmp))
 8004496:	4b5a      	ldr	r3, [pc, #360]	@ (8004600 <mpu_set_bypass+0x188>)
 8004498:	685b      	ldr	r3, [r3, #4]
 800449a:	7818      	ldrb	r0, [r3, #0]
 800449c:	4b58      	ldr	r3, [pc, #352]	@ (8004600 <mpu_set_bypass+0x188>)
 800449e:	681b      	ldr	r3, [r3, #0]
 80044a0:	7919      	ldrb	r1, [r3, #4]
 80044a2:	f107 030f 	add.w	r3, r7, #15
 80044a6:	2201      	movs	r2, #1
 80044a8:	f001 fb2a 	bl	8005b00 <mpu9255_read>
 80044ac:	4603      	mov	r3, r0
 80044ae:	2b00      	cmp	r3, #0
 80044b0:	d002      	beq.n	80044b8 <mpu_set_bypass+0x40>
            return -1;
 80044b2:	f04f 33ff 	mov.w	r3, #4294967295
 80044b6:	e09e      	b.n	80045f6 <mpu_set_bypass+0x17e>
        tmp &= ~BIT_AUX_IF_EN;
 80044b8:	7bfb      	ldrb	r3, [r7, #15]
 80044ba:	f023 0320 	bic.w	r3, r3, #32
 80044be:	b2db      	uxtb	r3, r3
 80044c0:	73fb      	strb	r3, [r7, #15]
        if (i2c_write(st.hw->addr, st.reg->user_ctrl, 1, &tmp))
 80044c2:	4b4f      	ldr	r3, [pc, #316]	@ (8004600 <mpu_set_bypass+0x188>)
 80044c4:	685b      	ldr	r3, [r3, #4]
 80044c6:	7818      	ldrb	r0, [r3, #0]
 80044c8:	4b4d      	ldr	r3, [pc, #308]	@ (8004600 <mpu_set_bypass+0x188>)
 80044ca:	681b      	ldr	r3, [r3, #0]
 80044cc:	7919      	ldrb	r1, [r3, #4]
 80044ce:	f107 030f 	add.w	r3, r7, #15
 80044d2:	2201      	movs	r2, #1
 80044d4:	f001 fac8 	bl	8005a68 <mpu9255_write>
 80044d8:	4603      	mov	r3, r0
 80044da:	2b00      	cmp	r3, #0
 80044dc:	d002      	beq.n	80044e4 <mpu_set_bypass+0x6c>
            return -1;
 80044de:	f04f 33ff 	mov.w	r3, #4294967295
 80044e2:	e088      	b.n	80045f6 <mpu_set_bypass+0x17e>
        delay_ms(3);
 80044e4:	2003      	movs	r0, #3
 80044e6:	f001 fb55 	bl	8005b94 <mpu9255_delay_ms>
        tmp = BIT_BYPASS_EN;
 80044ea:	2302      	movs	r3, #2
 80044ec:	73fb      	strb	r3, [r7, #15]
        if (st.chip_cfg.active_low_int)
 80044ee:	4b44      	ldr	r3, [pc, #272]	@ (8004600 <mpu_set_bypass+0x188>)
 80044f0:	f893 3022 	ldrb.w	r3, [r3, #34]	@ 0x22
 80044f4:	2b00      	cmp	r3, #0
 80044f6:	d004      	beq.n	8004502 <mpu_set_bypass+0x8a>
            tmp |= BIT_ACTL;
 80044f8:	7bfb      	ldrb	r3, [r7, #15]
 80044fa:	f063 037f 	orn	r3, r3, #127	@ 0x7f
 80044fe:	b2db      	uxtb	r3, r3
 8004500:	73fb      	strb	r3, [r7, #15]
        if (st.chip_cfg.latched_int)
 8004502:	4b3f      	ldr	r3, [pc, #252]	@ (8004600 <mpu_set_bypass+0x188>)
 8004504:	f893 3023 	ldrb.w	r3, [r3, #35]	@ 0x23
 8004508:	2b00      	cmp	r3, #0
 800450a:	d004      	beq.n	8004516 <mpu_set_bypass+0x9e>
            tmp |= BIT_LATCH_EN | BIT_ANY_RD_CLR;
 800450c:	7bfb      	ldrb	r3, [r7, #15]
 800450e:	f043 0330 	orr.w	r3, r3, #48	@ 0x30
 8004512:	b2db      	uxtb	r3, r3
 8004514:	73fb      	strb	r3, [r7, #15]
        if (i2c_write(st.hw->addr, st.reg->int_pin_cfg, 1, &tmp))
 8004516:	4b3a      	ldr	r3, [pc, #232]	@ (8004600 <mpu_set_bypass+0x188>)
 8004518:	685b      	ldr	r3, [r3, #4]
 800451a:	7818      	ldrb	r0, [r3, #0]
 800451c:	4b38      	ldr	r3, [pc, #224]	@ (8004600 <mpu_set_bypass+0x188>)
 800451e:	681b      	ldr	r3, [r3, #0]
 8004520:	7dd9      	ldrb	r1, [r3, #23]
 8004522:	f107 030f 	add.w	r3, r7, #15
 8004526:	2201      	movs	r2, #1
 8004528:	f001 fa9e 	bl	8005a68 <mpu9255_write>
 800452c:	4603      	mov	r3, r0
 800452e:	2b00      	cmp	r3, #0
 8004530:	d05d      	beq.n	80045ee <mpu_set_bypass+0x176>
            return -1;
 8004532:	f04f 33ff 	mov.w	r3, #4294967295
 8004536:	e05e      	b.n	80045f6 <mpu_set_bypass+0x17e>
    } else {
        /* Enable I2C master mode if compass is being used. */
        if (i2c_read(st.hw->addr, st.reg->user_ctrl, 1, &tmp))
 8004538:	4b31      	ldr	r3, [pc, #196]	@ (8004600 <mpu_set_bypass+0x188>)
 800453a:	685b      	ldr	r3, [r3, #4]
 800453c:	7818      	ldrb	r0, [r3, #0]
 800453e:	4b30      	ldr	r3, [pc, #192]	@ (8004600 <mpu_set_bypass+0x188>)
 8004540:	681b      	ldr	r3, [r3, #0]
 8004542:	7919      	ldrb	r1, [r3, #4]
 8004544:	f107 030f 	add.w	r3, r7, #15
 8004548:	2201      	movs	r2, #1
 800454a:	f001 fad9 	bl	8005b00 <mpu9255_read>
 800454e:	4603      	mov	r3, r0
 8004550:	2b00      	cmp	r3, #0
 8004552:	d002      	beq.n	800455a <mpu_set_bypass+0xe2>
            return -1;
 8004554:	f04f 33ff 	mov.w	r3, #4294967295
 8004558:	e04d      	b.n	80045f6 <mpu_set_bypass+0x17e>
        if (st.chip_cfg.sensors & INV_XYZ_COMPASS)
 800455a:	4b29      	ldr	r3, [pc, #164]	@ (8004600 <mpu_set_bypass+0x188>)
 800455c:	7a9b      	ldrb	r3, [r3, #10]
 800455e:	f003 0301 	and.w	r3, r3, #1
 8004562:	2b00      	cmp	r3, #0
 8004564:	d005      	beq.n	8004572 <mpu_set_bypass+0xfa>
            tmp |= BIT_AUX_IF_EN;
 8004566:	7bfb      	ldrb	r3, [r7, #15]
 8004568:	f043 0320 	orr.w	r3, r3, #32
 800456c:	b2db      	uxtb	r3, r3
 800456e:	73fb      	strb	r3, [r7, #15]
 8004570:	e004      	b.n	800457c <mpu_set_bypass+0x104>
        else
            tmp &= ~BIT_AUX_IF_EN;
 8004572:	7bfb      	ldrb	r3, [r7, #15]
 8004574:	f023 0320 	bic.w	r3, r3, #32
 8004578:	b2db      	uxtb	r3, r3
 800457a:	73fb      	strb	r3, [r7, #15]
        if (i2c_write(st.hw->addr, st.reg->user_ctrl, 1, &tmp))
 800457c:	4b20      	ldr	r3, [pc, #128]	@ (8004600 <mpu_set_bypass+0x188>)
 800457e:	685b      	ldr	r3, [r3, #4]
 8004580:	7818      	ldrb	r0, [r3, #0]
 8004582:	4b1f      	ldr	r3, [pc, #124]	@ (8004600 <mpu_set_bypass+0x188>)
 8004584:	681b      	ldr	r3, [r3, #0]
 8004586:	7919      	ldrb	r1, [r3, #4]
 8004588:	f107 030f 	add.w	r3, r7, #15
 800458c:	2201      	movs	r2, #1
 800458e:	f001 fa6b 	bl	8005a68 <mpu9255_write>
 8004592:	4603      	mov	r3, r0
 8004594:	2b00      	cmp	r3, #0
 8004596:	d002      	beq.n	800459e <mpu_set_bypass+0x126>
            return -1;
 8004598:	f04f 33ff 	mov.w	r3, #4294967295
 800459c:	e02b      	b.n	80045f6 <mpu_set_bypass+0x17e>
        delay_ms(3);
 800459e:	2003      	movs	r0, #3
 80045a0:	f001 faf8 	bl	8005b94 <mpu9255_delay_ms>
        if (st.chip_cfg.active_low_int)
 80045a4:	4b16      	ldr	r3, [pc, #88]	@ (8004600 <mpu_set_bypass+0x188>)
 80045a6:	f893 3022 	ldrb.w	r3, [r3, #34]	@ 0x22
 80045aa:	2b00      	cmp	r3, #0
 80045ac:	d002      	beq.n	80045b4 <mpu_set_bypass+0x13c>
            tmp = BIT_ACTL;
 80045ae:	2380      	movs	r3, #128	@ 0x80
 80045b0:	73fb      	strb	r3, [r7, #15]
 80045b2:	e001      	b.n	80045b8 <mpu_set_bypass+0x140>
        else
            tmp = 0;
 80045b4:	2300      	movs	r3, #0
 80045b6:	73fb      	strb	r3, [r7, #15]
        if (st.chip_cfg.latched_int)
 80045b8:	4b11      	ldr	r3, [pc, #68]	@ (8004600 <mpu_set_bypass+0x188>)
 80045ba:	f893 3023 	ldrb.w	r3, [r3, #35]	@ 0x23
 80045be:	2b00      	cmp	r3, #0
 80045c0:	d004      	beq.n	80045cc <mpu_set_bypass+0x154>
            tmp |= BIT_LATCH_EN | BIT_ANY_RD_CLR;
 80045c2:	7bfb      	ldrb	r3, [r7, #15]
 80045c4:	f043 0330 	orr.w	r3, r3, #48	@ 0x30
 80045c8:	b2db      	uxtb	r3, r3
 80045ca:	73fb      	strb	r3, [r7, #15]
        if (i2c_write(st.hw->addr, st.reg->int_pin_cfg, 1, &tmp))
 80045cc:	4b0c      	ldr	r3, [pc, #48]	@ (8004600 <mpu_set_bypass+0x188>)
 80045ce:	685b      	ldr	r3, [r3, #4]
 80045d0:	7818      	ldrb	r0, [r3, #0]
 80045d2:	4b0b      	ldr	r3, [pc, #44]	@ (8004600 <mpu_set_bypass+0x188>)
 80045d4:	681b      	ldr	r3, [r3, #0]
 80045d6:	7dd9      	ldrb	r1, [r3, #23]
 80045d8:	f107 030f 	add.w	r3, r7, #15
 80045dc:	2201      	movs	r2, #1
 80045de:	f001 fa43 	bl	8005a68 <mpu9255_write>
 80045e2:	4603      	mov	r3, r0
 80045e4:	2b00      	cmp	r3, #0
 80045e6:	d002      	beq.n	80045ee <mpu_set_bypass+0x176>
            return -1;
 80045e8:	f04f 33ff 	mov.w	r3, #4294967295
 80045ec:	e003      	b.n	80045f6 <mpu_set_bypass+0x17e>
    }
    st.chip_cfg.bypass_mode = bypass_on;
 80045ee:	4a04      	ldr	r2, [pc, #16]	@ (8004600 <mpu_set_bypass+0x188>)
 80045f0:	79fb      	ldrb	r3, [r7, #7]
 80045f2:	7493      	strb	r3, [r2, #18]
    return 0;
 80045f4:	2300      	movs	r3, #0
}
 80045f6:	4618      	mov	r0, r3
 80045f8:	3710      	adds	r7, #16
 80045fa:	46bd      	mov	sp, r7
 80045fc:	bd80      	pop	{r7, pc}
 80045fe:	bf00      	nop
 8004600:	20000010 	.word	0x20000010

08004604 <mpu_set_int_latched>:
 *  Any MPU register will clear the interrupt.
 *  @param[in]  enable  1 to enable, 0 to disable.
 *  @return     0 if successful.
 */
int mpu_set_int_latched(unsigned char enable)
{
 8004604:	b580      	push	{r7, lr}
 8004606:	b084      	sub	sp, #16
 8004608:	af00      	add	r7, sp, #0
 800460a:	4603      	mov	r3, r0
 800460c:	71fb      	strb	r3, [r7, #7]
    unsigned char tmp;
    if (st.chip_cfg.latched_int == enable)
 800460e:	4b1e      	ldr	r3, [pc, #120]	@ (8004688 <mpu_set_int_latched+0x84>)
 8004610:	f893 3023 	ldrb.w	r3, [r3, #35]	@ 0x23
 8004614:	79fa      	ldrb	r2, [r7, #7]
 8004616:	429a      	cmp	r2, r3
 8004618:	d101      	bne.n	800461e <mpu_set_int_latched+0x1a>
        return 0;
 800461a:	2300      	movs	r3, #0
 800461c:	e030      	b.n	8004680 <mpu_set_int_latched+0x7c>

    if (enable)
 800461e:	79fb      	ldrb	r3, [r7, #7]
 8004620:	2b00      	cmp	r3, #0
 8004622:	d002      	beq.n	800462a <mpu_set_int_latched+0x26>
        tmp = BIT_LATCH_EN | BIT_ANY_RD_CLR;
 8004624:	2330      	movs	r3, #48	@ 0x30
 8004626:	73fb      	strb	r3, [r7, #15]
 8004628:	e001      	b.n	800462e <mpu_set_int_latched+0x2a>
    else
        tmp = 0;
 800462a:	2300      	movs	r3, #0
 800462c:	73fb      	strb	r3, [r7, #15]
    if (st.chip_cfg.bypass_mode)
 800462e:	4b16      	ldr	r3, [pc, #88]	@ (8004688 <mpu_set_int_latched+0x84>)
 8004630:	7c9b      	ldrb	r3, [r3, #18]
 8004632:	2b00      	cmp	r3, #0
 8004634:	d004      	beq.n	8004640 <mpu_set_int_latched+0x3c>
        tmp |= BIT_BYPASS_EN;
 8004636:	7bfb      	ldrb	r3, [r7, #15]
 8004638:	f043 0302 	orr.w	r3, r3, #2
 800463c:	b2db      	uxtb	r3, r3
 800463e:	73fb      	strb	r3, [r7, #15]
    if (st.chip_cfg.active_low_int)
 8004640:	4b11      	ldr	r3, [pc, #68]	@ (8004688 <mpu_set_int_latched+0x84>)
 8004642:	f893 3022 	ldrb.w	r3, [r3, #34]	@ 0x22
 8004646:	2b00      	cmp	r3, #0
 8004648:	d004      	beq.n	8004654 <mpu_set_int_latched+0x50>
        tmp |= BIT_ACTL;
 800464a:	7bfb      	ldrb	r3, [r7, #15]
 800464c:	f063 037f 	orn	r3, r3, #127	@ 0x7f
 8004650:	b2db      	uxtb	r3, r3
 8004652:	73fb      	strb	r3, [r7, #15]
    if (i2c_write(st.hw->addr, st.reg->int_pin_cfg, 1, &tmp))
 8004654:	4b0c      	ldr	r3, [pc, #48]	@ (8004688 <mpu_set_int_latched+0x84>)
 8004656:	685b      	ldr	r3, [r3, #4]
 8004658:	7818      	ldrb	r0, [r3, #0]
 800465a:	4b0b      	ldr	r3, [pc, #44]	@ (8004688 <mpu_set_int_latched+0x84>)
 800465c:	681b      	ldr	r3, [r3, #0]
 800465e:	7dd9      	ldrb	r1, [r3, #23]
 8004660:	f107 030f 	add.w	r3, r7, #15
 8004664:	2201      	movs	r2, #1
 8004666:	f001 f9ff 	bl	8005a68 <mpu9255_write>
 800466a:	4603      	mov	r3, r0
 800466c:	2b00      	cmp	r3, #0
 800466e:	d002      	beq.n	8004676 <mpu_set_int_latched+0x72>
        return -1;
 8004670:	f04f 33ff 	mov.w	r3, #4294967295
 8004674:	e004      	b.n	8004680 <mpu_set_int_latched+0x7c>
    st.chip_cfg.latched_int = enable;
 8004676:	4a04      	ldr	r2, [pc, #16]	@ (8004688 <mpu_set_int_latched+0x84>)
 8004678:	79fb      	ldrb	r3, [r7, #7]
 800467a:	f882 3023 	strb.w	r3, [r2, #35]	@ 0x23
    return 0;
 800467e:	2300      	movs	r3, #0
}
 8004680:	4618      	mov	r0, r3
 8004682:	3710      	adds	r7, #16
 8004684:	46bd      	mov	sp, r7
 8004686:	bd80      	pop	{r7, pc}
 8004688:	20000010 	.word	0x20000010

0800468c <mpu_write_mem>:
 *  @param[in]  data        Bytes to write to memory.
 *  @return     0 if successful.
 */
int mpu_write_mem(unsigned short mem_addr, unsigned short length,
        unsigned char *data)
{
 800468c:	b580      	push	{r7, lr}
 800468e:	b084      	sub	sp, #16
 8004690:	af00      	add	r7, sp, #0
 8004692:	4603      	mov	r3, r0
 8004694:	603a      	str	r2, [r7, #0]
 8004696:	80fb      	strh	r3, [r7, #6]
 8004698:	460b      	mov	r3, r1
 800469a:	80bb      	strh	r3, [r7, #4]
    unsigned char tmp[2];

    if (!data)
 800469c:	683b      	ldr	r3, [r7, #0]
 800469e:	2b00      	cmp	r3, #0
 80046a0:	d102      	bne.n	80046a8 <mpu_write_mem+0x1c>
        return -1;
 80046a2:	f04f 33ff 	mov.w	r3, #4294967295
 80046a6:	e03d      	b.n	8004724 <mpu_write_mem+0x98>
    if (!st.chip_cfg.sensors)
 80046a8:	4b20      	ldr	r3, [pc, #128]	@ (800472c <mpu_write_mem+0xa0>)
 80046aa:	7a9b      	ldrb	r3, [r3, #10]
 80046ac:	2b00      	cmp	r3, #0
 80046ae:	d102      	bne.n	80046b6 <mpu_write_mem+0x2a>
        return -1;
 80046b0:	f04f 33ff 	mov.w	r3, #4294967295
 80046b4:	e036      	b.n	8004724 <mpu_write_mem+0x98>

    tmp[0] = (unsigned char)(mem_addr >> 8);
 80046b6:	88fb      	ldrh	r3, [r7, #6]
 80046b8:	0a1b      	lsrs	r3, r3, #8
 80046ba:	b29b      	uxth	r3, r3
 80046bc:	b2db      	uxtb	r3, r3
 80046be:	733b      	strb	r3, [r7, #12]
    tmp[1] = (unsigned char)(mem_addr & 0xFF);
 80046c0:	88fb      	ldrh	r3, [r7, #6]
 80046c2:	b2db      	uxtb	r3, r3
 80046c4:	737b      	strb	r3, [r7, #13]

    /* Check bank boundaries. */
    if (tmp[1] + length > st.hw->bank_size)
 80046c6:	7b7b      	ldrb	r3, [r7, #13]
 80046c8:	461a      	mov	r2, r3
 80046ca:	88bb      	ldrh	r3, [r7, #4]
 80046cc:	4413      	add	r3, r2
 80046ce:	4a17      	ldr	r2, [pc, #92]	@ (800472c <mpu_write_mem+0xa0>)
 80046d0:	6852      	ldr	r2, [r2, #4]
 80046d2:	8952      	ldrh	r2, [r2, #10]
 80046d4:	4293      	cmp	r3, r2
 80046d6:	dd02      	ble.n	80046de <mpu_write_mem+0x52>
        return -1;
 80046d8:	f04f 33ff 	mov.w	r3, #4294967295
 80046dc:	e022      	b.n	8004724 <mpu_write_mem+0x98>

    if (i2c_write(st.hw->addr, st.reg->bank_sel, 2, tmp))
 80046de:	4b13      	ldr	r3, [pc, #76]	@ (800472c <mpu_write_mem+0xa0>)
 80046e0:	685b      	ldr	r3, [r3, #4]
 80046e2:	7818      	ldrb	r0, [r3, #0]
 80046e4:	4b11      	ldr	r3, [pc, #68]	@ (800472c <mpu_write_mem+0xa0>)
 80046e6:	681b      	ldr	r3, [r3, #0]
 80046e8:	7ed9      	ldrb	r1, [r3, #27]
 80046ea:	f107 030c 	add.w	r3, r7, #12
 80046ee:	2202      	movs	r2, #2
 80046f0:	f001 f9ba 	bl	8005a68 <mpu9255_write>
 80046f4:	4603      	mov	r3, r0
 80046f6:	2b00      	cmp	r3, #0
 80046f8:	d002      	beq.n	8004700 <mpu_write_mem+0x74>
        return -1;
 80046fa:	f04f 33ff 	mov.w	r3, #4294967295
 80046fe:	e011      	b.n	8004724 <mpu_write_mem+0x98>
    if (i2c_write(st.hw->addr, st.reg->mem_r_w, length, data))
 8004700:	4b0a      	ldr	r3, [pc, #40]	@ (800472c <mpu_write_mem+0xa0>)
 8004702:	685b      	ldr	r3, [r3, #4]
 8004704:	7818      	ldrb	r0, [r3, #0]
 8004706:	4b09      	ldr	r3, [pc, #36]	@ (800472c <mpu_write_mem+0xa0>)
 8004708:	681b      	ldr	r3, [r3, #0]
 800470a:	7e19      	ldrb	r1, [r3, #24]
 800470c:	88bb      	ldrh	r3, [r7, #4]
 800470e:	b2da      	uxtb	r2, r3
 8004710:	683b      	ldr	r3, [r7, #0]
 8004712:	f001 f9a9 	bl	8005a68 <mpu9255_write>
 8004716:	4603      	mov	r3, r0
 8004718:	2b00      	cmp	r3, #0
 800471a:	d002      	beq.n	8004722 <mpu_write_mem+0x96>
        return -1;
 800471c:	f04f 33ff 	mov.w	r3, #4294967295
 8004720:	e000      	b.n	8004724 <mpu_write_mem+0x98>
    return 0;
 8004722:	2300      	movs	r3, #0
}
 8004724:	4618      	mov	r0, r3
 8004726:	3710      	adds	r7, #16
 8004728:	46bd      	mov	sp, r7
 800472a:	bd80      	pop	{r7, pc}
 800472c:	20000010 	.word	0x20000010

08004730 <mpu_read_mem>:
 *  @param[out] data        Bytes read from memory.
 *  @return     0 if successful.
 */
int mpu_read_mem(unsigned short mem_addr, unsigned short length,
        unsigned char *data)
{
 8004730:	b580      	push	{r7, lr}
 8004732:	b084      	sub	sp, #16
 8004734:	af00      	add	r7, sp, #0
 8004736:	4603      	mov	r3, r0
 8004738:	603a      	str	r2, [r7, #0]
 800473a:	80fb      	strh	r3, [r7, #6]
 800473c:	460b      	mov	r3, r1
 800473e:	80bb      	strh	r3, [r7, #4]
    unsigned char tmp[2];

    if (!data)
 8004740:	683b      	ldr	r3, [r7, #0]
 8004742:	2b00      	cmp	r3, #0
 8004744:	d102      	bne.n	800474c <mpu_read_mem+0x1c>
        return -1;
 8004746:	f04f 33ff 	mov.w	r3, #4294967295
 800474a:	e03d      	b.n	80047c8 <mpu_read_mem+0x98>
    if (!st.chip_cfg.sensors)
 800474c:	4b20      	ldr	r3, [pc, #128]	@ (80047d0 <mpu_read_mem+0xa0>)
 800474e:	7a9b      	ldrb	r3, [r3, #10]
 8004750:	2b00      	cmp	r3, #0
 8004752:	d102      	bne.n	800475a <mpu_read_mem+0x2a>
        return -1;
 8004754:	f04f 33ff 	mov.w	r3, #4294967295
 8004758:	e036      	b.n	80047c8 <mpu_read_mem+0x98>

    tmp[0] = (unsigned char)(mem_addr >> 8);
 800475a:	88fb      	ldrh	r3, [r7, #6]
 800475c:	0a1b      	lsrs	r3, r3, #8
 800475e:	b29b      	uxth	r3, r3
 8004760:	b2db      	uxtb	r3, r3
 8004762:	733b      	strb	r3, [r7, #12]
    tmp[1] = (unsigned char)(mem_addr & 0xFF);
 8004764:	88fb      	ldrh	r3, [r7, #6]
 8004766:	b2db      	uxtb	r3, r3
 8004768:	737b      	strb	r3, [r7, #13]

    /* Check bank boundaries. */
    if (tmp[1] + length > st.hw->bank_size)
 800476a:	7b7b      	ldrb	r3, [r7, #13]
 800476c:	461a      	mov	r2, r3
 800476e:	88bb      	ldrh	r3, [r7, #4]
 8004770:	4413      	add	r3, r2
 8004772:	4a17      	ldr	r2, [pc, #92]	@ (80047d0 <mpu_read_mem+0xa0>)
 8004774:	6852      	ldr	r2, [r2, #4]
 8004776:	8952      	ldrh	r2, [r2, #10]
 8004778:	4293      	cmp	r3, r2
 800477a:	dd02      	ble.n	8004782 <mpu_read_mem+0x52>
        return -1;
 800477c:	f04f 33ff 	mov.w	r3, #4294967295
 8004780:	e022      	b.n	80047c8 <mpu_read_mem+0x98>

    if (i2c_write(st.hw->addr, st.reg->bank_sel, 2, tmp))
 8004782:	4b13      	ldr	r3, [pc, #76]	@ (80047d0 <mpu_read_mem+0xa0>)
 8004784:	685b      	ldr	r3, [r3, #4]
 8004786:	7818      	ldrb	r0, [r3, #0]
 8004788:	4b11      	ldr	r3, [pc, #68]	@ (80047d0 <mpu_read_mem+0xa0>)
 800478a:	681b      	ldr	r3, [r3, #0]
 800478c:	7ed9      	ldrb	r1, [r3, #27]
 800478e:	f107 030c 	add.w	r3, r7, #12
 8004792:	2202      	movs	r2, #2
 8004794:	f001 f968 	bl	8005a68 <mpu9255_write>
 8004798:	4603      	mov	r3, r0
 800479a:	2b00      	cmp	r3, #0
 800479c:	d002      	beq.n	80047a4 <mpu_read_mem+0x74>
        return -1;
 800479e:	f04f 33ff 	mov.w	r3, #4294967295
 80047a2:	e011      	b.n	80047c8 <mpu_read_mem+0x98>
    if (i2c_read(st.hw->addr, st.reg->mem_r_w, length, data))
 80047a4:	4b0a      	ldr	r3, [pc, #40]	@ (80047d0 <mpu_read_mem+0xa0>)
 80047a6:	685b      	ldr	r3, [r3, #4]
 80047a8:	7818      	ldrb	r0, [r3, #0]
 80047aa:	4b09      	ldr	r3, [pc, #36]	@ (80047d0 <mpu_read_mem+0xa0>)
 80047ac:	681b      	ldr	r3, [r3, #0]
 80047ae:	7e19      	ldrb	r1, [r3, #24]
 80047b0:	88bb      	ldrh	r3, [r7, #4]
 80047b2:	b2da      	uxtb	r2, r3
 80047b4:	683b      	ldr	r3, [r7, #0]
 80047b6:	f001 f9a3 	bl	8005b00 <mpu9255_read>
 80047ba:	4603      	mov	r3, r0
 80047bc:	2b00      	cmp	r3, #0
 80047be:	d002      	beq.n	80047c6 <mpu_read_mem+0x96>
        return -1;
 80047c0:	f04f 33ff 	mov.w	r3, #4294967295
 80047c4:	e000      	b.n	80047c8 <mpu_read_mem+0x98>
    return 0;
 80047c6:	2300      	movs	r3, #0
}
 80047c8:	4618      	mov	r0, r3
 80047ca:	3710      	adds	r7, #16
 80047cc:	46bd      	mov	sp, r7
 80047ce:	bd80      	pop	{r7, pc}
 80047d0:	20000010 	.word	0x20000010

080047d4 <mpu_load_firmware>:
 *  @param[in]  sample_rate Fixed sampling rate used when DMP is enabled.
 *  @return     0 if successful.
 */
int mpu_load_firmware(unsigned short length, const unsigned char *firmware,
    unsigned short start_addr, unsigned short sample_rate)
{
 80047d4:	b580      	push	{r7, lr}
 80047d6:	b08a      	sub	sp, #40	@ 0x28
 80047d8:	af00      	add	r7, sp, #0
 80047da:	60b9      	str	r1, [r7, #8]
 80047dc:	4611      	mov	r1, r2
 80047de:	461a      	mov	r2, r3
 80047e0:	4603      	mov	r3, r0
 80047e2:	81fb      	strh	r3, [r7, #14]
 80047e4:	460b      	mov	r3, r1
 80047e6:	81bb      	strh	r3, [r7, #12]
 80047e8:	4613      	mov	r3, r2
 80047ea:	80fb      	strh	r3, [r7, #6]
    unsigned short this_write;
    /* Must divide evenly into st.hw->bank_size to avoid bank crossings. */
#define LOAD_CHUNK  (16)
    unsigned char cur[LOAD_CHUNK], tmp[2];

    if (st.chip_cfg.dmp_loaded)
 80047ec:	4b37      	ldr	r3, [pc, #220]	@ (80048cc <mpu_load_firmware+0xf8>)
 80047ee:	f893 3025 	ldrb.w	r3, [r3, #37]	@ 0x25
 80047f2:	2b00      	cmp	r3, #0
 80047f4:	d002      	beq.n	80047fc <mpu_load_firmware+0x28>
        /* DMP should only be loaded once. */
        return -1;
 80047f6:	f04f 33ff 	mov.w	r3, #4294967295
 80047fa:	e062      	b.n	80048c2 <mpu_load_firmware+0xee>

    if (!firmware)
 80047fc:	68bb      	ldr	r3, [r7, #8]
 80047fe:	2b00      	cmp	r3, #0
 8004800:	d102      	bne.n	8004808 <mpu_load_firmware+0x34>
        return -1;
 8004802:	f04f 33ff 	mov.w	r3, #4294967295
 8004806:	e05c      	b.n	80048c2 <mpu_load_firmware+0xee>
    for (ii = 0; ii < length; ii += this_write) {
 8004808:	2300      	movs	r3, #0
 800480a:	84fb      	strh	r3, [r7, #38]	@ 0x26
 800480c:	e034      	b.n	8004878 <mpu_load_firmware+0xa4>
        this_write = min(LOAD_CHUNK, length - ii);
 800480e:	89fa      	ldrh	r2, [r7, #14]
 8004810:	8cfb      	ldrh	r3, [r7, #38]	@ 0x26
 8004812:	1ad3      	subs	r3, r2, r3
 8004814:	2b10      	cmp	r3, #16
 8004816:	bfa8      	it	ge
 8004818:	2310      	movge	r3, #16
 800481a:	84bb      	strh	r3, [r7, #36]	@ 0x24
        if (mpu_write_mem(ii, this_write, (unsigned char*)&firmware[ii]))
 800481c:	8cfb      	ldrh	r3, [r7, #38]	@ 0x26
 800481e:	68ba      	ldr	r2, [r7, #8]
 8004820:	441a      	add	r2, r3
 8004822:	8cb9      	ldrh	r1, [r7, #36]	@ 0x24
 8004824:	8cfb      	ldrh	r3, [r7, #38]	@ 0x26
 8004826:	4618      	mov	r0, r3
 8004828:	f7ff ff30 	bl	800468c <mpu_write_mem>
 800482c:	4603      	mov	r3, r0
 800482e:	2b00      	cmp	r3, #0
 8004830:	d002      	beq.n	8004838 <mpu_load_firmware+0x64>
            return -1;
 8004832:	f04f 33ff 	mov.w	r3, #4294967295
 8004836:	e044      	b.n	80048c2 <mpu_load_firmware+0xee>
        if (mpu_read_mem(ii, this_write, cur))
 8004838:	f107 0214 	add.w	r2, r7, #20
 800483c:	8cb9      	ldrh	r1, [r7, #36]	@ 0x24
 800483e:	8cfb      	ldrh	r3, [r7, #38]	@ 0x26
 8004840:	4618      	mov	r0, r3
 8004842:	f7ff ff75 	bl	8004730 <mpu_read_mem>
 8004846:	4603      	mov	r3, r0
 8004848:	2b00      	cmp	r3, #0
 800484a:	d002      	beq.n	8004852 <mpu_load_firmware+0x7e>
            return -1;
 800484c:	f04f 33ff 	mov.w	r3, #4294967295
 8004850:	e037      	b.n	80048c2 <mpu_load_firmware+0xee>
        if (memcmp(firmware+ii, cur, this_write))
 8004852:	8cfb      	ldrh	r3, [r7, #38]	@ 0x26
 8004854:	68ba      	ldr	r2, [r7, #8]
 8004856:	4413      	add	r3, r2
 8004858:	8cba      	ldrh	r2, [r7, #36]	@ 0x24
 800485a:	f107 0114 	add.w	r1, r7, #20
 800485e:	4618      	mov	r0, r3
 8004860:	f002 fdc8 	bl	80073f4 <memcmp>
 8004864:	4603      	mov	r3, r0
 8004866:	2b00      	cmp	r3, #0
 8004868:	d002      	beq.n	8004870 <mpu_load_firmware+0x9c>
            return -2;
 800486a:	f06f 0301 	mvn.w	r3, #1
 800486e:	e028      	b.n	80048c2 <mpu_load_firmware+0xee>
    for (ii = 0; ii < length; ii += this_write) {
 8004870:	8cfa      	ldrh	r2, [r7, #38]	@ 0x26
 8004872:	8cbb      	ldrh	r3, [r7, #36]	@ 0x24
 8004874:	4413      	add	r3, r2
 8004876:	84fb      	strh	r3, [r7, #38]	@ 0x26
 8004878:	8cfa      	ldrh	r2, [r7, #38]	@ 0x26
 800487a:	89fb      	ldrh	r3, [r7, #14]
 800487c:	429a      	cmp	r2, r3
 800487e:	d3c6      	bcc.n	800480e <mpu_load_firmware+0x3a>
    }

    /* Set program start address. */
    tmp[0] = start_addr >> 8;
 8004880:	89bb      	ldrh	r3, [r7, #12]
 8004882:	0a1b      	lsrs	r3, r3, #8
 8004884:	b29b      	uxth	r3, r3
 8004886:	b2db      	uxtb	r3, r3
 8004888:	743b      	strb	r3, [r7, #16]
    tmp[1] = start_addr & 0xFF;
 800488a:	89bb      	ldrh	r3, [r7, #12]
 800488c:	b2db      	uxtb	r3, r3
 800488e:	747b      	strb	r3, [r7, #17]
    if (i2c_write(st.hw->addr, st.reg->prgm_start_h, 2, tmp))
 8004890:	4b0e      	ldr	r3, [pc, #56]	@ (80048cc <mpu_load_firmware+0xf8>)
 8004892:	685b      	ldr	r3, [r3, #4]
 8004894:	7818      	ldrb	r0, [r3, #0]
 8004896:	4b0d      	ldr	r3, [pc, #52]	@ (80048cc <mpu_load_firmware+0xf8>)
 8004898:	681b      	ldr	r3, [r3, #0]
 800489a:	7f59      	ldrb	r1, [r3, #29]
 800489c:	f107 0310 	add.w	r3, r7, #16
 80048a0:	2202      	movs	r2, #2
 80048a2:	f001 f8e1 	bl	8005a68 <mpu9255_write>
 80048a6:	4603      	mov	r3, r0
 80048a8:	2b00      	cmp	r3, #0
 80048aa:	d002      	beq.n	80048b2 <mpu_load_firmware+0xde>
        return -1;
 80048ac:	f04f 33ff 	mov.w	r3, #4294967295
 80048b0:	e007      	b.n	80048c2 <mpu_load_firmware+0xee>

    st.chip_cfg.dmp_loaded = 1;
 80048b2:	4b06      	ldr	r3, [pc, #24]	@ (80048cc <mpu_load_firmware+0xf8>)
 80048b4:	2201      	movs	r2, #1
 80048b6:	f883 2025 	strb.w	r2, [r3, #37]	@ 0x25
    st.chip_cfg.dmp_sample_rate = sample_rate;
 80048ba:	4a04      	ldr	r2, [pc, #16]	@ (80048cc <mpu_load_firmware+0xf8>)
 80048bc:	88fb      	ldrh	r3, [r7, #6]
 80048be:	84d3      	strh	r3, [r2, #38]	@ 0x26
    return 0;
 80048c0:	2300      	movs	r3, #0
}
 80048c2:	4618      	mov	r0, r3
 80048c4:	3728      	adds	r7, #40	@ 0x28
 80048c6:	46bd      	mov	sp, r7
 80048c8:	bd80      	pop	{r7, pc}
 80048ca:	bf00      	nop
 80048cc:	20000010 	.word	0x20000010

080048d0 <mpu_set_dmp_state>:
 *  @brief      Enable/disable DMP support.
 *  @param[in]  enable  1 to turn on the DMP.
 *  @return     0 if successful.
 */
int mpu_set_dmp_state(unsigned char enable)
{
 80048d0:	b580      	push	{r7, lr}
 80048d2:	b084      	sub	sp, #16
 80048d4:	af00      	add	r7, sp, #0
 80048d6:	4603      	mov	r3, r0
 80048d8:	71fb      	strb	r3, [r7, #7]
    unsigned char tmp;
    if (st.chip_cfg.dmp_on == enable)
 80048da:	4b26      	ldr	r3, [pc, #152]	@ (8004974 <mpu_set_dmp_state+0xa4>)
 80048dc:	f893 3024 	ldrb.w	r3, [r3, #36]	@ 0x24
 80048e0:	79fa      	ldrb	r2, [r7, #7]
 80048e2:	429a      	cmp	r2, r3
 80048e4:	d101      	bne.n	80048ea <mpu_set_dmp_state+0x1a>
        return 0;
 80048e6:	2300      	movs	r3, #0
 80048e8:	e040      	b.n	800496c <mpu_set_dmp_state+0x9c>

    if (enable) {
 80048ea:	79fb      	ldrb	r3, [r7, #7]
 80048ec:	2b00      	cmp	r3, #0
 80048ee:	d027      	beq.n	8004940 <mpu_set_dmp_state+0x70>
        if (!st.chip_cfg.dmp_loaded)
 80048f0:	4b20      	ldr	r3, [pc, #128]	@ (8004974 <mpu_set_dmp_state+0xa4>)
 80048f2:	f893 3025 	ldrb.w	r3, [r3, #37]	@ 0x25
 80048f6:	2b00      	cmp	r3, #0
 80048f8:	d102      	bne.n	8004900 <mpu_set_dmp_state+0x30>
            return -1;
 80048fa:	f04f 33ff 	mov.w	r3, #4294967295
 80048fe:	e035      	b.n	800496c <mpu_set_dmp_state+0x9c>
        /* Disable data ready interrupt. */
        set_int_enable(0);
 8004900:	2000      	movs	r0, #0
 8004902:	f7fe ff59 	bl	80037b8 <set_int_enable>
        /* Disable bypass mode. */
        mpu_set_bypass(0);
 8004906:	2000      	movs	r0, #0
 8004908:	f7ff fdb6 	bl	8004478 <mpu_set_bypass>
        /* Keep constant sample rate, FIFO rate controlled by DMP. */
        mpu_set_sample_rate(st.chip_cfg.dmp_sample_rate);
 800490c:	4b19      	ldr	r3, [pc, #100]	@ (8004974 <mpu_set_dmp_state+0xa4>)
 800490e:	8cdb      	ldrh	r3, [r3, #38]	@ 0x26
 8004910:	4618      	mov	r0, r3
 8004912:	f7ff fb55 	bl	8003fc0 <mpu_set_sample_rate>
        /* Remove FIFO elements. */
        tmp = 0;
 8004916:	2300      	movs	r3, #0
 8004918:	73fb      	strb	r3, [r7, #15]
        i2c_write(st.hw->addr, 0x23, 1, &tmp);
 800491a:	4b16      	ldr	r3, [pc, #88]	@ (8004974 <mpu_set_dmp_state+0xa4>)
 800491c:	685b      	ldr	r3, [r3, #4]
 800491e:	7818      	ldrb	r0, [r3, #0]
 8004920:	f107 030f 	add.w	r3, r7, #15
 8004924:	2201      	movs	r2, #1
 8004926:	2123      	movs	r1, #35	@ 0x23
 8004928:	f001 f89e 	bl	8005a68 <mpu9255_write>
        st.chip_cfg.dmp_on = 1;
 800492c:	4b11      	ldr	r3, [pc, #68]	@ (8004974 <mpu_set_dmp_state+0xa4>)
 800492e:	2201      	movs	r2, #1
 8004930:	f883 2024 	strb.w	r2, [r3, #36]	@ 0x24
        /* Enable DMP interrupt. */
        set_int_enable(1);
 8004934:	2001      	movs	r0, #1
 8004936:	f7fe ff3f 	bl	80037b8 <set_int_enable>
        mpu_reset_fifo();
 800493a:	f7ff f8f9 	bl	8003b30 <mpu_reset_fifo>
 800493e:	e014      	b.n	800496a <mpu_set_dmp_state+0x9a>
    } else {
        /* Disable DMP interrupt. */
        set_int_enable(0);
 8004940:	2000      	movs	r0, #0
 8004942:	f7fe ff39 	bl	80037b8 <set_int_enable>
        /* Restore FIFO settings. */
        tmp = st.chip_cfg.fifo_enable;
 8004946:	4b0b      	ldr	r3, [pc, #44]	@ (8004974 <mpu_set_dmp_state+0xa4>)
 8004948:	7c1b      	ldrb	r3, [r3, #16]
 800494a:	73fb      	strb	r3, [r7, #15]
        i2c_write(st.hw->addr, 0x23, 1, &tmp);
 800494c:	4b09      	ldr	r3, [pc, #36]	@ (8004974 <mpu_set_dmp_state+0xa4>)
 800494e:	685b      	ldr	r3, [r3, #4]
 8004950:	7818      	ldrb	r0, [r3, #0]
 8004952:	f107 030f 	add.w	r3, r7, #15
 8004956:	2201      	movs	r2, #1
 8004958:	2123      	movs	r1, #35	@ 0x23
 800495a:	f001 f885 	bl	8005a68 <mpu9255_write>
        st.chip_cfg.dmp_on = 0;
 800495e:	4b05      	ldr	r3, [pc, #20]	@ (8004974 <mpu_set_dmp_state+0xa4>)
 8004960:	2200      	movs	r2, #0
 8004962:	f883 2024 	strb.w	r2, [r3, #36]	@ 0x24
        mpu_reset_fifo();
 8004966:	f7ff f8e3 	bl	8003b30 <mpu_reset_fifo>
    }
    return 0;
 800496a:	2300      	movs	r3, #0
}
 800496c:	4618      	mov	r0, r3
 800496e:	3710      	adds	r7, #16
 8004970:	46bd      	mov	sp, r7
 8004972:	bd80      	pop	{r7, pc}
 8004974:	20000010 	.word	0x20000010

08004978 <setup_compass>:
}

#ifdef AK89xx_SECONDARY
/* This initialization is similar to the one in ak8975.c. */
static int setup_compass(void)
{
 8004978:	b580      	push	{r7, lr}
 800497a:	b084      	sub	sp, #16
 800497c:	af00      	add	r7, sp, #0
    unsigned char data[4], akm_addr;

    mpu_set_bypass(1);
 800497e:	2001      	movs	r0, #1
 8004980:	f7ff fd7a 	bl	8004478 <mpu_set_bypass>

    /* Find compass. Possible addresses range from 0x0C to 0x0F. */
    for (akm_addr = 0x0C; akm_addr <= 0x0F; akm_addr++) {
 8004984:	230c      	movs	r3, #12
 8004986:	73fb      	strb	r3, [r7, #15]
 8004988:	e00f      	b.n	80049aa <setup_compass+0x32>
        int result;
        result = i2c_read(akm_addr, AKM_REG_WHOAMI, 1, data);
 800498a:	1d3b      	adds	r3, r7, #4
 800498c:	7bf8      	ldrb	r0, [r7, #15]
 800498e:	2201      	movs	r2, #1
 8004990:	2100      	movs	r1, #0
 8004992:	f001 f8b5 	bl	8005b00 <mpu9255_read>
 8004996:	60b8      	str	r0, [r7, #8]
        if (!result && (data[0] == AKM_WHOAMI))
 8004998:	68bb      	ldr	r3, [r7, #8]
 800499a:	2b00      	cmp	r3, #0
 800499c:	d102      	bne.n	80049a4 <setup_compass+0x2c>
 800499e:	793b      	ldrb	r3, [r7, #4]
 80049a0:	2b48      	cmp	r3, #72	@ 0x48
 80049a2:	d006      	beq.n	80049b2 <setup_compass+0x3a>
    for (akm_addr = 0x0C; akm_addr <= 0x0F; akm_addr++) {
 80049a4:	7bfb      	ldrb	r3, [r7, #15]
 80049a6:	3301      	adds	r3, #1
 80049a8:	73fb      	strb	r3, [r7, #15]
 80049aa:	7bfb      	ldrb	r3, [r7, #15]
 80049ac:	2b0f      	cmp	r3, #15
 80049ae:	d9ec      	bls.n	800498a <setup_compass+0x12>
 80049b0:	e000      	b.n	80049b4 <setup_compass+0x3c>
            break;
 80049b2:	bf00      	nop
    }

    if (akm_addr > 0x0F) {
 80049b4:	7bfb      	ldrb	r3, [r7, #15]
 80049b6:	2b0f      	cmp	r3, #15
 80049b8:	d902      	bls.n	80049c0 <setup_compass+0x48>
        /* TODO: Handle this case in all compass-related functions. */
        //log_e("Compass not found.\n");
        return -1;
 80049ba:	f04f 33ff 	mov.w	r3, #4294967295
 80049be:	e10f      	b.n	8004be0 <setup_compass+0x268>
    }

    st.chip_cfg.compass_addr = akm_addr;
 80049c0:	4a89      	ldr	r2, [pc, #548]	@ (8004be8 <setup_compass+0x270>)
 80049c2:	7bfb      	ldrb	r3, [r7, #15]
 80049c4:	f882 302a 	strb.w	r3, [r2, #42]	@ 0x2a

    data[0] = AKM_POWER_DOWN;
 80049c8:	2310      	movs	r3, #16
 80049ca:	713b      	strb	r3, [r7, #4]
    if (i2c_write(st.chip_cfg.compass_addr, AKM_REG_CNTL, 1, data))
 80049cc:	4b86      	ldr	r3, [pc, #536]	@ (8004be8 <setup_compass+0x270>)
 80049ce:	f893 002a 	ldrb.w	r0, [r3, #42]	@ 0x2a
 80049d2:	1d3b      	adds	r3, r7, #4
 80049d4:	2201      	movs	r2, #1
 80049d6:	210a      	movs	r1, #10
 80049d8:	f001 f846 	bl	8005a68 <mpu9255_write>
 80049dc:	4603      	mov	r3, r0
 80049de:	2b00      	cmp	r3, #0
 80049e0:	d002      	beq.n	80049e8 <setup_compass+0x70>
        return -1;
 80049e2:	f04f 33ff 	mov.w	r3, #4294967295
 80049e6:	e0fb      	b.n	8004be0 <setup_compass+0x268>
    delay_ms(1);
 80049e8:	2001      	movs	r0, #1
 80049ea:	f001 f8d3 	bl	8005b94 <mpu9255_delay_ms>

    data[0] = AKM_FUSE_ROM_ACCESS;
 80049ee:	231f      	movs	r3, #31
 80049f0:	713b      	strb	r3, [r7, #4]
    if (i2c_write(st.chip_cfg.compass_addr, AKM_REG_CNTL, 1, data))
 80049f2:	4b7d      	ldr	r3, [pc, #500]	@ (8004be8 <setup_compass+0x270>)
 80049f4:	f893 002a 	ldrb.w	r0, [r3, #42]	@ 0x2a
 80049f8:	1d3b      	adds	r3, r7, #4
 80049fa:	2201      	movs	r2, #1
 80049fc:	210a      	movs	r1, #10
 80049fe:	f001 f833 	bl	8005a68 <mpu9255_write>
 8004a02:	4603      	mov	r3, r0
 8004a04:	2b00      	cmp	r3, #0
 8004a06:	d002      	beq.n	8004a0e <setup_compass+0x96>
        return -1;
 8004a08:	f04f 33ff 	mov.w	r3, #4294967295
 8004a0c:	e0e8      	b.n	8004be0 <setup_compass+0x268>
    delay_ms(1);
 8004a0e:	2001      	movs	r0, #1
 8004a10:	f001 f8c0 	bl	8005b94 <mpu9255_delay_ms>

    /* Get sensitivity adjustment data from fuse ROM. */
    if (i2c_read(st.chip_cfg.compass_addr, AKM_REG_ASAX, 3, data))
 8004a14:	4b74      	ldr	r3, [pc, #464]	@ (8004be8 <setup_compass+0x270>)
 8004a16:	f893 002a 	ldrb.w	r0, [r3, #42]	@ 0x2a
 8004a1a:	1d3b      	adds	r3, r7, #4
 8004a1c:	2203      	movs	r2, #3
 8004a1e:	2110      	movs	r1, #16
 8004a20:	f001 f86e 	bl	8005b00 <mpu9255_read>
 8004a24:	4603      	mov	r3, r0
 8004a26:	2b00      	cmp	r3, #0
 8004a28:	d002      	beq.n	8004a30 <setup_compass+0xb8>
        return -1;
 8004a2a:	f04f 33ff 	mov.w	r3, #4294967295
 8004a2e:	e0d7      	b.n	8004be0 <setup_compass+0x268>
    st.chip_cfg.mag_sens_adj[0] = (long)data[0] + 128;
 8004a30:	793b      	ldrb	r3, [r7, #4]
 8004a32:	3380      	adds	r3, #128	@ 0x80
 8004a34:	b29b      	uxth	r3, r3
 8004a36:	b21a      	sxth	r2, r3
 8004a38:	4b6b      	ldr	r3, [pc, #428]	@ (8004be8 <setup_compass+0x270>)
 8004a3a:	859a      	strh	r2, [r3, #44]	@ 0x2c
    st.chip_cfg.mag_sens_adj[1] = (long)data[1] + 128;
 8004a3c:	797b      	ldrb	r3, [r7, #5]
 8004a3e:	3380      	adds	r3, #128	@ 0x80
 8004a40:	b29b      	uxth	r3, r3
 8004a42:	b21a      	sxth	r2, r3
 8004a44:	4b68      	ldr	r3, [pc, #416]	@ (8004be8 <setup_compass+0x270>)
 8004a46:	85da      	strh	r2, [r3, #46]	@ 0x2e
    st.chip_cfg.mag_sens_adj[2] = (long)data[2] + 128;
 8004a48:	79bb      	ldrb	r3, [r7, #6]
 8004a4a:	3380      	adds	r3, #128	@ 0x80
 8004a4c:	b29b      	uxth	r3, r3
 8004a4e:	b21a      	sxth	r2, r3
 8004a50:	4b65      	ldr	r3, [pc, #404]	@ (8004be8 <setup_compass+0x270>)
 8004a52:	861a      	strh	r2, [r3, #48]	@ 0x30

    data[0] = AKM_POWER_DOWN;
 8004a54:	2310      	movs	r3, #16
 8004a56:	713b      	strb	r3, [r7, #4]
    if (i2c_write(st.chip_cfg.compass_addr, AKM_REG_CNTL, 1, data))
 8004a58:	4b63      	ldr	r3, [pc, #396]	@ (8004be8 <setup_compass+0x270>)
 8004a5a:	f893 002a 	ldrb.w	r0, [r3, #42]	@ 0x2a
 8004a5e:	1d3b      	adds	r3, r7, #4
 8004a60:	2201      	movs	r2, #1
 8004a62:	210a      	movs	r1, #10
 8004a64:	f001 f800 	bl	8005a68 <mpu9255_write>
 8004a68:	4603      	mov	r3, r0
 8004a6a:	2b00      	cmp	r3, #0
 8004a6c:	d002      	beq.n	8004a74 <setup_compass+0xfc>
        return -1;
 8004a6e:	f04f 33ff 	mov.w	r3, #4294967295
 8004a72:	e0b5      	b.n	8004be0 <setup_compass+0x268>
    delay_ms(1);
 8004a74:	2001      	movs	r0, #1
 8004a76:	f001 f88d 	bl	8005b94 <mpu9255_delay_ms>

    mpu_set_bypass(0);
 8004a7a:	2000      	movs	r0, #0
 8004a7c:	f7ff fcfc 	bl	8004478 <mpu_set_bypass>

    /* Set up master mode, master clock, and ES bit. */
    data[0] = 0x40;
 8004a80:	2340      	movs	r3, #64	@ 0x40
 8004a82:	713b      	strb	r3, [r7, #4]
    if (i2c_write(st.hw->addr, st.reg->i2c_mst, 1, data))
 8004a84:	4b58      	ldr	r3, [pc, #352]	@ (8004be8 <setup_compass+0x270>)
 8004a86:	685b      	ldr	r3, [r3, #4]
 8004a88:	7818      	ldrb	r0, [r3, #0]
 8004a8a:	4b57      	ldr	r3, [pc, #348]	@ (8004be8 <setup_compass+0x270>)
 8004a8c:	681b      	ldr	r3, [r3, #0]
 8004a8e:	7e99      	ldrb	r1, [r3, #26]
 8004a90:	1d3b      	adds	r3, r7, #4
 8004a92:	2201      	movs	r2, #1
 8004a94:	f000 ffe8 	bl	8005a68 <mpu9255_write>
 8004a98:	4603      	mov	r3, r0
 8004a9a:	2b00      	cmp	r3, #0
 8004a9c:	d002      	beq.n	8004aa4 <setup_compass+0x12c>
        return -1;
 8004a9e:	f04f 33ff 	mov.w	r3, #4294967295
 8004aa2:	e09d      	b.n	8004be0 <setup_compass+0x268>

    /* Slave 0 reads from AKM data registers. */
    data[0] = BIT_I2C_READ | st.chip_cfg.compass_addr;
 8004aa4:	4b50      	ldr	r3, [pc, #320]	@ (8004be8 <setup_compass+0x270>)
 8004aa6:	f893 302a 	ldrb.w	r3, [r3, #42]	@ 0x2a
 8004aaa:	f063 037f 	orn	r3, r3, #127	@ 0x7f
 8004aae:	b2db      	uxtb	r3, r3
 8004ab0:	713b      	strb	r3, [r7, #4]
    if (i2c_write(st.hw->addr, st.reg->s0_addr, 1, data))
 8004ab2:	4b4d      	ldr	r3, [pc, #308]	@ (8004be8 <setup_compass+0x270>)
 8004ab4:	685b      	ldr	r3, [r3, #4]
 8004ab6:	7818      	ldrb	r0, [r3, #0]
 8004ab8:	4b4b      	ldr	r3, [pc, #300]	@ (8004be8 <setup_compass+0x270>)
 8004aba:	681b      	ldr	r3, [r3, #0]
 8004abc:	7f99      	ldrb	r1, [r3, #30]
 8004abe:	1d3b      	adds	r3, r7, #4
 8004ac0:	2201      	movs	r2, #1
 8004ac2:	f000 ffd1 	bl	8005a68 <mpu9255_write>
 8004ac6:	4603      	mov	r3, r0
 8004ac8:	2b00      	cmp	r3, #0
 8004aca:	d002      	beq.n	8004ad2 <setup_compass+0x15a>
        return -1;
 8004acc:	f04f 33ff 	mov.w	r3, #4294967295
 8004ad0:	e086      	b.n	8004be0 <setup_compass+0x268>

    /* Compass reads start at this register. */
    data[0] = AKM_REG_ST1;
 8004ad2:	2302      	movs	r3, #2
 8004ad4:	713b      	strb	r3, [r7, #4]
    if (i2c_write(st.hw->addr, st.reg->s0_reg, 1, data))
 8004ad6:	4b44      	ldr	r3, [pc, #272]	@ (8004be8 <setup_compass+0x270>)
 8004ad8:	685b      	ldr	r3, [r3, #4]
 8004ada:	7818      	ldrb	r0, [r3, #0]
 8004adc:	4b42      	ldr	r3, [pc, #264]	@ (8004be8 <setup_compass+0x270>)
 8004ade:	681b      	ldr	r3, [r3, #0]
 8004ae0:	7fd9      	ldrb	r1, [r3, #31]
 8004ae2:	1d3b      	adds	r3, r7, #4
 8004ae4:	2201      	movs	r2, #1
 8004ae6:	f000 ffbf 	bl	8005a68 <mpu9255_write>
 8004aea:	4603      	mov	r3, r0
 8004aec:	2b00      	cmp	r3, #0
 8004aee:	d002      	beq.n	8004af6 <setup_compass+0x17e>
        return -1;
 8004af0:	f04f 33ff 	mov.w	r3, #4294967295
 8004af4:	e074      	b.n	8004be0 <setup_compass+0x268>

    /* Enable slave 0, 8-byte reads. */
    data[0] = BIT_SLAVE_EN | 8;
 8004af6:	2388      	movs	r3, #136	@ 0x88
 8004af8:	713b      	strb	r3, [r7, #4]
    if (i2c_write(st.hw->addr, st.reg->s0_ctrl, 1, data))
 8004afa:	4b3b      	ldr	r3, [pc, #236]	@ (8004be8 <setup_compass+0x270>)
 8004afc:	685b      	ldr	r3, [r3, #4]
 8004afe:	7818      	ldrb	r0, [r3, #0]
 8004b00:	4b39      	ldr	r3, [pc, #228]	@ (8004be8 <setup_compass+0x270>)
 8004b02:	681b      	ldr	r3, [r3, #0]
 8004b04:	f893 1020 	ldrb.w	r1, [r3, #32]
 8004b08:	1d3b      	adds	r3, r7, #4
 8004b0a:	2201      	movs	r2, #1
 8004b0c:	f000 ffac 	bl	8005a68 <mpu9255_write>
 8004b10:	4603      	mov	r3, r0
 8004b12:	2b00      	cmp	r3, #0
 8004b14:	d002      	beq.n	8004b1c <setup_compass+0x1a4>
        return -1;
 8004b16:	f04f 33ff 	mov.w	r3, #4294967295
 8004b1a:	e061      	b.n	8004be0 <setup_compass+0x268>

    /* Slave 1 changes AKM measurement mode. */
    data[0] = st.chip_cfg.compass_addr;
 8004b1c:	4b32      	ldr	r3, [pc, #200]	@ (8004be8 <setup_compass+0x270>)
 8004b1e:	f893 302a 	ldrb.w	r3, [r3, #42]	@ 0x2a
 8004b22:	713b      	strb	r3, [r7, #4]
    if (i2c_write(st.hw->addr, st.reg->s1_addr, 1, data))
 8004b24:	4b30      	ldr	r3, [pc, #192]	@ (8004be8 <setup_compass+0x270>)
 8004b26:	685b      	ldr	r3, [r3, #4]
 8004b28:	7818      	ldrb	r0, [r3, #0]
 8004b2a:	4b2f      	ldr	r3, [pc, #188]	@ (8004be8 <setup_compass+0x270>)
 8004b2c:	681b      	ldr	r3, [r3, #0]
 8004b2e:	f893 1021 	ldrb.w	r1, [r3, #33]	@ 0x21
 8004b32:	1d3b      	adds	r3, r7, #4
 8004b34:	2201      	movs	r2, #1
 8004b36:	f000 ff97 	bl	8005a68 <mpu9255_write>
 8004b3a:	4603      	mov	r3, r0
 8004b3c:	2b00      	cmp	r3, #0
 8004b3e:	d002      	beq.n	8004b46 <setup_compass+0x1ce>
        return -1;
 8004b40:	f04f 33ff 	mov.w	r3, #4294967295
 8004b44:	e04c      	b.n	8004be0 <setup_compass+0x268>

    /* AKM measurement mode register. */
    data[0] = AKM_REG_CNTL;
 8004b46:	230a      	movs	r3, #10
 8004b48:	713b      	strb	r3, [r7, #4]
    if (i2c_write(st.hw->addr, st.reg->s1_reg, 1, data))
 8004b4a:	4b27      	ldr	r3, [pc, #156]	@ (8004be8 <setup_compass+0x270>)
 8004b4c:	685b      	ldr	r3, [r3, #4]
 8004b4e:	7818      	ldrb	r0, [r3, #0]
 8004b50:	4b25      	ldr	r3, [pc, #148]	@ (8004be8 <setup_compass+0x270>)
 8004b52:	681b      	ldr	r3, [r3, #0]
 8004b54:	f893 1022 	ldrb.w	r1, [r3, #34]	@ 0x22
 8004b58:	1d3b      	adds	r3, r7, #4
 8004b5a:	2201      	movs	r2, #1
 8004b5c:	f000 ff84 	bl	8005a68 <mpu9255_write>
 8004b60:	4603      	mov	r3, r0
 8004b62:	2b00      	cmp	r3, #0
 8004b64:	d002      	beq.n	8004b6c <setup_compass+0x1f4>
        return -1;
 8004b66:	f04f 33ff 	mov.w	r3, #4294967295
 8004b6a:	e039      	b.n	8004be0 <setup_compass+0x268>

    /* Enable slave 1, 1-byte writes. */
    data[0] = BIT_SLAVE_EN | 1;
 8004b6c:	2381      	movs	r3, #129	@ 0x81
 8004b6e:	713b      	strb	r3, [r7, #4]
    if (i2c_write(st.hw->addr, st.reg->s1_ctrl, 1, data))
 8004b70:	4b1d      	ldr	r3, [pc, #116]	@ (8004be8 <setup_compass+0x270>)
 8004b72:	685b      	ldr	r3, [r3, #4]
 8004b74:	7818      	ldrb	r0, [r3, #0]
 8004b76:	4b1c      	ldr	r3, [pc, #112]	@ (8004be8 <setup_compass+0x270>)
 8004b78:	681b      	ldr	r3, [r3, #0]
 8004b7a:	f893 1023 	ldrb.w	r1, [r3, #35]	@ 0x23
 8004b7e:	1d3b      	adds	r3, r7, #4
 8004b80:	2201      	movs	r2, #1
 8004b82:	f000 ff71 	bl	8005a68 <mpu9255_write>
 8004b86:	4603      	mov	r3, r0
 8004b88:	2b00      	cmp	r3, #0
 8004b8a:	d002      	beq.n	8004b92 <setup_compass+0x21a>
        return -1;
 8004b8c:	f04f 33ff 	mov.w	r3, #4294967295
 8004b90:	e026      	b.n	8004be0 <setup_compass+0x268>

    /* Set slave 1 data. */
    data[0] = AKM_SINGLE_MEASUREMENT;
 8004b92:	2311      	movs	r3, #17
 8004b94:	713b      	strb	r3, [r7, #4]
    if (i2c_write(st.hw->addr, st.reg->s1_do, 1, data))
 8004b96:	4b14      	ldr	r3, [pc, #80]	@ (8004be8 <setup_compass+0x270>)
 8004b98:	685b      	ldr	r3, [r3, #4]
 8004b9a:	7818      	ldrb	r0, [r3, #0]
 8004b9c:	4b12      	ldr	r3, [pc, #72]	@ (8004be8 <setup_compass+0x270>)
 8004b9e:	681b      	ldr	r3, [r3, #0]
 8004ba0:	f893 1026 	ldrb.w	r1, [r3, #38]	@ 0x26
 8004ba4:	1d3b      	adds	r3, r7, #4
 8004ba6:	2201      	movs	r2, #1
 8004ba8:	f000 ff5e 	bl	8005a68 <mpu9255_write>
 8004bac:	4603      	mov	r3, r0
 8004bae:	2b00      	cmp	r3, #0
 8004bb0:	d002      	beq.n	8004bb8 <setup_compass+0x240>
        return -1;
 8004bb2:	f04f 33ff 	mov.w	r3, #4294967295
 8004bb6:	e013      	b.n	8004be0 <setup_compass+0x268>

    /* Trigger slave 0 and slave 1 actions at each sample. */
    data[0] = 0x03;
 8004bb8:	2303      	movs	r3, #3
 8004bba:	713b      	strb	r3, [r7, #4]
    if (i2c_write(st.hw->addr, st.reg->i2c_delay_ctrl, 1, data))
 8004bbc:	4b0a      	ldr	r3, [pc, #40]	@ (8004be8 <setup_compass+0x270>)
 8004bbe:	685b      	ldr	r3, [r3, #4]
 8004bc0:	7818      	ldrb	r0, [r3, #0]
 8004bc2:	4b09      	ldr	r3, [pc, #36]	@ (8004be8 <setup_compass+0x270>)
 8004bc4:	681b      	ldr	r3, [r3, #0]
 8004bc6:	f893 1027 	ldrb.w	r1, [r3, #39]	@ 0x27
 8004bca:	1d3b      	adds	r3, r7, #4
 8004bcc:	2201      	movs	r2, #1
 8004bce:	f000 ff4b 	bl	8005a68 <mpu9255_write>
 8004bd2:	4603      	mov	r3, r0
 8004bd4:	2b00      	cmp	r3, #0
 8004bd6:	d002      	beq.n	8004bde <setup_compass+0x266>
        return -1;
 8004bd8:	f04f 33ff 	mov.w	r3, #4294967295
 8004bdc:	e000      	b.n	8004be0 <setup_compass+0x268>
    data[0] = BIT_I2C_MST_VDDIO;
    if (i2c_write(st.hw->addr, st.reg->yg_offs_tc, 1, data))
        return -1;
#endif

    return 0;
 8004bde:	2300      	movs	r3, #0
}
 8004be0:	4618      	mov	r0, r3
 8004be2:	3710      	adds	r7, #16
 8004be4:	46bd      	mov	sp, r7
 8004be6:	bd80      	pop	{r7, pc}
 8004be8:	20000010 	.word	0x20000010

08004bec <dmp_load_motion_driver_firmware>:
/**
 *  @brief  Load the DMP with this image.
 *  @return 0 if successful.
 */
int dmp_load_motion_driver_firmware(void)
{
 8004bec:	b580      	push	{r7, lr}
 8004bee:	af00      	add	r7, sp, #0
    return mpu_load_firmware(DMP_CODE_SIZE, dmp_memory, sStartAddress,
 8004bf0:	f44f 6280 	mov.w	r2, #1024	@ 0x400
 8004bf4:	23c8      	movs	r3, #200	@ 0xc8
 8004bf6:	4904      	ldr	r1, [pc, #16]	@ (8004c08 <dmp_load_motion_driver_firmware+0x1c>)
 8004bf8:	f640 30f6 	movw	r0, #3062	@ 0xbf6
 8004bfc:	f7ff fdea 	bl	80047d4 <mpu_load_firmware>
 8004c00:	4603      	mov	r3, r0
        DMP_SAMPLE_RATE);
}
 8004c02:	4618      	mov	r0, r3
 8004c04:	bd80      	pop	{r7, pc}
 8004c06:	bf00      	nop
 8004c08:	080075ac 	.word	0x080075ac

08004c0c <dmp_set_orientation>:
 *  @e inv_orientation_matrix_to_scalar.
 *  @param[in]  orient  Gyro and accel orientation in body frame.
 *  @return     0 if successful.
 */
int dmp_set_orientation(unsigned short orient)
{
 8004c0c:	b580      	push	{r7, lr}
 8004c0e:	b088      	sub	sp, #32
 8004c10:	af00      	add	r7, sp, #0
 8004c12:	4603      	mov	r3, r0
 8004c14:	80fb      	strh	r3, [r7, #6]
    unsigned char gyro_regs[3], accel_regs[3];
    const unsigned char gyro_axes[3] = {DINA4C, DINACD, DINA6C};
 8004c16:	4a6e      	ldr	r2, [pc, #440]	@ (8004dd0 <dmp_set_orientation+0x1c4>)
 8004c18:	f107 0314 	add.w	r3, r7, #20
 8004c1c:	6812      	ldr	r2, [r2, #0]
 8004c1e:	4611      	mov	r1, r2
 8004c20:	8019      	strh	r1, [r3, #0]
 8004c22:	3302      	adds	r3, #2
 8004c24:	0c12      	lsrs	r2, r2, #16
 8004c26:	701a      	strb	r2, [r3, #0]
    const unsigned char accel_axes[3] = {DINA0C, DINAC9, DINA2C};
 8004c28:	4a6a      	ldr	r2, [pc, #424]	@ (8004dd4 <dmp_set_orientation+0x1c8>)
 8004c2a:	f107 0310 	add.w	r3, r7, #16
 8004c2e:	6812      	ldr	r2, [r2, #0]
 8004c30:	4611      	mov	r1, r2
 8004c32:	8019      	strh	r1, [r3, #0]
 8004c34:	3302      	adds	r3, #2
 8004c36:	0c12      	lsrs	r2, r2, #16
 8004c38:	701a      	strb	r2, [r3, #0]
    const unsigned char gyro_sign[3] = {DINA36, DINA56, DINA76};
 8004c3a:	4a67      	ldr	r2, [pc, #412]	@ (8004dd8 <dmp_set_orientation+0x1cc>)
 8004c3c:	f107 030c 	add.w	r3, r7, #12
 8004c40:	6812      	ldr	r2, [r2, #0]
 8004c42:	4611      	mov	r1, r2
 8004c44:	8019      	strh	r1, [r3, #0]
 8004c46:	3302      	adds	r3, #2
 8004c48:	0c12      	lsrs	r2, r2, #16
 8004c4a:	701a      	strb	r2, [r3, #0]
    const unsigned char accel_sign[3] = {DINA26, DINA46, DINA66};
 8004c4c:	4a63      	ldr	r2, [pc, #396]	@ (8004ddc <dmp_set_orientation+0x1d0>)
 8004c4e:	f107 0308 	add.w	r3, r7, #8
 8004c52:	6812      	ldr	r2, [r2, #0]
 8004c54:	4611      	mov	r1, r2
 8004c56:	8019      	strh	r1, [r3, #0]
 8004c58:	3302      	adds	r3, #2
 8004c5a:	0c12      	lsrs	r2, r2, #16
 8004c5c:	701a      	strb	r2, [r3, #0]

    gyro_regs[0] = gyro_axes[orient & 3];
 8004c5e:	88fb      	ldrh	r3, [r7, #6]
 8004c60:	f003 0303 	and.w	r3, r3, #3
 8004c64:	3320      	adds	r3, #32
 8004c66:	443b      	add	r3, r7
 8004c68:	f813 3c0c 	ldrb.w	r3, [r3, #-12]
 8004c6c:	773b      	strb	r3, [r7, #28]
    gyro_regs[1] = gyro_axes[(orient >> 3) & 3];
 8004c6e:	88fb      	ldrh	r3, [r7, #6]
 8004c70:	08db      	lsrs	r3, r3, #3
 8004c72:	b29b      	uxth	r3, r3
 8004c74:	f003 0303 	and.w	r3, r3, #3
 8004c78:	3320      	adds	r3, #32
 8004c7a:	443b      	add	r3, r7
 8004c7c:	f813 3c0c 	ldrb.w	r3, [r3, #-12]
 8004c80:	777b      	strb	r3, [r7, #29]
    gyro_regs[2] = gyro_axes[(orient >> 6) & 3];
 8004c82:	88fb      	ldrh	r3, [r7, #6]
 8004c84:	099b      	lsrs	r3, r3, #6
 8004c86:	b29b      	uxth	r3, r3
 8004c88:	f003 0303 	and.w	r3, r3, #3
 8004c8c:	3320      	adds	r3, #32
 8004c8e:	443b      	add	r3, r7
 8004c90:	f813 3c0c 	ldrb.w	r3, [r3, #-12]
 8004c94:	77bb      	strb	r3, [r7, #30]
    accel_regs[0] = accel_axes[orient & 3];
 8004c96:	88fb      	ldrh	r3, [r7, #6]
 8004c98:	f003 0303 	and.w	r3, r3, #3
 8004c9c:	3320      	adds	r3, #32
 8004c9e:	443b      	add	r3, r7
 8004ca0:	f813 3c10 	ldrb.w	r3, [r3, #-16]
 8004ca4:	763b      	strb	r3, [r7, #24]
    accel_regs[1] = accel_axes[(orient >> 3) & 3];
 8004ca6:	88fb      	ldrh	r3, [r7, #6]
 8004ca8:	08db      	lsrs	r3, r3, #3
 8004caa:	b29b      	uxth	r3, r3
 8004cac:	f003 0303 	and.w	r3, r3, #3
 8004cb0:	3320      	adds	r3, #32
 8004cb2:	443b      	add	r3, r7
 8004cb4:	f813 3c10 	ldrb.w	r3, [r3, #-16]
 8004cb8:	767b      	strb	r3, [r7, #25]
    accel_regs[2] = accel_axes[(orient >> 6) & 3];
 8004cba:	88fb      	ldrh	r3, [r7, #6]
 8004cbc:	099b      	lsrs	r3, r3, #6
 8004cbe:	b29b      	uxth	r3, r3
 8004cc0:	f003 0303 	and.w	r3, r3, #3
 8004cc4:	3320      	adds	r3, #32
 8004cc6:	443b      	add	r3, r7
 8004cc8:	f813 3c10 	ldrb.w	r3, [r3, #-16]
 8004ccc:	76bb      	strb	r3, [r7, #26]

    /* Chip-to-body, axes only. */
    if (mpu_write_mem(FCFG_1, 3, gyro_regs))
 8004cce:	f107 031c 	add.w	r3, r7, #28
 8004cd2:	461a      	mov	r2, r3
 8004cd4:	2103      	movs	r1, #3
 8004cd6:	f240 4026 	movw	r0, #1062	@ 0x426
 8004cda:	f7ff fcd7 	bl	800468c <mpu_write_mem>
 8004cde:	4603      	mov	r3, r0
 8004ce0:	2b00      	cmp	r3, #0
 8004ce2:	d002      	beq.n	8004cea <dmp_set_orientation+0xde>
        return -1;
 8004ce4:	f04f 33ff 	mov.w	r3, #4294967295
 8004ce8:	e06e      	b.n	8004dc8 <dmp_set_orientation+0x1bc>
    if (mpu_write_mem(FCFG_2, 3, accel_regs))
 8004cea:	f107 0318 	add.w	r3, r7, #24
 8004cee:	461a      	mov	r2, r3
 8004cf0:	2103      	movs	r1, #3
 8004cf2:	f240 402a 	movw	r0, #1066	@ 0x42a
 8004cf6:	f7ff fcc9 	bl	800468c <mpu_write_mem>
 8004cfa:	4603      	mov	r3, r0
 8004cfc:	2b00      	cmp	r3, #0
 8004cfe:	d002      	beq.n	8004d06 <dmp_set_orientation+0xfa>
        return -1;
 8004d00:	f04f 33ff 	mov.w	r3, #4294967295
 8004d04:	e060      	b.n	8004dc8 <dmp_set_orientation+0x1bc>

    memcpy(gyro_regs, gyro_sign, 3);
 8004d06:	f107 031c 	add.w	r3, r7, #28
 8004d0a:	f107 020c 	add.w	r2, r7, #12
 8004d0e:	6812      	ldr	r2, [r2, #0]
 8004d10:	4611      	mov	r1, r2
 8004d12:	8019      	strh	r1, [r3, #0]
 8004d14:	3302      	adds	r3, #2
 8004d16:	0c12      	lsrs	r2, r2, #16
 8004d18:	701a      	strb	r2, [r3, #0]
    memcpy(accel_regs, accel_sign, 3);
 8004d1a:	f107 0318 	add.w	r3, r7, #24
 8004d1e:	f107 0208 	add.w	r2, r7, #8
 8004d22:	6812      	ldr	r2, [r2, #0]
 8004d24:	4611      	mov	r1, r2
 8004d26:	8019      	strh	r1, [r3, #0]
 8004d28:	3302      	adds	r3, #2
 8004d2a:	0c12      	lsrs	r2, r2, #16
 8004d2c:	701a      	strb	r2, [r3, #0]
    if (orient & 4) {
 8004d2e:	88fb      	ldrh	r3, [r7, #6]
 8004d30:	f003 0304 	and.w	r3, r3, #4
 8004d34:	2b00      	cmp	r3, #0
 8004d36:	d009      	beq.n	8004d4c <dmp_set_orientation+0x140>
        gyro_regs[0] |= 1;
 8004d38:	7f3b      	ldrb	r3, [r7, #28]
 8004d3a:	f043 0301 	orr.w	r3, r3, #1
 8004d3e:	b2db      	uxtb	r3, r3
 8004d40:	773b      	strb	r3, [r7, #28]
        accel_regs[0] |= 1;
 8004d42:	7e3b      	ldrb	r3, [r7, #24]
 8004d44:	f043 0301 	orr.w	r3, r3, #1
 8004d48:	b2db      	uxtb	r3, r3
 8004d4a:	763b      	strb	r3, [r7, #24]
    }
    if (orient & 0x20) {
 8004d4c:	88fb      	ldrh	r3, [r7, #6]
 8004d4e:	f003 0320 	and.w	r3, r3, #32
 8004d52:	2b00      	cmp	r3, #0
 8004d54:	d009      	beq.n	8004d6a <dmp_set_orientation+0x15e>
        gyro_regs[1] |= 1;
 8004d56:	7f7b      	ldrb	r3, [r7, #29]
 8004d58:	f043 0301 	orr.w	r3, r3, #1
 8004d5c:	b2db      	uxtb	r3, r3
 8004d5e:	777b      	strb	r3, [r7, #29]
        accel_regs[1] |= 1;
 8004d60:	7e7b      	ldrb	r3, [r7, #25]
 8004d62:	f043 0301 	orr.w	r3, r3, #1
 8004d66:	b2db      	uxtb	r3, r3
 8004d68:	767b      	strb	r3, [r7, #25]
    }
    if (orient & 0x100) {
 8004d6a:	88fb      	ldrh	r3, [r7, #6]
 8004d6c:	f403 7380 	and.w	r3, r3, #256	@ 0x100
 8004d70:	2b00      	cmp	r3, #0
 8004d72:	d009      	beq.n	8004d88 <dmp_set_orientation+0x17c>
        gyro_regs[2] |= 1;
 8004d74:	7fbb      	ldrb	r3, [r7, #30]
 8004d76:	f043 0301 	orr.w	r3, r3, #1
 8004d7a:	b2db      	uxtb	r3, r3
 8004d7c:	77bb      	strb	r3, [r7, #30]
        accel_regs[2] |= 1;
 8004d7e:	7ebb      	ldrb	r3, [r7, #26]
 8004d80:	f043 0301 	orr.w	r3, r3, #1
 8004d84:	b2db      	uxtb	r3, r3
 8004d86:	76bb      	strb	r3, [r7, #26]
    }

    /* Chip-to-body, sign only. */
    if (mpu_write_mem(FCFG_3, 3, gyro_regs))
 8004d88:	f107 031c 	add.w	r3, r7, #28
 8004d8c:	461a      	mov	r2, r3
 8004d8e:	2103      	movs	r1, #3
 8004d90:	f44f 6088 	mov.w	r0, #1088	@ 0x440
 8004d94:	f7ff fc7a 	bl	800468c <mpu_write_mem>
 8004d98:	4603      	mov	r3, r0
 8004d9a:	2b00      	cmp	r3, #0
 8004d9c:	d002      	beq.n	8004da4 <dmp_set_orientation+0x198>
        return -1;
 8004d9e:	f04f 33ff 	mov.w	r3, #4294967295
 8004da2:	e011      	b.n	8004dc8 <dmp_set_orientation+0x1bc>
    if (mpu_write_mem(FCFG_7, 3, accel_regs))
 8004da4:	f107 0318 	add.w	r3, r7, #24
 8004da8:	461a      	mov	r2, r3
 8004daa:	2103      	movs	r1, #3
 8004dac:	f240 4031 	movw	r0, #1073	@ 0x431
 8004db0:	f7ff fc6c 	bl	800468c <mpu_write_mem>
 8004db4:	4603      	mov	r3, r0
 8004db6:	2b00      	cmp	r3, #0
 8004db8:	d002      	beq.n	8004dc0 <dmp_set_orientation+0x1b4>
        return -1;
 8004dba:	f04f 33ff 	mov.w	r3, #4294967295
 8004dbe:	e003      	b.n	8004dc8 <dmp_set_orientation+0x1bc>
    dmp.orient = orient;
 8004dc0:	4a07      	ldr	r2, [pc, #28]	@ (8004de0 <dmp_set_orientation+0x1d4>)
 8004dc2:	88fb      	ldrh	r3, [r7, #6]
 8004dc4:	8113      	strh	r3, [r2, #8]
    return 0;
 8004dc6:	2300      	movs	r3, #0
}
 8004dc8:	4618      	mov	r0, r3
 8004dca:	3720      	adds	r7, #32
 8004dcc:	46bd      	mov	sp, r7
 8004dce:	bd80      	pop	{r7, pc}
 8004dd0:	080074a0 	.word	0x080074a0
 8004dd4:	080074a4 	.word	0x080074a4
 8004dd8:	080074a8 	.word	0x080074a8
 8004ddc:	080074ac 	.word	0x080074ac
 8004de0:	2000040c 	.word	0x2000040c

08004de4 <dmp_set_fifo_rate>:
 *  Only used when DMP is on.
 *  @param[in]  rate    Desired fifo rate (Hz).
 *  @return     0 if successful.
 */
int dmp_set_fifo_rate(unsigned short rate)
{
 8004de4:	b580      	push	{r7, lr}
 8004de6:	b088      	sub	sp, #32
 8004de8:	af00      	add	r7, sp, #0
 8004dea:	4603      	mov	r3, r0
 8004dec:	80fb      	strh	r3, [r7, #6]
    const unsigned char regs_end[12] = {DINAFE, DINAF2, DINAAB,
 8004dee:	4a1f      	ldr	r2, [pc, #124]	@ (8004e6c <dmp_set_fifo_rate+0x88>)
 8004df0:	f107 0310 	add.w	r3, r7, #16
 8004df4:	ca07      	ldmia	r2, {r0, r1, r2}
 8004df6:	e883 0007 	stmia.w	r3, {r0, r1, r2}
        0xc4, DINAAA, DINAF1, DINADF, DINADF, 0xBB, 0xAF, DINADF, DINADF};
    unsigned short div;
    unsigned char tmp[8];

    if (rate > DMP_SAMPLE_RATE)
 8004dfa:	88fb      	ldrh	r3, [r7, #6]
 8004dfc:	2bc8      	cmp	r3, #200	@ 0xc8
 8004dfe:	d902      	bls.n	8004e06 <dmp_set_fifo_rate+0x22>
        return -1;
 8004e00:	f04f 33ff 	mov.w	r3, #4294967295
 8004e04:	e02e      	b.n	8004e64 <dmp_set_fifo_rate+0x80>
    div = DMP_SAMPLE_RATE / rate - 1;
 8004e06:	88fb      	ldrh	r3, [r7, #6]
 8004e08:	22c8      	movs	r2, #200	@ 0xc8
 8004e0a:	fb92 f3f3 	sdiv	r3, r2, r3
 8004e0e:	b29b      	uxth	r3, r3
 8004e10:	3b01      	subs	r3, #1
 8004e12:	83fb      	strh	r3, [r7, #30]
    tmp[0] = (unsigned char)((div >> 8) & 0xFF);
 8004e14:	8bfb      	ldrh	r3, [r7, #30]
 8004e16:	0a1b      	lsrs	r3, r3, #8
 8004e18:	b29b      	uxth	r3, r3
 8004e1a:	b2db      	uxtb	r3, r3
 8004e1c:	723b      	strb	r3, [r7, #8]
    tmp[1] = (unsigned char)(div & 0xFF);
 8004e1e:	8bfb      	ldrh	r3, [r7, #30]
 8004e20:	b2db      	uxtb	r3, r3
 8004e22:	727b      	strb	r3, [r7, #9]
    if (mpu_write_mem(D_0_22, 2, tmp))
 8004e24:	f107 0308 	add.w	r3, r7, #8
 8004e28:	461a      	mov	r2, r3
 8004e2a:	2102      	movs	r1, #2
 8004e2c:	f240 2016 	movw	r0, #534	@ 0x216
 8004e30:	f7ff fc2c 	bl	800468c <mpu_write_mem>
 8004e34:	4603      	mov	r3, r0
 8004e36:	2b00      	cmp	r3, #0
 8004e38:	d002      	beq.n	8004e40 <dmp_set_fifo_rate+0x5c>
        return -1;
 8004e3a:	f04f 33ff 	mov.w	r3, #4294967295
 8004e3e:	e011      	b.n	8004e64 <dmp_set_fifo_rate+0x80>
    if (mpu_write_mem(CFG_6, 12, (unsigned char*)regs_end))
 8004e40:	f107 0310 	add.w	r3, r7, #16
 8004e44:	461a      	mov	r2, r3
 8004e46:	210c      	movs	r1, #12
 8004e48:	f640 20c1 	movw	r0, #2753	@ 0xac1
 8004e4c:	f7ff fc1e 	bl	800468c <mpu_write_mem>
 8004e50:	4603      	mov	r3, r0
 8004e52:	2b00      	cmp	r3, #0
 8004e54:	d002      	beq.n	8004e5c <dmp_set_fifo_rate+0x78>
        return -1;
 8004e56:	f04f 33ff 	mov.w	r3, #4294967295
 8004e5a:	e003      	b.n	8004e64 <dmp_set_fifo_rate+0x80>

    dmp.fifo_rate = rate;
 8004e5c:	4a04      	ldr	r2, [pc, #16]	@ (8004e70 <dmp_set_fifo_rate+0x8c>)
 8004e5e:	88fb      	ldrh	r3, [r7, #6]
 8004e60:	8193      	strh	r3, [r2, #12]
    return 0;
 8004e62:	2300      	movs	r3, #0
}
 8004e64:	4618      	mov	r0, r3
 8004e66:	3720      	adds	r7, #32
 8004e68:	46bd      	mov	sp, r7
 8004e6a:	bd80      	pop	{r7, pc}
 8004e6c:	080074b0 	.word	0x080074b0
 8004e70:	2000040c 	.word	0x2000040c

08004e74 <dmp_set_tap_thresh>:
 *  @param[in]  axis    1, 2, and 4 for XYZ accel, respectively.
 *  @param[in]  thresh  Tap threshold, in mg/ms.
 *  @return     0 if successful.
 */
int dmp_set_tap_thresh(unsigned char axis, unsigned short thresh)
{
 8004e74:	b580      	push	{r7, lr}
 8004e76:	b086      	sub	sp, #24
 8004e78:	af00      	add	r7, sp, #0
 8004e7a:	4603      	mov	r3, r0
 8004e7c:	460a      	mov	r2, r1
 8004e7e:	71fb      	strb	r3, [r7, #7]
 8004e80:	4613      	mov	r3, r2
 8004e82:	80bb      	strh	r3, [r7, #4]
    unsigned char tmp[4], accel_fsr;
    float scaled_thresh;
    unsigned short dmp_thresh, dmp_thresh_2;
    if (!(axis & TAP_XYZ) || thresh > 1600)
 8004e84:	79fb      	ldrb	r3, [r7, #7]
 8004e86:	f003 0307 	and.w	r3, r3, #7
 8004e8a:	2b00      	cmp	r3, #0
 8004e8c:	d003      	beq.n	8004e96 <dmp_set_tap_thresh+0x22>
 8004e8e:	88bb      	ldrh	r3, [r7, #4]
 8004e90:	f5b3 6fc8 	cmp.w	r3, #1600	@ 0x640
 8004e94:	d902      	bls.n	8004e9c <dmp_set_tap_thresh+0x28>
        return -1;
 8004e96:	f04f 33ff 	mov.w	r3, #4294967295
 8004e9a:	e10b      	b.n	80050b4 <dmp_set_tap_thresh+0x240>

    scaled_thresh = (float)thresh / DMP_SAMPLE_RATE;
 8004e9c:	88bb      	ldrh	r3, [r7, #4]
 8004e9e:	ee07 3a90 	vmov	s15, r3
 8004ea2:	eeb8 7a67 	vcvt.f32.u32	s14, s15
 8004ea6:	eddf 6a85 	vldr	s13, [pc, #532]	@ 80050bc <dmp_set_tap_thresh+0x248>
 8004eaa:	eec7 7a26 	vdiv.f32	s15, s14, s13
 8004eae:	edc7 7a04 	vstr	s15, [r7, #16]

    mpu_get_accel_fsr(&accel_fsr);
 8004eb2:	f107 030b 	add.w	r3, r7, #11
 8004eb6:	4618      	mov	r0, r3
 8004eb8:	f7fe ff92 	bl	8003de0 <mpu_get_accel_fsr>
    switch (accel_fsr) {
 8004ebc:	7afb      	ldrb	r3, [r7, #11]
 8004ebe:	3b02      	subs	r3, #2
 8004ec0:	2b0e      	cmp	r3, #14
 8004ec2:	d87d      	bhi.n	8004fc0 <dmp_set_tap_thresh+0x14c>
 8004ec4:	a201      	add	r2, pc, #4	@ (adr r2, 8004ecc <dmp_set_tap_thresh+0x58>)
 8004ec6:	f852 f023 	ldr.w	pc, [r2, r3, lsl #2]
 8004eca:	bf00      	nop
 8004ecc:	08004f09 	.word	0x08004f09
 8004ed0:	08004fc1 	.word	0x08004fc1
 8004ed4:	08004f37 	.word	0x08004f37
 8004ed8:	08004fc1 	.word	0x08004fc1
 8004edc:	08004fc1 	.word	0x08004fc1
 8004ee0:	08004fc1 	.word	0x08004fc1
 8004ee4:	08004f65 	.word	0x08004f65
 8004ee8:	08004fc1 	.word	0x08004fc1
 8004eec:	08004fc1 	.word	0x08004fc1
 8004ef0:	08004fc1 	.word	0x08004fc1
 8004ef4:	08004fc1 	.word	0x08004fc1
 8004ef8:	08004fc1 	.word	0x08004fc1
 8004efc:	08004fc1 	.word	0x08004fc1
 8004f00:	08004fc1 	.word	0x08004fc1
 8004f04:	08004f93 	.word	0x08004f93
    case 2:
        dmp_thresh = (unsigned short)(scaled_thresh * 16384);
 8004f08:	edd7 7a04 	vldr	s15, [r7, #16]
 8004f0c:	ed9f 7a6c 	vldr	s14, [pc, #432]	@ 80050c0 <dmp_set_tap_thresh+0x24c>
 8004f10:	ee67 7a87 	vmul.f32	s15, s15, s14
 8004f14:	eefc 7ae7 	vcvt.u32.f32	s15, s15
 8004f18:	ee17 3a90 	vmov	r3, s15
 8004f1c:	82fb      	strh	r3, [r7, #22]
        /* dmp_thresh * 0.75 */
        dmp_thresh_2 = (unsigned short)(scaled_thresh * 12288);
 8004f1e:	edd7 7a04 	vldr	s15, [r7, #16]
 8004f22:	ed9f 7a68 	vldr	s14, [pc, #416]	@ 80050c4 <dmp_set_tap_thresh+0x250>
 8004f26:	ee67 7a87 	vmul.f32	s15, s15, s14
 8004f2a:	eefc 7ae7 	vcvt.u32.f32	s15, s15
 8004f2e:	ee17 3a90 	vmov	r3, s15
 8004f32:	82bb      	strh	r3, [r7, #20]
        break;
 8004f34:	e047      	b.n	8004fc6 <dmp_set_tap_thresh+0x152>
    case 4:
        dmp_thresh = (unsigned short)(scaled_thresh * 8192);
 8004f36:	edd7 7a04 	vldr	s15, [r7, #16]
 8004f3a:	ed9f 7a63 	vldr	s14, [pc, #396]	@ 80050c8 <dmp_set_tap_thresh+0x254>
 8004f3e:	ee67 7a87 	vmul.f32	s15, s15, s14
 8004f42:	eefc 7ae7 	vcvt.u32.f32	s15, s15
 8004f46:	ee17 3a90 	vmov	r3, s15
 8004f4a:	82fb      	strh	r3, [r7, #22]
        /* dmp_thresh * 0.75 */
        dmp_thresh_2 = (unsigned short)(scaled_thresh * 6144);
 8004f4c:	edd7 7a04 	vldr	s15, [r7, #16]
 8004f50:	ed9f 7a5e 	vldr	s14, [pc, #376]	@ 80050cc <dmp_set_tap_thresh+0x258>
 8004f54:	ee67 7a87 	vmul.f32	s15, s15, s14
 8004f58:	eefc 7ae7 	vcvt.u32.f32	s15, s15
 8004f5c:	ee17 3a90 	vmov	r3, s15
 8004f60:	82bb      	strh	r3, [r7, #20]
        break;
 8004f62:	e030      	b.n	8004fc6 <dmp_set_tap_thresh+0x152>
    case 8:
        dmp_thresh = (unsigned short)(scaled_thresh * 4096);
 8004f64:	edd7 7a04 	vldr	s15, [r7, #16]
 8004f68:	ed9f 7a59 	vldr	s14, [pc, #356]	@ 80050d0 <dmp_set_tap_thresh+0x25c>
 8004f6c:	ee67 7a87 	vmul.f32	s15, s15, s14
 8004f70:	eefc 7ae7 	vcvt.u32.f32	s15, s15
 8004f74:	ee17 3a90 	vmov	r3, s15
 8004f78:	82fb      	strh	r3, [r7, #22]
        /* dmp_thresh * 0.75 */
        dmp_thresh_2 = (unsigned short)(scaled_thresh * 3072);
 8004f7a:	edd7 7a04 	vldr	s15, [r7, #16]
 8004f7e:	ed9f 7a55 	vldr	s14, [pc, #340]	@ 80050d4 <dmp_set_tap_thresh+0x260>
 8004f82:	ee67 7a87 	vmul.f32	s15, s15, s14
 8004f86:	eefc 7ae7 	vcvt.u32.f32	s15, s15
 8004f8a:	ee17 3a90 	vmov	r3, s15
 8004f8e:	82bb      	strh	r3, [r7, #20]
        break;
 8004f90:	e019      	b.n	8004fc6 <dmp_set_tap_thresh+0x152>
    case 16:
        dmp_thresh = (unsigned short)(scaled_thresh * 2048);
 8004f92:	edd7 7a04 	vldr	s15, [r7, #16]
 8004f96:	ed9f 7a50 	vldr	s14, [pc, #320]	@ 80050d8 <dmp_set_tap_thresh+0x264>
 8004f9a:	ee67 7a87 	vmul.f32	s15, s15, s14
 8004f9e:	eefc 7ae7 	vcvt.u32.f32	s15, s15
 8004fa2:	ee17 3a90 	vmov	r3, s15
 8004fa6:	82fb      	strh	r3, [r7, #22]
        /* dmp_thresh * 0.75 */
        dmp_thresh_2 = (unsigned short)(scaled_thresh * 1536);
 8004fa8:	edd7 7a04 	vldr	s15, [r7, #16]
 8004fac:	ed9f 7a4b 	vldr	s14, [pc, #300]	@ 80050dc <dmp_set_tap_thresh+0x268>
 8004fb0:	ee67 7a87 	vmul.f32	s15, s15, s14
 8004fb4:	eefc 7ae7 	vcvt.u32.f32	s15, s15
 8004fb8:	ee17 3a90 	vmov	r3, s15
 8004fbc:	82bb      	strh	r3, [r7, #20]
        break;
 8004fbe:	e002      	b.n	8004fc6 <dmp_set_tap_thresh+0x152>
    default:
        return -1;
 8004fc0:	f04f 33ff 	mov.w	r3, #4294967295
 8004fc4:	e076      	b.n	80050b4 <dmp_set_tap_thresh+0x240>
    }
    tmp[0] = (unsigned char)(dmp_thresh >> 8);
 8004fc6:	8afb      	ldrh	r3, [r7, #22]
 8004fc8:	0a1b      	lsrs	r3, r3, #8
 8004fca:	b29b      	uxth	r3, r3
 8004fcc:	b2db      	uxtb	r3, r3
 8004fce:	733b      	strb	r3, [r7, #12]
    tmp[1] = (unsigned char)(dmp_thresh & 0xFF);
 8004fd0:	8afb      	ldrh	r3, [r7, #22]
 8004fd2:	b2db      	uxtb	r3, r3
 8004fd4:	737b      	strb	r3, [r7, #13]
    tmp[2] = (unsigned char)(dmp_thresh_2 >> 8);
 8004fd6:	8abb      	ldrh	r3, [r7, #20]
 8004fd8:	0a1b      	lsrs	r3, r3, #8
 8004fda:	b29b      	uxth	r3, r3
 8004fdc:	b2db      	uxtb	r3, r3
 8004fde:	73bb      	strb	r3, [r7, #14]
    tmp[3] = (unsigned char)(dmp_thresh_2 & 0xFF);
 8004fe0:	8abb      	ldrh	r3, [r7, #20]
 8004fe2:	b2db      	uxtb	r3, r3
 8004fe4:	73fb      	strb	r3, [r7, #15]

    if (axis & TAP_X) {
 8004fe6:	79fb      	ldrb	r3, [r7, #7]
 8004fe8:	f003 0301 	and.w	r3, r3, #1
 8004fec:	2b00      	cmp	r3, #0
 8004fee:	d01c      	beq.n	800502a <dmp_set_tap_thresh+0x1b6>
        if (mpu_write_mem(DMP_TAP_THX, 2, tmp))
 8004ff0:	f107 030c 	add.w	r3, r7, #12
 8004ff4:	461a      	mov	r2, r3
 8004ff6:	2102      	movs	r1, #2
 8004ff8:	f44f 70ea 	mov.w	r0, #468	@ 0x1d4
 8004ffc:	f7ff fb46 	bl	800468c <mpu_write_mem>
 8005000:	4603      	mov	r3, r0
 8005002:	2b00      	cmp	r3, #0
 8005004:	d002      	beq.n	800500c <dmp_set_tap_thresh+0x198>
            return -1;
 8005006:	f04f 33ff 	mov.w	r3, #4294967295
 800500a:	e053      	b.n	80050b4 <dmp_set_tap_thresh+0x240>
        if (mpu_write_mem(D_1_36, 2, tmp+2))
 800500c:	f107 030c 	add.w	r3, r7, #12
 8005010:	3302      	adds	r3, #2
 8005012:	461a      	mov	r2, r3
 8005014:	2102      	movs	r1, #2
 8005016:	f44f 7092 	mov.w	r0, #292	@ 0x124
 800501a:	f7ff fb37 	bl	800468c <mpu_write_mem>
 800501e:	4603      	mov	r3, r0
 8005020:	2b00      	cmp	r3, #0
 8005022:	d002      	beq.n	800502a <dmp_set_tap_thresh+0x1b6>
            return -1;
 8005024:	f04f 33ff 	mov.w	r3, #4294967295
 8005028:	e044      	b.n	80050b4 <dmp_set_tap_thresh+0x240>
    }
    if (axis & TAP_Y) {
 800502a:	79fb      	ldrb	r3, [r7, #7]
 800502c:	f003 0302 	and.w	r3, r3, #2
 8005030:	2b00      	cmp	r3, #0
 8005032:	d01c      	beq.n	800506e <dmp_set_tap_thresh+0x1fa>
        if (mpu_write_mem(DMP_TAP_THY, 2, tmp))
 8005034:	f107 030c 	add.w	r3, r7, #12
 8005038:	461a      	mov	r2, r3
 800503a:	2102      	movs	r1, #2
 800503c:	f44f 70ec 	mov.w	r0, #472	@ 0x1d8
 8005040:	f7ff fb24 	bl	800468c <mpu_write_mem>
 8005044:	4603      	mov	r3, r0
 8005046:	2b00      	cmp	r3, #0
 8005048:	d002      	beq.n	8005050 <dmp_set_tap_thresh+0x1dc>
            return -1;
 800504a:	f04f 33ff 	mov.w	r3, #4294967295
 800504e:	e031      	b.n	80050b4 <dmp_set_tap_thresh+0x240>
        if (mpu_write_mem(D_1_40, 2, tmp+2))
 8005050:	f107 030c 	add.w	r3, r7, #12
 8005054:	3302      	adds	r3, #2
 8005056:	461a      	mov	r2, r3
 8005058:	2102      	movs	r1, #2
 800505a:	f44f 7094 	mov.w	r0, #296	@ 0x128
 800505e:	f7ff fb15 	bl	800468c <mpu_write_mem>
 8005062:	4603      	mov	r3, r0
 8005064:	2b00      	cmp	r3, #0
 8005066:	d002      	beq.n	800506e <dmp_set_tap_thresh+0x1fa>
            return -1;
 8005068:	f04f 33ff 	mov.w	r3, #4294967295
 800506c:	e022      	b.n	80050b4 <dmp_set_tap_thresh+0x240>
    }
    if (axis & TAP_Z) {
 800506e:	79fb      	ldrb	r3, [r7, #7]
 8005070:	f003 0304 	and.w	r3, r3, #4
 8005074:	2b00      	cmp	r3, #0
 8005076:	d01c      	beq.n	80050b2 <dmp_set_tap_thresh+0x23e>
        if (mpu_write_mem(DMP_TAP_THZ, 2, tmp))
 8005078:	f107 030c 	add.w	r3, r7, #12
 800507c:	461a      	mov	r2, r3
 800507e:	2102      	movs	r1, #2
 8005080:	f44f 70ee 	mov.w	r0, #476	@ 0x1dc
 8005084:	f7ff fb02 	bl	800468c <mpu_write_mem>
 8005088:	4603      	mov	r3, r0
 800508a:	2b00      	cmp	r3, #0
 800508c:	d002      	beq.n	8005094 <dmp_set_tap_thresh+0x220>
            return -1;
 800508e:	f04f 33ff 	mov.w	r3, #4294967295
 8005092:	e00f      	b.n	80050b4 <dmp_set_tap_thresh+0x240>
        if (mpu_write_mem(D_1_44, 2, tmp+2))
 8005094:	f107 030c 	add.w	r3, r7, #12
 8005098:	3302      	adds	r3, #2
 800509a:	461a      	mov	r2, r3
 800509c:	2102      	movs	r1, #2
 800509e:	f44f 7096 	mov.w	r0, #300	@ 0x12c
 80050a2:	f7ff faf3 	bl	800468c <mpu_write_mem>
 80050a6:	4603      	mov	r3, r0
 80050a8:	2b00      	cmp	r3, #0
 80050aa:	d002      	beq.n	80050b2 <dmp_set_tap_thresh+0x23e>
            return -1;
 80050ac:	f04f 33ff 	mov.w	r3, #4294967295
 80050b0:	e000      	b.n	80050b4 <dmp_set_tap_thresh+0x240>
    }
    return 0;
 80050b2:	2300      	movs	r3, #0
}
 80050b4:	4618      	mov	r0, r3
 80050b6:	3718      	adds	r7, #24
 80050b8:	46bd      	mov	sp, r7
 80050ba:	bd80      	pop	{r7, pc}
 80050bc:	43480000 	.word	0x43480000
 80050c0:	46800000 	.word	0x46800000
 80050c4:	46400000 	.word	0x46400000
 80050c8:	46000000 	.word	0x46000000
 80050cc:	45c00000 	.word	0x45c00000
 80050d0:	45800000 	.word	0x45800000
 80050d4:	45400000 	.word	0x45400000
 80050d8:	45000000 	.word	0x45000000
 80050dc:	44c00000 	.word	0x44c00000

080050e0 <dmp_set_tap_axes>:
 *  @brief      Set which axes will register a tap.
 *  @param[in]  axis    1, 2, and 4 for XYZ, respectively.
 *  @return     0 if successful.
 */
int dmp_set_tap_axes(unsigned char axis)
{
 80050e0:	b580      	push	{r7, lr}
 80050e2:	b084      	sub	sp, #16
 80050e4:	af00      	add	r7, sp, #0
 80050e6:	4603      	mov	r3, r0
 80050e8:	71fb      	strb	r3, [r7, #7]
    unsigned char tmp = 0;
 80050ea:	2300      	movs	r3, #0
 80050ec:	73fb      	strb	r3, [r7, #15]

    if (axis & TAP_X)
 80050ee:	79fb      	ldrb	r3, [r7, #7]
 80050f0:	f003 0301 	and.w	r3, r3, #1
 80050f4:	2b00      	cmp	r3, #0
 80050f6:	d004      	beq.n	8005102 <dmp_set_tap_axes+0x22>
        tmp |= 0x30;
 80050f8:	7bfb      	ldrb	r3, [r7, #15]
 80050fa:	f043 0330 	orr.w	r3, r3, #48	@ 0x30
 80050fe:	b2db      	uxtb	r3, r3
 8005100:	73fb      	strb	r3, [r7, #15]
    if (axis & TAP_Y)
 8005102:	79fb      	ldrb	r3, [r7, #7]
 8005104:	f003 0302 	and.w	r3, r3, #2
 8005108:	2b00      	cmp	r3, #0
 800510a:	d004      	beq.n	8005116 <dmp_set_tap_axes+0x36>
        tmp |= 0x0C;
 800510c:	7bfb      	ldrb	r3, [r7, #15]
 800510e:	f043 030c 	orr.w	r3, r3, #12
 8005112:	b2db      	uxtb	r3, r3
 8005114:	73fb      	strb	r3, [r7, #15]
    if (axis & TAP_Z)
 8005116:	79fb      	ldrb	r3, [r7, #7]
 8005118:	f003 0304 	and.w	r3, r3, #4
 800511c:	2b00      	cmp	r3, #0
 800511e:	d004      	beq.n	800512a <dmp_set_tap_axes+0x4a>
        tmp |= 0x03;
 8005120:	7bfb      	ldrb	r3, [r7, #15]
 8005122:	f043 0303 	orr.w	r3, r3, #3
 8005126:	b2db      	uxtb	r3, r3
 8005128:	73fb      	strb	r3, [r7, #15]
    return mpu_write_mem(D_1_72, 1, &tmp);
 800512a:	f107 030f 	add.w	r3, r7, #15
 800512e:	461a      	mov	r2, r3
 8005130:	2101      	movs	r1, #1
 8005132:	f44f 70a4 	mov.w	r0, #328	@ 0x148
 8005136:	f7ff faa9 	bl	800468c <mpu_write_mem>
 800513a:	4603      	mov	r3, r0
}
 800513c:	4618      	mov	r0, r3
 800513e:	3710      	adds	r7, #16
 8005140:	46bd      	mov	sp, r7
 8005142:	bd80      	pop	{r7, pc}

08005144 <dmp_set_tap_count>:
 *  @brief      Set minimum number of taps needed for an interrupt.
 *  @param[in]  min_taps    Minimum consecutive taps (1-4).
 *  @return     0 if successful.
 */
int dmp_set_tap_count(unsigned char min_taps)
{
 8005144:	b580      	push	{r7, lr}
 8005146:	b084      	sub	sp, #16
 8005148:	af00      	add	r7, sp, #0
 800514a:	4603      	mov	r3, r0
 800514c:	71fb      	strb	r3, [r7, #7]
    unsigned char tmp;

    if (min_taps < 1)
 800514e:	79fb      	ldrb	r3, [r7, #7]
 8005150:	2b00      	cmp	r3, #0
 8005152:	d102      	bne.n	800515a <dmp_set_tap_count+0x16>
        min_taps = 1;
 8005154:	2301      	movs	r3, #1
 8005156:	71fb      	strb	r3, [r7, #7]
 8005158:	e004      	b.n	8005164 <dmp_set_tap_count+0x20>
    else if (min_taps > 4)
 800515a:	79fb      	ldrb	r3, [r7, #7]
 800515c:	2b04      	cmp	r3, #4
 800515e:	d901      	bls.n	8005164 <dmp_set_tap_count+0x20>
        min_taps = 4;
 8005160:	2304      	movs	r3, #4
 8005162:	71fb      	strb	r3, [r7, #7]

    tmp = min_taps - 1;
 8005164:	79fb      	ldrb	r3, [r7, #7]
 8005166:	3b01      	subs	r3, #1
 8005168:	b2db      	uxtb	r3, r3
 800516a:	73fb      	strb	r3, [r7, #15]
    return mpu_write_mem(D_1_79, 1, &tmp);
 800516c:	f107 030f 	add.w	r3, r7, #15
 8005170:	461a      	mov	r2, r3
 8005172:	2101      	movs	r1, #1
 8005174:	f240 104f 	movw	r0, #335	@ 0x14f
 8005178:	f7ff fa88 	bl	800468c <mpu_write_mem>
 800517c:	4603      	mov	r3, r0
}
 800517e:	4618      	mov	r0, r3
 8005180:	3710      	adds	r7, #16
 8005182:	46bd      	mov	sp, r7
 8005184:	bd80      	pop	{r7, pc}
	...

08005188 <dmp_set_tap_time>:
 *  @brief      Set length between valid taps.
 *  @param[in]  time    Milliseconds between taps.
 *  @return     0 if successful.
 */
int dmp_set_tap_time(unsigned short time)
{
 8005188:	b580      	push	{r7, lr}
 800518a:	b084      	sub	sp, #16
 800518c:	af00      	add	r7, sp, #0
 800518e:	4603      	mov	r3, r0
 8005190:	80fb      	strh	r3, [r7, #6]
    unsigned short dmp_time;
    unsigned char tmp[2];

    dmp_time = time / (1000 / DMP_SAMPLE_RATE);
 8005192:	88fb      	ldrh	r3, [r7, #6]
 8005194:	4a0c      	ldr	r2, [pc, #48]	@ (80051c8 <dmp_set_tap_time+0x40>)
 8005196:	fba2 2303 	umull	r2, r3, r2, r3
 800519a:	089b      	lsrs	r3, r3, #2
 800519c:	81fb      	strh	r3, [r7, #14]
    tmp[0] = (unsigned char)(dmp_time >> 8);
 800519e:	89fb      	ldrh	r3, [r7, #14]
 80051a0:	0a1b      	lsrs	r3, r3, #8
 80051a2:	b29b      	uxth	r3, r3
 80051a4:	b2db      	uxtb	r3, r3
 80051a6:	733b      	strb	r3, [r7, #12]
    tmp[1] = (unsigned char)(dmp_time & 0xFF);
 80051a8:	89fb      	ldrh	r3, [r7, #14]
 80051aa:	b2db      	uxtb	r3, r3
 80051ac:	737b      	strb	r3, [r7, #13]
    return mpu_write_mem(DMP_TAPW_MIN, 2, tmp);
 80051ae:	f107 030c 	add.w	r3, r7, #12
 80051b2:	461a      	mov	r2, r3
 80051b4:	2102      	movs	r1, #2
 80051b6:	f44f 70ef 	mov.w	r0, #478	@ 0x1de
 80051ba:	f7ff fa67 	bl	800468c <mpu_write_mem>
 80051be:	4603      	mov	r3, r0
}
 80051c0:	4618      	mov	r0, r3
 80051c2:	3710      	adds	r7, #16
 80051c4:	46bd      	mov	sp, r7
 80051c6:	bd80      	pop	{r7, pc}
 80051c8:	cccccccd 	.word	0xcccccccd

080051cc <dmp_set_tap_time_multi>:
 *  @brief      Set max time between taps to register as a multi-tap.
 *  @param[in]  time    Max milliseconds between taps.
 *  @return     0 if successful.
 */
int dmp_set_tap_time_multi(unsigned short time)
{
 80051cc:	b580      	push	{r7, lr}
 80051ce:	b084      	sub	sp, #16
 80051d0:	af00      	add	r7, sp, #0
 80051d2:	4603      	mov	r3, r0
 80051d4:	80fb      	strh	r3, [r7, #6]
    unsigned short dmp_time;
    unsigned char tmp[2];

    dmp_time = time / (1000 / DMP_SAMPLE_RATE);
 80051d6:	88fb      	ldrh	r3, [r7, #6]
 80051d8:	4a0c      	ldr	r2, [pc, #48]	@ (800520c <dmp_set_tap_time_multi+0x40>)
 80051da:	fba2 2303 	umull	r2, r3, r2, r3
 80051de:	089b      	lsrs	r3, r3, #2
 80051e0:	81fb      	strh	r3, [r7, #14]
    tmp[0] = (unsigned char)(dmp_time >> 8);
 80051e2:	89fb      	ldrh	r3, [r7, #14]
 80051e4:	0a1b      	lsrs	r3, r3, #8
 80051e6:	b29b      	uxth	r3, r3
 80051e8:	b2db      	uxtb	r3, r3
 80051ea:	733b      	strb	r3, [r7, #12]
    tmp[1] = (unsigned char)(dmp_time & 0xFF);
 80051ec:	89fb      	ldrh	r3, [r7, #14]
 80051ee:	b2db      	uxtb	r3, r3
 80051f0:	737b      	strb	r3, [r7, #13]
    return mpu_write_mem(D_1_218, 2, tmp);
 80051f2:	f107 030c 	add.w	r3, r7, #12
 80051f6:	461a      	mov	r2, r3
 80051f8:	2102      	movs	r1, #2
 80051fa:	f44f 70ed 	mov.w	r0, #474	@ 0x1da
 80051fe:	f7ff fa45 	bl	800468c <mpu_write_mem>
 8005202:	4603      	mov	r3, r0
}
 8005204:	4618      	mov	r0, r3
 8005206:	3710      	adds	r7, #16
 8005208:	46bd      	mov	sp, r7
 800520a:	bd80      	pop	{r7, pc}
 800520c:	cccccccd 	.word	0xcccccccd

08005210 <dmp_set_shake_reject_thresh>:
 *  @param[in]  sf      Gyro scale factor.
 *  @param[in]  thresh  Gyro threshold in dps.
 *  @return     0 if successful.
 */
int dmp_set_shake_reject_thresh(long sf, unsigned short thresh)
{
 8005210:	b580      	push	{r7, lr}
 8005212:	b084      	sub	sp, #16
 8005214:	af00      	add	r7, sp, #0
 8005216:	6078      	str	r0, [r7, #4]
 8005218:	460b      	mov	r3, r1
 800521a:	807b      	strh	r3, [r7, #2]
    unsigned char tmp[4];
    long thresh_scaled = sf / 1000 * thresh;
 800521c:	687b      	ldr	r3, [r7, #4]
 800521e:	4a13      	ldr	r2, [pc, #76]	@ (800526c <dmp_set_shake_reject_thresh+0x5c>)
 8005220:	fb82 1203 	smull	r1, r2, r2, r3
 8005224:	1192      	asrs	r2, r2, #6
 8005226:	17db      	asrs	r3, r3, #31
 8005228:	1ad3      	subs	r3, r2, r3
 800522a:	887a      	ldrh	r2, [r7, #2]
 800522c:	fb02 f303 	mul.w	r3, r2, r3
 8005230:	60fb      	str	r3, [r7, #12]
    tmp[0] = (unsigned char)(((long)thresh_scaled >> 24) & 0xFF);
 8005232:	68fb      	ldr	r3, [r7, #12]
 8005234:	161b      	asrs	r3, r3, #24
 8005236:	b2db      	uxtb	r3, r3
 8005238:	723b      	strb	r3, [r7, #8]
    tmp[1] = (unsigned char)(((long)thresh_scaled >> 16) & 0xFF);
 800523a:	68fb      	ldr	r3, [r7, #12]
 800523c:	141b      	asrs	r3, r3, #16
 800523e:	b2db      	uxtb	r3, r3
 8005240:	727b      	strb	r3, [r7, #9]
    tmp[2] = (unsigned char)(((long)thresh_scaled >> 8) & 0xFF);
 8005242:	68fb      	ldr	r3, [r7, #12]
 8005244:	121b      	asrs	r3, r3, #8
 8005246:	b2db      	uxtb	r3, r3
 8005248:	72bb      	strb	r3, [r7, #10]
    tmp[3] = (unsigned char)((long)thresh_scaled & 0xFF);
 800524a:	68fb      	ldr	r3, [r7, #12]
 800524c:	b2db      	uxtb	r3, r3
 800524e:	72fb      	strb	r3, [r7, #11]
    return mpu_write_mem(D_1_92, 4, tmp);
 8005250:	f107 0308 	add.w	r3, r7, #8
 8005254:	461a      	mov	r2, r3
 8005256:	2104      	movs	r1, #4
 8005258:	f44f 70ae 	mov.w	r0, #348	@ 0x15c
 800525c:	f7ff fa16 	bl	800468c <mpu_write_mem>
 8005260:	4603      	mov	r3, r0
}
 8005262:	4618      	mov	r0, r3
 8005264:	3710      	adds	r7, #16
 8005266:	46bd      	mov	sp, r7
 8005268:	bd80      	pop	{r7, pc}
 800526a:	bf00      	nop
 800526c:	10624dd3 	.word	0x10624dd3

08005270 <dmp_set_shake_reject_time>:
 *  60 ms is added to this parameter.
 *  @param[in]  time    Time in milliseconds.
 *  @return     0 if successful.
 */
int dmp_set_shake_reject_time(unsigned short time)
{
 8005270:	b580      	push	{r7, lr}
 8005272:	b084      	sub	sp, #16
 8005274:	af00      	add	r7, sp, #0
 8005276:	4603      	mov	r3, r0
 8005278:	80fb      	strh	r3, [r7, #6]
    unsigned char tmp[2];

    time /= (1000 / DMP_SAMPLE_RATE);
 800527a:	88fb      	ldrh	r3, [r7, #6]
 800527c:	4a0c      	ldr	r2, [pc, #48]	@ (80052b0 <dmp_set_shake_reject_time+0x40>)
 800527e:	fba2 2303 	umull	r2, r3, r2, r3
 8005282:	089b      	lsrs	r3, r3, #2
 8005284:	80fb      	strh	r3, [r7, #6]
    tmp[0] = time >> 8;
 8005286:	88fb      	ldrh	r3, [r7, #6]
 8005288:	0a1b      	lsrs	r3, r3, #8
 800528a:	b29b      	uxth	r3, r3
 800528c:	b2db      	uxtb	r3, r3
 800528e:	733b      	strb	r3, [r7, #12]
    tmp[1] = time & 0xFF;
 8005290:	88fb      	ldrh	r3, [r7, #6]
 8005292:	b2db      	uxtb	r3, r3
 8005294:	737b      	strb	r3, [r7, #13]
    return mpu_write_mem(D_1_90,2,tmp);
 8005296:	f107 030c 	add.w	r3, r7, #12
 800529a:	461a      	mov	r2, r3
 800529c:	2102      	movs	r1, #2
 800529e:	f44f 70ad 	mov.w	r0, #346	@ 0x15a
 80052a2:	f7ff f9f3 	bl	800468c <mpu_write_mem>
 80052a6:	4603      	mov	r3, r0
}
 80052a8:	4618      	mov	r0, r3
 80052aa:	3710      	adds	r7, #16
 80052ac:	46bd      	mov	sp, r7
 80052ae:	bd80      	pop	{r7, pc}
 80052b0:	cccccccd 	.word	0xcccccccd

080052b4 <dmp_set_shake_reject_timeout>:
 *  60 ms is added to this parameter.
 *  @param[in]  time    Time in milliseconds.
 *  @return     0 if successful.
 */
int dmp_set_shake_reject_timeout(unsigned short time)
{
 80052b4:	b580      	push	{r7, lr}
 80052b6:	b084      	sub	sp, #16
 80052b8:	af00      	add	r7, sp, #0
 80052ba:	4603      	mov	r3, r0
 80052bc:	80fb      	strh	r3, [r7, #6]
    unsigned char tmp[2];

    time /= (1000 / DMP_SAMPLE_RATE);
 80052be:	88fb      	ldrh	r3, [r7, #6]
 80052c0:	4a0c      	ldr	r2, [pc, #48]	@ (80052f4 <dmp_set_shake_reject_timeout+0x40>)
 80052c2:	fba2 2303 	umull	r2, r3, r2, r3
 80052c6:	089b      	lsrs	r3, r3, #2
 80052c8:	80fb      	strh	r3, [r7, #6]
    tmp[0] = time >> 8;
 80052ca:	88fb      	ldrh	r3, [r7, #6]
 80052cc:	0a1b      	lsrs	r3, r3, #8
 80052ce:	b29b      	uxth	r3, r3
 80052d0:	b2db      	uxtb	r3, r3
 80052d2:	733b      	strb	r3, [r7, #12]
    tmp[1] = time & 0xFF;
 80052d4:	88fb      	ldrh	r3, [r7, #6]
 80052d6:	b2db      	uxtb	r3, r3
 80052d8:	737b      	strb	r3, [r7, #13]
    return mpu_write_mem(D_1_88,2,tmp);
 80052da:	f107 030c 	add.w	r3, r7, #12
 80052de:	461a      	mov	r2, r3
 80052e0:	2102      	movs	r1, #2
 80052e2:	f44f 70ac 	mov.w	r0, #344	@ 0x158
 80052e6:	f7ff f9d1 	bl	800468c <mpu_write_mem>
 80052ea:	4603      	mov	r3, r0
}
 80052ec:	4618      	mov	r0, r3
 80052ee:	3710      	adds	r7, #16
 80052f0:	46bd      	mov	sp, r7
 80052f2:	bd80      	pop	{r7, pc}
 80052f4:	cccccccd 	.word	0xcccccccd

080052f8 <dmp_enable_feature>:
 *  mutually exclusive.
 *  @param[in]  mask    Mask of features to enable.
 *  @return     0 if successful.
 */
int dmp_enable_feature(unsigned short mask)
{
 80052f8:	b580      	push	{r7, lr}
 80052fa:	b086      	sub	sp, #24
 80052fc:	af00      	add	r7, sp, #0
 80052fe:	4603      	mov	r3, r0
 8005300:	80fb      	strh	r3, [r7, #6]

    /* TODO: All of these settings can probably be integrated into the default
     * DMP image.
     */
    /* Set integration scale factor. */
    tmp[0] = (unsigned char)((GYRO_SF >> 24) & 0xFF);
 8005302:	2302      	movs	r3, #2
 8005304:	733b      	strb	r3, [r7, #12]
    tmp[1] = (unsigned char)((GYRO_SF >> 16) & 0xFF);
 8005306:	23ca      	movs	r3, #202	@ 0xca
 8005308:	737b      	strb	r3, [r7, #13]
    tmp[2] = (unsigned char)((GYRO_SF >> 8) & 0xFF);
 800530a:	23e3      	movs	r3, #227	@ 0xe3
 800530c:	73bb      	strb	r3, [r7, #14]
    tmp[3] = (unsigned char)(GYRO_SF & 0xFF);
 800530e:	2309      	movs	r3, #9
 8005310:	73fb      	strb	r3, [r7, #15]
    mpu_write_mem(D_0_104, 4, tmp);
 8005312:	f107 030c 	add.w	r3, r7, #12
 8005316:	461a      	mov	r2, r3
 8005318:	2104      	movs	r1, #4
 800531a:	2068      	movs	r0, #104	@ 0x68
 800531c:	f7ff f9b6 	bl	800468c <mpu_write_mem>

    /* Send sensor data to the FIFO. */
    tmp[0] = 0xA3;
 8005320:	23a3      	movs	r3, #163	@ 0xa3
 8005322:	733b      	strb	r3, [r7, #12]
    if (mask & DMP_FEATURE_SEND_RAW_ACCEL) {
 8005324:	88fb      	ldrh	r3, [r7, #6]
 8005326:	f003 0340 	and.w	r3, r3, #64	@ 0x40
 800532a:	2b00      	cmp	r3, #0
 800532c:	d006      	beq.n	800533c <dmp_enable_feature+0x44>
        tmp[1] = 0xC0;
 800532e:	23c0      	movs	r3, #192	@ 0xc0
 8005330:	737b      	strb	r3, [r7, #13]
        tmp[2] = 0xC8;
 8005332:	23c8      	movs	r3, #200	@ 0xc8
 8005334:	73bb      	strb	r3, [r7, #14]
        tmp[3] = 0xC2;
 8005336:	23c2      	movs	r3, #194	@ 0xc2
 8005338:	73fb      	strb	r3, [r7, #15]
 800533a:	e005      	b.n	8005348 <dmp_enable_feature+0x50>
    } else {
        tmp[1] = 0xA3;
 800533c:	23a3      	movs	r3, #163	@ 0xa3
 800533e:	737b      	strb	r3, [r7, #13]
        tmp[2] = 0xA3;
 8005340:	23a3      	movs	r3, #163	@ 0xa3
 8005342:	73bb      	strb	r3, [r7, #14]
        tmp[3] = 0xA3;
 8005344:	23a3      	movs	r3, #163	@ 0xa3
 8005346:	73fb      	strb	r3, [r7, #15]
    }
    if (mask & DMP_FEATURE_SEND_ANY_GYRO) {
 8005348:	88fb      	ldrh	r3, [r7, #6]
 800534a:	f403 73c0 	and.w	r3, r3, #384	@ 0x180
 800534e:	2b00      	cmp	r3, #0
 8005350:	d006      	beq.n	8005360 <dmp_enable_feature+0x68>
        tmp[4] = 0xC4;
 8005352:	23c4      	movs	r3, #196	@ 0xc4
 8005354:	743b      	strb	r3, [r7, #16]
        tmp[5] = 0xCC;
 8005356:	23cc      	movs	r3, #204	@ 0xcc
 8005358:	747b      	strb	r3, [r7, #17]
        tmp[6] = 0xC6;
 800535a:	23c6      	movs	r3, #198	@ 0xc6
 800535c:	74bb      	strb	r3, [r7, #18]
 800535e:	e005      	b.n	800536c <dmp_enable_feature+0x74>
    } else {
        tmp[4] = 0xA3;
 8005360:	23a3      	movs	r3, #163	@ 0xa3
 8005362:	743b      	strb	r3, [r7, #16]
        tmp[5] = 0xA3;
 8005364:	23a3      	movs	r3, #163	@ 0xa3
 8005366:	747b      	strb	r3, [r7, #17]
        tmp[6] = 0xA3;
 8005368:	23a3      	movs	r3, #163	@ 0xa3
 800536a:	74bb      	strb	r3, [r7, #18]
    }
    tmp[7] = 0xA3;
 800536c:	23a3      	movs	r3, #163	@ 0xa3
 800536e:	74fb      	strb	r3, [r7, #19]
    tmp[8] = 0xA3;
 8005370:	23a3      	movs	r3, #163	@ 0xa3
 8005372:	753b      	strb	r3, [r7, #20]
    tmp[9] = 0xA3;
 8005374:	23a3      	movs	r3, #163	@ 0xa3
 8005376:	757b      	strb	r3, [r7, #21]
    mpu_write_mem(CFG_15,10,tmp);
 8005378:	f107 030c 	add.w	r3, r7, #12
 800537c:	461a      	mov	r2, r3
 800537e:	210a      	movs	r1, #10
 8005380:	f640 20a7 	movw	r0, #2727	@ 0xaa7
 8005384:	f7ff f982 	bl	800468c <mpu_write_mem>

    /* Send gesture data to the FIFO. */
    if (mask & (DMP_FEATURE_TAP | DMP_FEATURE_ANDROID_ORIENT))
 8005388:	88fb      	ldrh	r3, [r7, #6]
 800538a:	f003 0303 	and.w	r3, r3, #3
 800538e:	2b00      	cmp	r3, #0
 8005390:	d002      	beq.n	8005398 <dmp_enable_feature+0xa0>
        tmp[0] = DINA20;
 8005392:	2320      	movs	r3, #32
 8005394:	733b      	strb	r3, [r7, #12]
 8005396:	e001      	b.n	800539c <dmp_enable_feature+0xa4>
    else
        tmp[0] = 0xD8;
 8005398:	23d8      	movs	r3, #216	@ 0xd8
 800539a:	733b      	strb	r3, [r7, #12]
    mpu_write_mem(CFG_27,1,tmp);
 800539c:	f107 030c 	add.w	r3, r7, #12
 80053a0:	461a      	mov	r2, r3
 80053a2:	2101      	movs	r1, #1
 80053a4:	f640 20b6 	movw	r0, #2742	@ 0xab6
 80053a8:	f7ff f970 	bl	800468c <mpu_write_mem>

    if (mask & DMP_FEATURE_GYRO_CAL)
 80053ac:	88fb      	ldrh	r3, [r7, #6]
 80053ae:	f003 0320 	and.w	r3, r3, #32
 80053b2:	2b00      	cmp	r3, #0
 80053b4:	d003      	beq.n	80053be <dmp_enable_feature+0xc6>
        dmp_enable_gyro_cal(1);
 80053b6:	2001      	movs	r0, #1
 80053b8:	f000 f8c6 	bl	8005548 <dmp_enable_gyro_cal>
 80053bc:	e002      	b.n	80053c4 <dmp_enable_feature+0xcc>
    else
        dmp_enable_gyro_cal(0);
 80053be:	2000      	movs	r0, #0
 80053c0:	f000 f8c2 	bl	8005548 <dmp_enable_gyro_cal>

    if (mask & DMP_FEATURE_SEND_ANY_GYRO) {
 80053c4:	88fb      	ldrh	r3, [r7, #6]
 80053c6:	f403 73c0 	and.w	r3, r3, #384	@ 0x180
 80053ca:	2b00      	cmp	r3, #0
 80053cc:	d01d      	beq.n	800540a <dmp_enable_feature+0x112>
        if (mask & DMP_FEATURE_SEND_CAL_GYRO) {
 80053ce:	88fb      	ldrh	r3, [r7, #6]
 80053d0:	f403 7380 	and.w	r3, r3, #256	@ 0x100
 80053d4:	2b00      	cmp	r3, #0
 80053d6:	d008      	beq.n	80053ea <dmp_enable_feature+0xf2>
            tmp[0] = 0xB2;
 80053d8:	23b2      	movs	r3, #178	@ 0xb2
 80053da:	733b      	strb	r3, [r7, #12]
            tmp[1] = 0x8B;
 80053dc:	238b      	movs	r3, #139	@ 0x8b
 80053de:	737b      	strb	r3, [r7, #13]
            tmp[2] = 0xB6;
 80053e0:	23b6      	movs	r3, #182	@ 0xb6
 80053e2:	73bb      	strb	r3, [r7, #14]
            tmp[3] = 0x9B;
 80053e4:	239b      	movs	r3, #155	@ 0x9b
 80053e6:	73fb      	strb	r3, [r7, #15]
 80053e8:	e007      	b.n	80053fa <dmp_enable_feature+0x102>
        } else {
            tmp[0] = DINAC0;
 80053ea:	23b0      	movs	r3, #176	@ 0xb0
 80053ec:	733b      	strb	r3, [r7, #12]
            tmp[1] = DINA80;
 80053ee:	2380      	movs	r3, #128	@ 0x80
 80053f0:	737b      	strb	r3, [r7, #13]
            tmp[2] = DINAC2;
 80053f2:	23b4      	movs	r3, #180	@ 0xb4
 80053f4:	73bb      	strb	r3, [r7, #14]
            tmp[3] = DINA90;
 80053f6:	2390      	movs	r3, #144	@ 0x90
 80053f8:	73fb      	strb	r3, [r7, #15]
        }
        mpu_write_mem(CFG_GYRO_RAW_DATA, 4, tmp);
 80053fa:	f107 030c 	add.w	r3, r7, #12
 80053fe:	461a      	mov	r2, r3
 8005400:	2104      	movs	r1, #4
 8005402:	f640 20a2 	movw	r0, #2722	@ 0xaa2
 8005406:	f7ff f941 	bl	800468c <mpu_write_mem>
    }

    if (mask & DMP_FEATURE_TAP) {
 800540a:	88fb      	ldrh	r3, [r7, #6]
 800540c:	f003 0301 	and.w	r3, r3, #1
 8005410:	2b00      	cmp	r3, #0
 8005412:	d025      	beq.n	8005460 <dmp_enable_feature+0x168>
        /* Enable tap. */
        tmp[0] = 0xF8;
 8005414:	23f8      	movs	r3, #248	@ 0xf8
 8005416:	733b      	strb	r3, [r7, #12]
        mpu_write_mem(CFG_20, 1, tmp);
 8005418:	f107 030c 	add.w	r3, r7, #12
 800541c:	461a      	mov	r2, r3
 800541e:	2101      	movs	r1, #1
 8005420:	f44f 600b 	mov.w	r0, #2224	@ 0x8b0
 8005424:	f7ff f932 	bl	800468c <mpu_write_mem>
        dmp_set_tap_thresh(TAP_XYZ, 250);
 8005428:	21fa      	movs	r1, #250	@ 0xfa
 800542a:	2007      	movs	r0, #7
 800542c:	f7ff fd22 	bl	8004e74 <dmp_set_tap_thresh>
        dmp_set_tap_axes(TAP_XYZ);
 8005430:	2007      	movs	r0, #7
 8005432:	f7ff fe55 	bl	80050e0 <dmp_set_tap_axes>
        dmp_set_tap_count(1);
 8005436:	2001      	movs	r0, #1
 8005438:	f7ff fe84 	bl	8005144 <dmp_set_tap_count>
        dmp_set_tap_time(100);
 800543c:	2064      	movs	r0, #100	@ 0x64
 800543e:	f7ff fea3 	bl	8005188 <dmp_set_tap_time>
        dmp_set_tap_time_multi(500);
 8005442:	f44f 70fa 	mov.w	r0, #500	@ 0x1f4
 8005446:	f7ff fec1 	bl	80051cc <dmp_set_tap_time_multi>

        dmp_set_shake_reject_thresh(GYRO_SF, 200);
 800544a:	21c8      	movs	r1, #200	@ 0xc8
 800544c:	483c      	ldr	r0, [pc, #240]	@ (8005540 <dmp_enable_feature+0x248>)
 800544e:	f7ff fedf 	bl	8005210 <dmp_set_shake_reject_thresh>
        dmp_set_shake_reject_time(40);
 8005452:	2028      	movs	r0, #40	@ 0x28
 8005454:	f7ff ff0c 	bl	8005270 <dmp_set_shake_reject_time>
        dmp_set_shake_reject_timeout(10);
 8005458:	200a      	movs	r0, #10
 800545a:	f7ff ff2b 	bl	80052b4 <dmp_set_shake_reject_timeout>
 800545e:	e009      	b.n	8005474 <dmp_enable_feature+0x17c>
    } else {
        tmp[0] = 0xD8;
 8005460:	23d8      	movs	r3, #216	@ 0xd8
 8005462:	733b      	strb	r3, [r7, #12]
        mpu_write_mem(CFG_20, 1, tmp);
 8005464:	f107 030c 	add.w	r3, r7, #12
 8005468:	461a      	mov	r2, r3
 800546a:	2101      	movs	r1, #1
 800546c:	f44f 600b 	mov.w	r0, #2224	@ 0x8b0
 8005470:	f7ff f90c 	bl	800468c <mpu_write_mem>
    }

    if (mask & DMP_FEATURE_ANDROID_ORIENT) {
 8005474:	88fb      	ldrh	r3, [r7, #6]
 8005476:	f003 0302 	and.w	r3, r3, #2
 800547a:	2b00      	cmp	r3, #0
 800547c:	d002      	beq.n	8005484 <dmp_enable_feature+0x18c>
        tmp[0] = 0xD9;
 800547e:	23d9      	movs	r3, #217	@ 0xd9
 8005480:	733b      	strb	r3, [r7, #12]
 8005482:	e001      	b.n	8005488 <dmp_enable_feature+0x190>
    } else
        tmp[0] = 0xD8;
 8005484:	23d8      	movs	r3, #216	@ 0xd8
 8005486:	733b      	strb	r3, [r7, #12]
    mpu_write_mem(CFG_ANDROID_ORIENT_INT, 1, tmp);
 8005488:	f107 030c 	add.w	r3, r7, #12
 800548c:	461a      	mov	r2, r3
 800548e:	2101      	movs	r1, #1
 8005490:	f240 703d 	movw	r0, #1853	@ 0x73d
 8005494:	f7ff f8fa 	bl	800468c <mpu_write_mem>

    if (mask & DMP_FEATURE_LP_QUAT)
 8005498:	88fb      	ldrh	r3, [r7, #6]
 800549a:	f003 0304 	and.w	r3, r3, #4
 800549e:	2b00      	cmp	r3, #0
 80054a0:	d003      	beq.n	80054aa <dmp_enable_feature+0x1b2>
        dmp_enable_lp_quat(1);
 80054a2:	2001      	movs	r0, #1
 80054a4:	f000 f880 	bl	80055a8 <dmp_enable_lp_quat>
 80054a8:	e002      	b.n	80054b0 <dmp_enable_feature+0x1b8>
    else
        dmp_enable_lp_quat(0);
 80054aa:	2000      	movs	r0, #0
 80054ac:	f000 f87c 	bl	80055a8 <dmp_enable_lp_quat>

    if (mask & DMP_FEATURE_6X_LP_QUAT)
 80054b0:	88fb      	ldrh	r3, [r7, #6]
 80054b2:	f003 0310 	and.w	r3, r3, #16
 80054b6:	2b00      	cmp	r3, #0
 80054b8:	d003      	beq.n	80054c2 <dmp_enable_feature+0x1ca>
        dmp_enable_6x_lp_quat(1);
 80054ba:	2001      	movs	r0, #1
 80054bc:	f000 f89b 	bl	80055f6 <dmp_enable_6x_lp_quat>
 80054c0:	e002      	b.n	80054c8 <dmp_enable_feature+0x1d0>
    else
        dmp_enable_6x_lp_quat(0);
 80054c2:	2000      	movs	r0, #0
 80054c4:	f000 f897 	bl	80055f6 <dmp_enable_6x_lp_quat>

    /* Pedometer is always enabled. */
    dmp.feature_mask = mask | DMP_FEATURE_PEDOMETER;
 80054c8:	88fb      	ldrh	r3, [r7, #6]
 80054ca:	f043 0308 	orr.w	r3, r3, #8
 80054ce:	b29a      	uxth	r2, r3
 80054d0:	4b1c      	ldr	r3, [pc, #112]	@ (8005544 <dmp_enable_feature+0x24c>)
 80054d2:	815a      	strh	r2, [r3, #10]
    mpu_reset_fifo();
 80054d4:	f7fe fb2c 	bl	8003b30 <mpu_reset_fifo>

    dmp.packet_length = 0;
 80054d8:	4b1a      	ldr	r3, [pc, #104]	@ (8005544 <dmp_enable_feature+0x24c>)
 80054da:	2200      	movs	r2, #0
 80054dc:	739a      	strb	r2, [r3, #14]
    if (mask & DMP_FEATURE_SEND_RAW_ACCEL)
 80054de:	88fb      	ldrh	r3, [r7, #6]
 80054e0:	f003 0340 	and.w	r3, r3, #64	@ 0x40
 80054e4:	2b00      	cmp	r3, #0
 80054e6:	d005      	beq.n	80054f4 <dmp_enable_feature+0x1fc>
        dmp.packet_length += 6;
 80054e8:	4b16      	ldr	r3, [pc, #88]	@ (8005544 <dmp_enable_feature+0x24c>)
 80054ea:	7b9b      	ldrb	r3, [r3, #14]
 80054ec:	3306      	adds	r3, #6
 80054ee:	b2da      	uxtb	r2, r3
 80054f0:	4b14      	ldr	r3, [pc, #80]	@ (8005544 <dmp_enable_feature+0x24c>)
 80054f2:	739a      	strb	r2, [r3, #14]
    if (mask & DMP_FEATURE_SEND_ANY_GYRO)
 80054f4:	88fb      	ldrh	r3, [r7, #6]
 80054f6:	f403 73c0 	and.w	r3, r3, #384	@ 0x180
 80054fa:	2b00      	cmp	r3, #0
 80054fc:	d005      	beq.n	800550a <dmp_enable_feature+0x212>
        dmp.packet_length += 6;
 80054fe:	4b11      	ldr	r3, [pc, #68]	@ (8005544 <dmp_enable_feature+0x24c>)
 8005500:	7b9b      	ldrb	r3, [r3, #14]
 8005502:	3306      	adds	r3, #6
 8005504:	b2da      	uxtb	r2, r3
 8005506:	4b0f      	ldr	r3, [pc, #60]	@ (8005544 <dmp_enable_feature+0x24c>)
 8005508:	739a      	strb	r2, [r3, #14]
    if (mask & (DMP_FEATURE_LP_QUAT | DMP_FEATURE_6X_LP_QUAT))
 800550a:	88fb      	ldrh	r3, [r7, #6]
 800550c:	f003 0314 	and.w	r3, r3, #20
 8005510:	2b00      	cmp	r3, #0
 8005512:	d005      	beq.n	8005520 <dmp_enable_feature+0x228>
        dmp.packet_length += 16;
 8005514:	4b0b      	ldr	r3, [pc, #44]	@ (8005544 <dmp_enable_feature+0x24c>)
 8005516:	7b9b      	ldrb	r3, [r3, #14]
 8005518:	3310      	adds	r3, #16
 800551a:	b2da      	uxtb	r2, r3
 800551c:	4b09      	ldr	r3, [pc, #36]	@ (8005544 <dmp_enable_feature+0x24c>)
 800551e:	739a      	strb	r2, [r3, #14]
    if (mask & (DMP_FEATURE_TAP | DMP_FEATURE_ANDROID_ORIENT))
 8005520:	88fb      	ldrh	r3, [r7, #6]
 8005522:	f003 0303 	and.w	r3, r3, #3
 8005526:	2b00      	cmp	r3, #0
 8005528:	d005      	beq.n	8005536 <dmp_enable_feature+0x23e>
        dmp.packet_length += 4;
 800552a:	4b06      	ldr	r3, [pc, #24]	@ (8005544 <dmp_enable_feature+0x24c>)
 800552c:	7b9b      	ldrb	r3, [r3, #14]
 800552e:	3304      	adds	r3, #4
 8005530:	b2da      	uxtb	r2, r3
 8005532:	4b04      	ldr	r3, [pc, #16]	@ (8005544 <dmp_enable_feature+0x24c>)
 8005534:	739a      	strb	r2, [r3, #14]

    return 0;
 8005536:	2300      	movs	r3, #0
}
 8005538:	4618      	mov	r0, r3
 800553a:	3718      	adds	r7, #24
 800553c:	46bd      	mov	sp, r7
 800553e:	bd80      	pop	{r7, pc}
 8005540:	02cae309 	.word	0x02cae309
 8005544:	2000040c 	.word	0x2000040c

08005548 <dmp_enable_gyro_cal>:
 *  subtracted from the gyro output.
 *  @param[in]  enable  1 to enable gyro calibration.
 *  @return     0 if successful.
 */
int dmp_enable_gyro_cal(unsigned char enable)
{
 8005548:	b580      	push	{r7, lr}
 800554a:	b088      	sub	sp, #32
 800554c:	af00      	add	r7, sp, #0
 800554e:	4603      	mov	r3, r0
 8005550:	71fb      	strb	r3, [r7, #7]
    if (enable) {
 8005552:	79fb      	ldrb	r3, [r7, #7]
 8005554:	2b00      	cmp	r3, #0
 8005556:	d00f      	beq.n	8005578 <dmp_enable_gyro_cal+0x30>
        unsigned char regs[9] = {0xb8, 0xaa, 0xb3, 0x8d, 0xb4, 0x98, 0x0d, 0x35, 0x5d};
 8005558:	4a11      	ldr	r2, [pc, #68]	@ (80055a0 <dmp_enable_gyro_cal+0x58>)
 800555a:	f107 0314 	add.w	r3, r7, #20
 800555e:	ca07      	ldmia	r2, {r0, r1, r2}
 8005560:	c303      	stmia	r3!, {r0, r1}
 8005562:	701a      	strb	r2, [r3, #0]
        return mpu_write_mem(CFG_MOTION_BIAS, 9, regs);
 8005564:	f107 0314 	add.w	r3, r7, #20
 8005568:	461a      	mov	r2, r3
 800556a:	2109      	movs	r1, #9
 800556c:	f44f 6097 	mov.w	r0, #1208	@ 0x4b8
 8005570:	f7ff f88c 	bl	800468c <mpu_write_mem>
 8005574:	4603      	mov	r3, r0
 8005576:	e00e      	b.n	8005596 <dmp_enable_gyro_cal+0x4e>
    } else {
        unsigned char regs[9] = {0xb8, 0xaa, 0xaa, 0xaa, 0xb0, 0x88, 0xc3, 0xc5, 0xc7};
 8005578:	4a0a      	ldr	r2, [pc, #40]	@ (80055a4 <dmp_enable_gyro_cal+0x5c>)
 800557a:	f107 0308 	add.w	r3, r7, #8
 800557e:	ca07      	ldmia	r2, {r0, r1, r2}
 8005580:	c303      	stmia	r3!, {r0, r1}
 8005582:	701a      	strb	r2, [r3, #0]
        return mpu_write_mem(CFG_MOTION_BIAS, 9, regs);
 8005584:	f107 0308 	add.w	r3, r7, #8
 8005588:	461a      	mov	r2, r3
 800558a:	2109      	movs	r1, #9
 800558c:	f44f 6097 	mov.w	r0, #1208	@ 0x4b8
 8005590:	f7ff f87c 	bl	800468c <mpu_write_mem>
 8005594:	4603      	mov	r3, r0
    }
}
 8005596:	4618      	mov	r0, r3
 8005598:	3720      	adds	r7, #32
 800559a:	46bd      	mov	sp, r7
 800559c:	bd80      	pop	{r7, pc}
 800559e:	bf00      	nop
 80055a0:	080074bc 	.word	0x080074bc
 80055a4:	080074c8 	.word	0x080074c8

080055a8 <dmp_enable_lp_quat>:
 *  exclusive.
 *  @param[in]  enable  1 to enable 3-axis quaternion.
 *  @return     0 if successful.
 */
int dmp_enable_lp_quat(unsigned char enable)
{
 80055a8:	b580      	push	{r7, lr}
 80055aa:	b084      	sub	sp, #16
 80055ac:	af00      	add	r7, sp, #0
 80055ae:	4603      	mov	r3, r0
 80055b0:	71fb      	strb	r3, [r7, #7]
    unsigned char regs[4];
    if (enable) {
 80055b2:	79fb      	ldrb	r3, [r7, #7]
 80055b4:	2b00      	cmp	r3, #0
 80055b6:	d008      	beq.n	80055ca <dmp_enable_lp_quat+0x22>
        regs[0] = DINBC0;
 80055b8:	23c0      	movs	r3, #192	@ 0xc0
 80055ba:	733b      	strb	r3, [r7, #12]
        regs[1] = DINBC2;
 80055bc:	23c2      	movs	r3, #194	@ 0xc2
 80055be:	737b      	strb	r3, [r7, #13]
        regs[2] = DINBC4;
 80055c0:	23c4      	movs	r3, #196	@ 0xc4
 80055c2:	73bb      	strb	r3, [r7, #14]
        regs[3] = DINBC6;
 80055c4:	23c6      	movs	r3, #198	@ 0xc6
 80055c6:	73fb      	strb	r3, [r7, #15]
 80055c8:	e006      	b.n	80055d8 <dmp_enable_lp_quat+0x30>
    }
    else
        memset(regs, 0x8B, 4);
 80055ca:	f107 030c 	add.w	r3, r7, #12
 80055ce:	2204      	movs	r2, #4
 80055d0:	218b      	movs	r1, #139	@ 0x8b
 80055d2:	4618      	mov	r0, r3
 80055d4:	f001 ff1e 	bl	8007414 <memset>

    mpu_write_mem(CFG_LP_QUAT, 4, regs);
 80055d8:	f107 030c 	add.w	r3, r7, #12
 80055dc:	461a      	mov	r2, r3
 80055de:	2104      	movs	r1, #4
 80055e0:	f640 2098 	movw	r0, #2712	@ 0xa98
 80055e4:	f7ff f852 	bl	800468c <mpu_write_mem>

    return mpu_reset_fifo();
 80055e8:	f7fe faa2 	bl	8003b30 <mpu_reset_fifo>
 80055ec:	4603      	mov	r3, r0
}
 80055ee:	4618      	mov	r0, r3
 80055f0:	3710      	adds	r7, #16
 80055f2:	46bd      	mov	sp, r7
 80055f4:	bd80      	pop	{r7, pc}

080055f6 <dmp_enable_6x_lp_quat>:
 *  exclusive.
 *  @param[in]   enable  1 to enable 6-axis quaternion.
 *  @return      0 if successful.
 */
int dmp_enable_6x_lp_quat(unsigned char enable)
{
 80055f6:	b580      	push	{r7, lr}
 80055f8:	b084      	sub	sp, #16
 80055fa:	af00      	add	r7, sp, #0
 80055fc:	4603      	mov	r3, r0
 80055fe:	71fb      	strb	r3, [r7, #7]
    unsigned char regs[4];
    if (enable) {
 8005600:	79fb      	ldrb	r3, [r7, #7]
 8005602:	2b00      	cmp	r3, #0
 8005604:	d008      	beq.n	8005618 <dmp_enable_6x_lp_quat+0x22>
        regs[0] = DINA20;
 8005606:	2320      	movs	r3, #32
 8005608:	733b      	strb	r3, [r7, #12]
        regs[1] = DINA28;
 800560a:	2328      	movs	r3, #40	@ 0x28
 800560c:	737b      	strb	r3, [r7, #13]
        regs[2] = DINA30;
 800560e:	2330      	movs	r3, #48	@ 0x30
 8005610:	73bb      	strb	r3, [r7, #14]
        regs[3] = DINA38;
 8005612:	2338      	movs	r3, #56	@ 0x38
 8005614:	73fb      	strb	r3, [r7, #15]
 8005616:	e006      	b.n	8005626 <dmp_enable_6x_lp_quat+0x30>
    } else
        memset(regs, 0xA3, 4);
 8005618:	f107 030c 	add.w	r3, r7, #12
 800561c:	2204      	movs	r2, #4
 800561e:	21a3      	movs	r1, #163	@ 0xa3
 8005620:	4618      	mov	r0, r3
 8005622:	f001 fef7 	bl	8007414 <memset>

    mpu_write_mem(CFG_8, 4, regs);
 8005626:	f107 030c 	add.w	r3, r7, #12
 800562a:	461a      	mov	r2, r3
 800562c:	2104      	movs	r1, #4
 800562e:	f640 209e 	movw	r0, #2718	@ 0xa9e
 8005632:	f7ff f82b 	bl	800468c <mpu_write_mem>

    return mpu_reset_fifo();
 8005636:	f7fe fa7b 	bl	8003b30 <mpu_reset_fifo>
 800563a:	4603      	mov	r3, r0
}
 800563c:	4618      	mov	r0, r3
 800563e:	3710      	adds	r7, #16
 8005640:	46bd      	mov	sp, r7
 8005642:	bd80      	pop	{r7, pc}

08005644 <decode_gesture>:
 *  @brief      Decode the four-byte gesture data and execute any callbacks.
 *  @param[in]  gesture Gesture data from DMP packet.
 *  @return     0 if successful.
 */
static int decode_gesture(unsigned char *gesture)
{
 8005644:	b580      	push	{r7, lr}
 8005646:	b084      	sub	sp, #16
 8005648:	af00      	add	r7, sp, #0
 800564a:	6078      	str	r0, [r7, #4]
    unsigned char tap, android_orient;

    android_orient = gesture[3] & 0xC0;
 800564c:	687b      	ldr	r3, [r7, #4]
 800564e:	3303      	adds	r3, #3
 8005650:	781b      	ldrb	r3, [r3, #0]
 8005652:	f023 033f 	bic.w	r3, r3, #63	@ 0x3f
 8005656:	73fb      	strb	r3, [r7, #15]
    tap = 0x3F & gesture[3];
 8005658:	687b      	ldr	r3, [r7, #4]
 800565a:	3303      	adds	r3, #3
 800565c:	781b      	ldrb	r3, [r3, #0]
 800565e:	f003 033f 	and.w	r3, r3, #63	@ 0x3f
 8005662:	73bb      	strb	r3, [r7, #14]

    if (gesture[1] & INT_SRC_TAP) {
 8005664:	687b      	ldr	r3, [r7, #4]
 8005666:	3301      	adds	r3, #1
 8005668:	781b      	ldrb	r3, [r3, #0]
 800566a:	f003 0301 	and.w	r3, r3, #1
 800566e:	2b00      	cmp	r3, #0
 8005670:	d012      	beq.n	8005698 <decode_gesture+0x54>
        unsigned char direction, count;
        direction = tap >> 3;
 8005672:	7bbb      	ldrb	r3, [r7, #14]
 8005674:	08db      	lsrs	r3, r3, #3
 8005676:	737b      	strb	r3, [r7, #13]
        count = (tap % 8) + 1;
 8005678:	7bbb      	ldrb	r3, [r7, #14]
 800567a:	f003 0307 	and.w	r3, r3, #7
 800567e:	b2db      	uxtb	r3, r3
 8005680:	3301      	adds	r3, #1
 8005682:	733b      	strb	r3, [r7, #12]
        if (dmp.tap_cb)
 8005684:	4b10      	ldr	r3, [pc, #64]	@ (80056c8 <decode_gesture+0x84>)
 8005686:	681b      	ldr	r3, [r3, #0]
 8005688:	2b00      	cmp	r3, #0
 800568a:	d005      	beq.n	8005698 <decode_gesture+0x54>
            dmp.tap_cb(direction, count);
 800568c:	4b0e      	ldr	r3, [pc, #56]	@ (80056c8 <decode_gesture+0x84>)
 800568e:	681b      	ldr	r3, [r3, #0]
 8005690:	7b39      	ldrb	r1, [r7, #12]
 8005692:	7b7a      	ldrb	r2, [r7, #13]
 8005694:	4610      	mov	r0, r2
 8005696:	4798      	blx	r3
    }

    if (gesture[1] & INT_SRC_ANDROID_ORIENT) {
 8005698:	687b      	ldr	r3, [r7, #4]
 800569a:	3301      	adds	r3, #1
 800569c:	781b      	ldrb	r3, [r3, #0]
 800569e:	f003 0308 	and.w	r3, r3, #8
 80056a2:	2b00      	cmp	r3, #0
 80056a4:	d00a      	beq.n	80056bc <decode_gesture+0x78>
        if (dmp.android_orient_cb)
 80056a6:	4b08      	ldr	r3, [pc, #32]	@ (80056c8 <decode_gesture+0x84>)
 80056a8:	685b      	ldr	r3, [r3, #4]
 80056aa:	2b00      	cmp	r3, #0
 80056ac:	d006      	beq.n	80056bc <decode_gesture+0x78>
            dmp.android_orient_cb(android_orient >> 6);
 80056ae:	4b06      	ldr	r3, [pc, #24]	@ (80056c8 <decode_gesture+0x84>)
 80056b0:	685b      	ldr	r3, [r3, #4]
 80056b2:	7bfa      	ldrb	r2, [r7, #15]
 80056b4:	0992      	lsrs	r2, r2, #6
 80056b6:	b2d2      	uxtb	r2, r2
 80056b8:	4610      	mov	r0, r2
 80056ba:	4798      	blx	r3
    }

    return 0;
 80056bc:	2300      	movs	r3, #0
}
 80056be:	4618      	mov	r0, r3
 80056c0:	3710      	adds	r7, #16
 80056c2:	46bd      	mov	sp, r7
 80056c4:	bd80      	pop	{r7, pc}
 80056c6:	bf00      	nop
 80056c8:	2000040c 	.word	0x2000040c

080056cc <dmp_read_fifo>:
 *  @param[out] more        Number of remaining packets.
 *  @return     0 if successful.
 */
int dmp_read_fifo(short *gyro, short *accel, long *quat,
    unsigned long *timestamp, short *sensors, unsigned char *more)
{
 80056cc:	b580      	push	{r7, lr}
 80056ce:	b092      	sub	sp, #72	@ 0x48
 80056d0:	af00      	add	r7, sp, #0
 80056d2:	60f8      	str	r0, [r7, #12]
 80056d4:	60b9      	str	r1, [r7, #8]
 80056d6:	607a      	str	r2, [r7, #4]
 80056d8:	603b      	str	r3, [r7, #0]
    unsigned char fifo_data[MAX_PACKET_LENGTH];
    unsigned char ii = 0;
 80056da:	2300      	movs	r3, #0
 80056dc:	f887 3047 	strb.w	r3, [r7, #71]	@ 0x47

    /* TODO: sensors[0] only changes when dmp_enable_feature is called. We can
     * cache this value and save some cycles.
     */
    sensors[0] = 0;
 80056e0:	6d3b      	ldr	r3, [r7, #80]	@ 0x50
 80056e2:	2200      	movs	r2, #0
 80056e4:	801a      	strh	r2, [r3, #0]

    /* Get a packet. */
    if (mpu_read_fifo_stream(dmp.packet_length, fifo_data, more))
 80056e6:	4bae      	ldr	r3, [pc, #696]	@ (80059a0 <dmp_read_fifo+0x2d4>)
 80056e8:	7b9b      	ldrb	r3, [r3, #14]
 80056ea:	4618      	mov	r0, r3
 80056ec:	f107 0320 	add.w	r3, r7, #32
 80056f0:	6d7a      	ldr	r2, [r7, #84]	@ 0x54
 80056f2:	4619      	mov	r1, r3
 80056f4:	f7fe fe42 	bl	800437c <mpu_read_fifo_stream>
 80056f8:	4603      	mov	r3, r0
 80056fa:	2b00      	cmp	r3, #0
 80056fc:	d002      	beq.n	8005704 <dmp_read_fifo+0x38>
        return -1;
 80056fe:	f04f 33ff 	mov.w	r3, #4294967295
 8005702:	e148      	b.n	8005996 <dmp_read_fifo+0x2ca>

    /* Parse DMP packet. */
    if (dmp.feature_mask & (DMP_FEATURE_LP_QUAT | DMP_FEATURE_6X_LP_QUAT)) {
 8005704:	4ba6      	ldr	r3, [pc, #664]	@ (80059a0 <dmp_read_fifo+0x2d4>)
 8005706:	895b      	ldrh	r3, [r3, #10]
 8005708:	f003 0314 	and.w	r3, r3, #20
 800570c:	2b00      	cmp	r3, #0
 800570e:	f000 808a 	beq.w	8005826 <dmp_read_fifo+0x15a>
#ifdef FIFO_CORRUPTION_CHECK
        long quat_q14[4], quat_mag_sq;
#endif
        quat[0] = ((long)fifo_data[0] << 24) | ((long)fifo_data[1] << 16) |
 8005712:	f897 3020 	ldrb.w	r3, [r7, #32]
 8005716:	061a      	lsls	r2, r3, #24
 8005718:	f897 3021 	ldrb.w	r3, [r7, #33]	@ 0x21
 800571c:	041b      	lsls	r3, r3, #16
 800571e:	431a      	orrs	r2, r3
            ((long)fifo_data[2] << 8) | fifo_data[3];
 8005720:	f897 3022 	ldrb.w	r3, [r7, #34]	@ 0x22
 8005724:	021b      	lsls	r3, r3, #8
        quat[0] = ((long)fifo_data[0] << 24) | ((long)fifo_data[1] << 16) |
 8005726:	4313      	orrs	r3, r2
            ((long)fifo_data[2] << 8) | fifo_data[3];
 8005728:	f897 2023 	ldrb.w	r2, [r7, #35]	@ 0x23
 800572c:	431a      	orrs	r2, r3
        quat[0] = ((long)fifo_data[0] << 24) | ((long)fifo_data[1] << 16) |
 800572e:	687b      	ldr	r3, [r7, #4]
 8005730:	601a      	str	r2, [r3, #0]
        quat[1] = ((long)fifo_data[4] << 24) | ((long)fifo_data[5] << 16) |
 8005732:	f897 3024 	ldrb.w	r3, [r7, #36]	@ 0x24
 8005736:	061a      	lsls	r2, r3, #24
 8005738:	f897 3025 	ldrb.w	r3, [r7, #37]	@ 0x25
 800573c:	041b      	lsls	r3, r3, #16
 800573e:	431a      	orrs	r2, r3
            ((long)fifo_data[6] << 8) | fifo_data[7];
 8005740:	f897 3026 	ldrb.w	r3, [r7, #38]	@ 0x26
 8005744:	021b      	lsls	r3, r3, #8
        quat[1] = ((long)fifo_data[4] << 24) | ((long)fifo_data[5] << 16) |
 8005746:	431a      	orrs	r2, r3
            ((long)fifo_data[6] << 8) | fifo_data[7];
 8005748:	f897 3027 	ldrb.w	r3, [r7, #39]	@ 0x27
 800574c:	4619      	mov	r1, r3
        quat[1] = ((long)fifo_data[4] << 24) | ((long)fifo_data[5] << 16) |
 800574e:	687b      	ldr	r3, [r7, #4]
 8005750:	3304      	adds	r3, #4
            ((long)fifo_data[6] << 8) | fifo_data[7];
 8005752:	430a      	orrs	r2, r1
        quat[1] = ((long)fifo_data[4] << 24) | ((long)fifo_data[5] << 16) |
 8005754:	601a      	str	r2, [r3, #0]
        quat[2] = ((long)fifo_data[8] << 24) | ((long)fifo_data[9] << 16) |
 8005756:	f897 3028 	ldrb.w	r3, [r7, #40]	@ 0x28
 800575a:	061a      	lsls	r2, r3, #24
 800575c:	f897 3029 	ldrb.w	r3, [r7, #41]	@ 0x29
 8005760:	041b      	lsls	r3, r3, #16
 8005762:	431a      	orrs	r2, r3
            ((long)fifo_data[10] << 8) | fifo_data[11];
 8005764:	f897 302a 	ldrb.w	r3, [r7, #42]	@ 0x2a
 8005768:	021b      	lsls	r3, r3, #8
        quat[2] = ((long)fifo_data[8] << 24) | ((long)fifo_data[9] << 16) |
 800576a:	431a      	orrs	r2, r3
            ((long)fifo_data[10] << 8) | fifo_data[11];
 800576c:	f897 302b 	ldrb.w	r3, [r7, #43]	@ 0x2b
 8005770:	4619      	mov	r1, r3
        quat[2] = ((long)fifo_data[8] << 24) | ((long)fifo_data[9] << 16) |
 8005772:	687b      	ldr	r3, [r7, #4]
 8005774:	3308      	adds	r3, #8
            ((long)fifo_data[10] << 8) | fifo_data[11];
 8005776:	430a      	orrs	r2, r1
        quat[2] = ((long)fifo_data[8] << 24) | ((long)fifo_data[9] << 16) |
 8005778:	601a      	str	r2, [r3, #0]
        quat[3] = ((long)fifo_data[12] << 24) | ((long)fifo_data[13] << 16) |
 800577a:	f897 302c 	ldrb.w	r3, [r7, #44]	@ 0x2c
 800577e:	061a      	lsls	r2, r3, #24
 8005780:	f897 302d 	ldrb.w	r3, [r7, #45]	@ 0x2d
 8005784:	041b      	lsls	r3, r3, #16
 8005786:	431a      	orrs	r2, r3
            ((long)fifo_data[14] << 8) | fifo_data[15];
 8005788:	f897 302e 	ldrb.w	r3, [r7, #46]	@ 0x2e
 800578c:	021b      	lsls	r3, r3, #8
        quat[3] = ((long)fifo_data[12] << 24) | ((long)fifo_data[13] << 16) |
 800578e:	431a      	orrs	r2, r3
            ((long)fifo_data[14] << 8) | fifo_data[15];
 8005790:	f897 302f 	ldrb.w	r3, [r7, #47]	@ 0x2f
 8005794:	4619      	mov	r1, r3
        quat[3] = ((long)fifo_data[12] << 24) | ((long)fifo_data[13] << 16) |
 8005796:	687b      	ldr	r3, [r7, #4]
 8005798:	330c      	adds	r3, #12
            ((long)fifo_data[14] << 8) | fifo_data[15];
 800579a:	430a      	orrs	r2, r1
        quat[3] = ((long)fifo_data[12] << 24) | ((long)fifo_data[13] << 16) |
 800579c:	601a      	str	r2, [r3, #0]
        ii += 16;
 800579e:	f897 3047 	ldrb.w	r3, [r7, #71]	@ 0x47
 80057a2:	3310      	adds	r3, #16
 80057a4:	f887 3047 	strb.w	r3, [r7, #71]	@ 0x47
         * the FIFO reads might become misaligned.
         *
         * Let's start by scaling down the quaternion data to avoid long long
         * math.
         */
        quat_q14[0] = quat[0] >> 16;
 80057a8:	687b      	ldr	r3, [r7, #4]
 80057aa:	681b      	ldr	r3, [r3, #0]
 80057ac:	141b      	asrs	r3, r3, #16
 80057ae:	613b      	str	r3, [r7, #16]
        quat_q14[1] = quat[1] >> 16;
 80057b0:	687b      	ldr	r3, [r7, #4]
 80057b2:	3304      	adds	r3, #4
 80057b4:	681b      	ldr	r3, [r3, #0]
 80057b6:	141b      	asrs	r3, r3, #16
 80057b8:	617b      	str	r3, [r7, #20]
        quat_q14[2] = quat[2] >> 16;
 80057ba:	687b      	ldr	r3, [r7, #4]
 80057bc:	3308      	adds	r3, #8
 80057be:	681b      	ldr	r3, [r3, #0]
 80057c0:	141b      	asrs	r3, r3, #16
 80057c2:	61bb      	str	r3, [r7, #24]
        quat_q14[3] = quat[3] >> 16;
 80057c4:	687b      	ldr	r3, [r7, #4]
 80057c6:	330c      	adds	r3, #12
 80057c8:	681b      	ldr	r3, [r3, #0]
 80057ca:	141b      	asrs	r3, r3, #16
 80057cc:	61fb      	str	r3, [r7, #28]
        quat_mag_sq = quat_q14[0] * quat_q14[0] + quat_q14[1] * quat_q14[1] +
 80057ce:	693b      	ldr	r3, [r7, #16]
 80057d0:	693a      	ldr	r2, [r7, #16]
 80057d2:	fb03 f202 	mul.w	r2, r3, r2
 80057d6:	697b      	ldr	r3, [r7, #20]
 80057d8:	6979      	ldr	r1, [r7, #20]
 80057da:	fb01 f303 	mul.w	r3, r1, r3
 80057de:	441a      	add	r2, r3
            quat_q14[2] * quat_q14[2] + quat_q14[3] * quat_q14[3];
 80057e0:	69bb      	ldr	r3, [r7, #24]
 80057e2:	69b9      	ldr	r1, [r7, #24]
 80057e4:	fb01 f303 	mul.w	r3, r1, r3
        quat_mag_sq = quat_q14[0] * quat_q14[0] + quat_q14[1] * quat_q14[1] +
 80057e8:	441a      	add	r2, r3
            quat_q14[2] * quat_q14[2] + quat_q14[3] * quat_q14[3];
 80057ea:	69fb      	ldr	r3, [r7, #28]
 80057ec:	69f9      	ldr	r1, [r7, #28]
 80057ee:	fb01 f303 	mul.w	r3, r1, r3
        quat_mag_sq = quat_q14[0] * quat_q14[0] + quat_q14[1] * quat_q14[1] +
 80057f2:	4413      	add	r3, r2
 80057f4:	643b      	str	r3, [r7, #64]	@ 0x40
        if ((quat_mag_sq < QUAT_MAG_SQ_MIN) ||
 80057f6:	6c3b      	ldr	r3, [r7, #64]	@ 0x40
 80057f8:	f1b3 6f70 	cmp.w	r3, #251658240	@ 0xf000000
 80057fc:	db03      	blt.n	8005806 <dmp_read_fifo+0x13a>
 80057fe:	6c3b      	ldr	r3, [r7, #64]	@ 0x40
 8005800:	f1b3 5f88 	cmp.w	r3, #285212672	@ 0x11000000
 8005804:	dd07      	ble.n	8005816 <dmp_read_fifo+0x14a>
            (quat_mag_sq > QUAT_MAG_SQ_MAX)) {
            /* Quaternion is outside of the acceptable threshold. */
            mpu_reset_fifo();
 8005806:	f7fe f993 	bl	8003b30 <mpu_reset_fifo>
            sensors[0] = 0;
 800580a:	6d3b      	ldr	r3, [r7, #80]	@ 0x50
 800580c:	2200      	movs	r2, #0
 800580e:	801a      	strh	r2, [r3, #0]
            return -1;
 8005810:	f04f 33ff 	mov.w	r3, #4294967295
 8005814:	e0bf      	b.n	8005996 <dmp_read_fifo+0x2ca>
        }
        sensors[0] |= INV_WXYZ_QUAT;
 8005816:	6d3b      	ldr	r3, [r7, #80]	@ 0x50
 8005818:	f9b3 3000 	ldrsh.w	r3, [r3]
 800581c:	f443 7380 	orr.w	r3, r3, #256	@ 0x100
 8005820:	b21a      	sxth	r2, r3
 8005822:	6d3b      	ldr	r3, [r7, #80]	@ 0x50
 8005824:	801a      	strh	r2, [r3, #0]
#endif
    }

    if (dmp.feature_mask & DMP_FEATURE_SEND_RAW_ACCEL) {
 8005826:	4b5e      	ldr	r3, [pc, #376]	@ (80059a0 <dmp_read_fifo+0x2d4>)
 8005828:	895b      	ldrh	r3, [r3, #10]
 800582a:	f003 0340 	and.w	r3, r3, #64	@ 0x40
 800582e:	2b00      	cmp	r3, #0
 8005830:	d04c      	beq.n	80058cc <dmp_read_fifo+0x200>
        accel[0] = ((short)fifo_data[ii+0] << 8) | fifo_data[ii+1];
 8005832:	f897 3047 	ldrb.w	r3, [r7, #71]	@ 0x47
 8005836:	3348      	adds	r3, #72	@ 0x48
 8005838:	443b      	add	r3, r7
 800583a:	f813 3c28 	ldrb.w	r3, [r3, #-40]
 800583e:	021b      	lsls	r3, r3, #8
 8005840:	b21a      	sxth	r2, r3
 8005842:	f897 3047 	ldrb.w	r3, [r7, #71]	@ 0x47
 8005846:	3301      	adds	r3, #1
 8005848:	3348      	adds	r3, #72	@ 0x48
 800584a:	443b      	add	r3, r7
 800584c:	f813 3c28 	ldrb.w	r3, [r3, #-40]
 8005850:	b21b      	sxth	r3, r3
 8005852:	4313      	orrs	r3, r2
 8005854:	b21a      	sxth	r2, r3
 8005856:	68bb      	ldr	r3, [r7, #8]
 8005858:	801a      	strh	r2, [r3, #0]
        accel[1] = ((short)fifo_data[ii+2] << 8) | fifo_data[ii+3];
 800585a:	f897 3047 	ldrb.w	r3, [r7, #71]	@ 0x47
 800585e:	3302      	adds	r3, #2
 8005860:	3348      	adds	r3, #72	@ 0x48
 8005862:	443b      	add	r3, r7
 8005864:	f813 3c28 	ldrb.w	r3, [r3, #-40]
 8005868:	021b      	lsls	r3, r3, #8
 800586a:	b219      	sxth	r1, r3
 800586c:	f897 3047 	ldrb.w	r3, [r7, #71]	@ 0x47
 8005870:	3303      	adds	r3, #3
 8005872:	3348      	adds	r3, #72	@ 0x48
 8005874:	443b      	add	r3, r7
 8005876:	f813 3c28 	ldrb.w	r3, [r3, #-40]
 800587a:	b21a      	sxth	r2, r3
 800587c:	68bb      	ldr	r3, [r7, #8]
 800587e:	3302      	adds	r3, #2
 8005880:	430a      	orrs	r2, r1
 8005882:	b212      	sxth	r2, r2
 8005884:	801a      	strh	r2, [r3, #0]
        accel[2] = ((short)fifo_data[ii+4] << 8) | fifo_data[ii+5];
 8005886:	f897 3047 	ldrb.w	r3, [r7, #71]	@ 0x47
 800588a:	3304      	adds	r3, #4
 800588c:	3348      	adds	r3, #72	@ 0x48
 800588e:	443b      	add	r3, r7
 8005890:	f813 3c28 	ldrb.w	r3, [r3, #-40]
 8005894:	021b      	lsls	r3, r3, #8
 8005896:	b219      	sxth	r1, r3
 8005898:	f897 3047 	ldrb.w	r3, [r7, #71]	@ 0x47
 800589c:	3305      	adds	r3, #5
 800589e:	3348      	adds	r3, #72	@ 0x48
 80058a0:	443b      	add	r3, r7
 80058a2:	f813 3c28 	ldrb.w	r3, [r3, #-40]
 80058a6:	b21a      	sxth	r2, r3
 80058a8:	68bb      	ldr	r3, [r7, #8]
 80058aa:	3304      	adds	r3, #4
 80058ac:	430a      	orrs	r2, r1
 80058ae:	b212      	sxth	r2, r2
 80058b0:	801a      	strh	r2, [r3, #0]
        ii += 6;
 80058b2:	f897 3047 	ldrb.w	r3, [r7, #71]	@ 0x47
 80058b6:	3306      	adds	r3, #6
 80058b8:	f887 3047 	strb.w	r3, [r7, #71]	@ 0x47
        sensors[0] |= INV_XYZ_ACCEL;
 80058bc:	6d3b      	ldr	r3, [r7, #80]	@ 0x50
 80058be:	f9b3 3000 	ldrsh.w	r3, [r3]
 80058c2:	f043 0308 	orr.w	r3, r3, #8
 80058c6:	b21a      	sxth	r2, r3
 80058c8:	6d3b      	ldr	r3, [r7, #80]	@ 0x50
 80058ca:	801a      	strh	r2, [r3, #0]
    }

    if (dmp.feature_mask & DMP_FEATURE_SEND_ANY_GYRO) {
 80058cc:	4b34      	ldr	r3, [pc, #208]	@ (80059a0 <dmp_read_fifo+0x2d4>)
 80058ce:	895b      	ldrh	r3, [r3, #10]
 80058d0:	f403 73c0 	and.w	r3, r3, #384	@ 0x180
 80058d4:	2b00      	cmp	r3, #0
 80058d6:	d04c      	beq.n	8005972 <dmp_read_fifo+0x2a6>
        gyro[0] = ((short)fifo_data[ii+0] << 8) | fifo_data[ii+1];
 80058d8:	f897 3047 	ldrb.w	r3, [r7, #71]	@ 0x47
 80058dc:	3348      	adds	r3, #72	@ 0x48
 80058de:	443b      	add	r3, r7
 80058e0:	f813 3c28 	ldrb.w	r3, [r3, #-40]
 80058e4:	021b      	lsls	r3, r3, #8
 80058e6:	b21a      	sxth	r2, r3
 80058e8:	f897 3047 	ldrb.w	r3, [r7, #71]	@ 0x47
 80058ec:	3301      	adds	r3, #1
 80058ee:	3348      	adds	r3, #72	@ 0x48
 80058f0:	443b      	add	r3, r7
 80058f2:	f813 3c28 	ldrb.w	r3, [r3, #-40]
 80058f6:	b21b      	sxth	r3, r3
 80058f8:	4313      	orrs	r3, r2
 80058fa:	b21a      	sxth	r2, r3
 80058fc:	68fb      	ldr	r3, [r7, #12]
 80058fe:	801a      	strh	r2, [r3, #0]
        gyro[1] = ((short)fifo_data[ii+2] << 8) | fifo_data[ii+3];
 8005900:	f897 3047 	ldrb.w	r3, [r7, #71]	@ 0x47
 8005904:	3302      	adds	r3, #2
 8005906:	3348      	adds	r3, #72	@ 0x48
 8005908:	443b      	add	r3, r7
 800590a:	f813 3c28 	ldrb.w	r3, [r3, #-40]
 800590e:	021b      	lsls	r3, r3, #8
 8005910:	b219      	sxth	r1, r3
 8005912:	f897 3047 	ldrb.w	r3, [r7, #71]	@ 0x47
 8005916:	3303      	adds	r3, #3
 8005918:	3348      	adds	r3, #72	@ 0x48
 800591a:	443b      	add	r3, r7
 800591c:	f813 3c28 	ldrb.w	r3, [r3, #-40]
 8005920:	b21a      	sxth	r2, r3
 8005922:	68fb      	ldr	r3, [r7, #12]
 8005924:	3302      	adds	r3, #2
 8005926:	430a      	orrs	r2, r1
 8005928:	b212      	sxth	r2, r2
 800592a:	801a      	strh	r2, [r3, #0]
        gyro[2] = ((short)fifo_data[ii+4] << 8) | fifo_data[ii+5];
 800592c:	f897 3047 	ldrb.w	r3, [r7, #71]	@ 0x47
 8005930:	3304      	adds	r3, #4
 8005932:	3348      	adds	r3, #72	@ 0x48
 8005934:	443b      	add	r3, r7
 8005936:	f813 3c28 	ldrb.w	r3, [r3, #-40]
 800593a:	021b      	lsls	r3, r3, #8
 800593c:	b219      	sxth	r1, r3
 800593e:	f897 3047 	ldrb.w	r3, [r7, #71]	@ 0x47
 8005942:	3305      	adds	r3, #5
 8005944:	3348      	adds	r3, #72	@ 0x48
 8005946:	443b      	add	r3, r7
 8005948:	f813 3c28 	ldrb.w	r3, [r3, #-40]
 800594c:	b21a      	sxth	r2, r3
 800594e:	68fb      	ldr	r3, [r7, #12]
 8005950:	3304      	adds	r3, #4
 8005952:	430a      	orrs	r2, r1
 8005954:	b212      	sxth	r2, r2
 8005956:	801a      	strh	r2, [r3, #0]
        ii += 6;
 8005958:	f897 3047 	ldrb.w	r3, [r7, #71]	@ 0x47
 800595c:	3306      	adds	r3, #6
 800595e:	f887 3047 	strb.w	r3, [r7, #71]	@ 0x47
        sensors[0] |= INV_XYZ_GYRO;
 8005962:	6d3b      	ldr	r3, [r7, #80]	@ 0x50
 8005964:	f9b3 3000 	ldrsh.w	r3, [r3]
 8005968:	f043 0370 	orr.w	r3, r3, #112	@ 0x70
 800596c:	b21a      	sxth	r2, r3
 800596e:	6d3b      	ldr	r3, [r7, #80]	@ 0x50
 8005970:	801a      	strh	r2, [r3, #0]
    }

    /* Gesture data is at the end of the DMP packet. Parse it and call
     * the gesture callbacks (if registered).
     */
    if (dmp.feature_mask & (DMP_FEATURE_TAP | DMP_FEATURE_ANDROID_ORIENT))
 8005972:	4b0b      	ldr	r3, [pc, #44]	@ (80059a0 <dmp_read_fifo+0x2d4>)
 8005974:	895b      	ldrh	r3, [r3, #10]
 8005976:	f003 0303 	and.w	r3, r3, #3
 800597a:	2b00      	cmp	r3, #0
 800597c:	d007      	beq.n	800598e <dmp_read_fifo+0x2c2>
        decode_gesture(fifo_data + ii);
 800597e:	f897 3047 	ldrb.w	r3, [r7, #71]	@ 0x47
 8005982:	f107 0220 	add.w	r2, r7, #32
 8005986:	4413      	add	r3, r2
 8005988:	4618      	mov	r0, r3
 800598a:	f7ff fe5b 	bl	8005644 <decode_gesture>

    get_ms(timestamp);
 800598e:	6838      	ldr	r0, [r7, #0]
 8005990:	f000 f916 	bl	8005bc0 <mpu9255_get_ms>
    return 0;
 8005994:	2300      	movs	r3, #0
}
 8005996:	4618      	mov	r0, r3
 8005998:	3748      	adds	r7, #72	@ 0x48
 800599a:	46bd      	mov	sp, r7
 800599c:	bd80      	pop	{r7, pc}
 800599e:	bf00      	nop
 80059a0:	2000040c 	.word	0x2000040c

080059a4 <dmp_register_tap_cb>:
 *  \n TAP_Z_DOWN
 *  @param[in]  func    Callback function.
 *  @return     0 if successful.
 */
int dmp_register_tap_cb(void (*func)(unsigned char, unsigned char))
{
 80059a4:	b480      	push	{r7}
 80059a6:	b083      	sub	sp, #12
 80059a8:	af00      	add	r7, sp, #0
 80059aa:	6078      	str	r0, [r7, #4]
    dmp.tap_cb = func;
 80059ac:	4a04      	ldr	r2, [pc, #16]	@ (80059c0 <dmp_register_tap_cb+0x1c>)
 80059ae:	687b      	ldr	r3, [r7, #4]
 80059b0:	6013      	str	r3, [r2, #0]
    return 0;
 80059b2:	2300      	movs	r3, #0
}
 80059b4:	4618      	mov	r0, r3
 80059b6:	370c      	adds	r7, #12
 80059b8:	46bd      	mov	sp, r7
 80059ba:	f85d 7b04 	ldr.w	r7, [sp], #4
 80059be:	4770      	bx	lr
 80059c0:	2000040c 	.word	0x2000040c

080059c4 <dmp_register_android_orient_cb>:
 *  @brief      Register a function to be executed on a android orientation event.
 *  @param[in]  func    Callback function.
 *  @return     0 if successful.
 */
int dmp_register_android_orient_cb(void (*func)(unsigned char))
{
 80059c4:	b480      	push	{r7}
 80059c6:	b083      	sub	sp, #12
 80059c8:	af00      	add	r7, sp, #0
 80059ca:	6078      	str	r0, [r7, #4]
    dmp.android_orient_cb = func;
 80059cc:	4a04      	ldr	r2, [pc, #16]	@ (80059e0 <dmp_register_android_orient_cb+0x1c>)
 80059ce:	687b      	ldr	r3, [r7, #4]
 80059d0:	6053      	str	r3, [r2, #4]
    return 0;
 80059d2:	2300      	movs	r3, #0
}
 80059d4:	4618      	mov	r0, r3
 80059d6:	370c      	adds	r7, #12
 80059d8:	46bd      	mov	sp, r7
 80059da:	f85d 7b04 	ldr.w	r7, [sp], #4
 80059de:	4770      	bx	lr
 80059e0:	2000040c 	.word	0x2000040c

080059e4 <LL_SPI_TransmitData8>:
{
 80059e4:	b480      	push	{r7}
 80059e6:	b085      	sub	sp, #20
 80059e8:	af00      	add	r7, sp, #0
 80059ea:	6078      	str	r0, [r7, #4]
 80059ec:	460b      	mov	r3, r1
 80059ee:	70fb      	strb	r3, [r7, #3]
  __IO uint8_t *spidr = ((__IO uint8_t *)&SPIx->DR);
 80059f0:	687b      	ldr	r3, [r7, #4]
 80059f2:	330c      	adds	r3, #12
 80059f4:	60fb      	str	r3, [r7, #12]
  *spidr = TxData;
 80059f6:	68fb      	ldr	r3, [r7, #12]
 80059f8:	78fa      	ldrb	r2, [r7, #3]
 80059fa:	701a      	strb	r2, [r3, #0]
}
 80059fc:	bf00      	nop
 80059fe:	3714      	adds	r7, #20
 8005a00:	46bd      	mov	sp, r7
 8005a02:	f85d 7b04 	ldr.w	r7, [sp], #4
 8005a06:	4770      	bx	lr

08005a08 <LL_GPIO_SetOutputPin>:
{
 8005a08:	b480      	push	{r7}
 8005a0a:	b083      	sub	sp, #12
 8005a0c:	af00      	add	r7, sp, #0
 8005a0e:	6078      	str	r0, [r7, #4]
 8005a10:	6039      	str	r1, [r7, #0]
  WRITE_REG(GPIOx->BSRR, PinMask);
 8005a12:	687b      	ldr	r3, [r7, #4]
 8005a14:	683a      	ldr	r2, [r7, #0]
 8005a16:	619a      	str	r2, [r3, #24]
}
 8005a18:	bf00      	nop
 8005a1a:	370c      	adds	r7, #12
 8005a1c:	46bd      	mov	sp, r7
 8005a1e:	f85d 7b04 	ldr.w	r7, [sp], #4
 8005a22:	4770      	bx	lr

08005a24 <LL_GPIO_ResetOutputPin>:
{
 8005a24:	b480      	push	{r7}
 8005a26:	b083      	sub	sp, #12
 8005a28:	af00      	add	r7, sp, #0
 8005a2a:	6078      	str	r0, [r7, #4]
 8005a2c:	6039      	str	r1, [r7, #0]
  WRITE_REG(GPIOx->BRR, PinMask);
 8005a2e:	687b      	ldr	r3, [r7, #4]
 8005a30:	683a      	ldr	r2, [r7, #0]
 8005a32:	629a      	str	r2, [r3, #40]	@ 0x28
}
 8005a34:	bf00      	nop
 8005a36:	370c      	adds	r7, #12
 8005a38:	46bd      	mov	sp, r7
 8005a3a:	f85d 7b04 	ldr.w	r7, [sp], #4
 8005a3e:	4770      	bx	lr

08005a40 <clearChipSelect>:
static uint8_t writeIndex = 0;
#else
dmp_data_t dmpData;
#endif
// CS is active low. This disables the chip
__STATIC_INLINE void clearChipSelect() {
 8005a40:	b580      	push	{r7, lr}
 8005a42:	af00      	add	r7, sp, #0
	LL_GPIO_SetOutputPin(IMU_CS_GPIO_Port, IMU_CS_Pin);
 8005a44:	f44f 7180 	mov.w	r1, #256	@ 0x100
 8005a48:	f04f 4090 	mov.w	r0, #1207959552	@ 0x48000000
 8005a4c:	f7ff ffdc 	bl	8005a08 <LL_GPIO_SetOutputPin>
}
 8005a50:	bf00      	nop
 8005a52:	bd80      	pop	{r7, pc}

08005a54 <setChipSelect>:

// CS is active low. This enables the chip.
__STATIC_INLINE void setChipSelect() {
 8005a54:	b580      	push	{r7, lr}
 8005a56:	af00      	add	r7, sp, #0
	LL_GPIO_ResetOutputPin(IMU_CS_GPIO_Port, IMU_CS_Pin);
 8005a58:	f44f 7180 	mov.w	r1, #256	@ 0x100
 8005a5c:	f04f 4090 	mov.w	r0, #1207959552	@ 0x48000000
 8005a60:	f7ff ffe0 	bl	8005a24 <LL_GPIO_ResetOutputPin>
}
 8005a64:	bf00      	nop
 8005a66:	bd80      	pop	{r7, pc}

08005a68 <mpu9255_write>:

int mpu9255_write(unsigned char slave_addr, unsigned char reg_addr,
     unsigned char length, unsigned char const *data) {
 8005a68:	b580      	push	{r7, lr}
 8005a6a:	b084      	sub	sp, #16
 8005a6c:	af00      	add	r7, sp, #0
 8005a6e:	603b      	str	r3, [r7, #0]
 8005a70:	4603      	mov	r3, r0
 8005a72:	71fb      	strb	r3, [r7, #7]
 8005a74:	460b      	mov	r3, r1
 8005a76:	71bb      	strb	r3, [r7, #6]
 8005a78:	4613      	mov	r3, r2
 8005a7a:	717b      	strb	r3, [r7, #5]

	(void)slave_addr; // NOT NEEDED, I2C variable. Suppress unused variable warning

	setChipSelect();
 8005a7c:	f7ff ffea 	bl	8005a54 <setChipSelect>

	// 4 byte fifo. Respect that and write when free
	LL_SPI_TransmitData8(SPI1, reg_addr);
 8005a80:	79bb      	ldrb	r3, [r7, #6]
 8005a82:	4619      	mov	r1, r3
 8005a84:	481d      	ldr	r0, [pc, #116]	@ (8005afc <mpu9255_write+0x94>)
 8005a86:	f7ff ffad 	bl	80059e4 <LL_SPI_TransmitData8>
	for (uint8_t i = 0; i < length; i++) {
 8005a8a:	2300      	movs	r3, #0
 8005a8c:	73fb      	strb	r3, [r7, #15]
 8005a8e:	e011      	b.n	8005ab4 <mpu9255_write+0x4c>
		while (!(SPI1->SR & SPI_SR_TXE)) {
 8005a90:	bf00      	nop
 8005a92:	4b1a      	ldr	r3, [pc, #104]	@ (8005afc <mpu9255_write+0x94>)
 8005a94:	689b      	ldr	r3, [r3, #8]
 8005a96:	f003 0302 	and.w	r3, r3, #2
 8005a9a:	2b00      	cmp	r3, #0
 8005a9c:	d0f9      	beq.n	8005a92 <mpu9255_write+0x2a>
		};
		LL_SPI_TransmitData8(SPI1, data[i]);
 8005a9e:	7bfb      	ldrb	r3, [r7, #15]
 8005aa0:	683a      	ldr	r2, [r7, #0]
 8005aa2:	4413      	add	r3, r2
 8005aa4:	781b      	ldrb	r3, [r3, #0]
 8005aa6:	4619      	mov	r1, r3
 8005aa8:	4814      	ldr	r0, [pc, #80]	@ (8005afc <mpu9255_write+0x94>)
 8005aaa:	f7ff ff9b 	bl	80059e4 <LL_SPI_TransmitData8>
	for (uint8_t i = 0; i < length; i++) {
 8005aae:	7bfb      	ldrb	r3, [r7, #15]
 8005ab0:	3301      	adds	r3, #1
 8005ab2:	73fb      	strb	r3, [r7, #15]
 8005ab4:	7bfa      	ldrb	r2, [r7, #15]
 8005ab6:	797b      	ldrb	r3, [r7, #5]
 8005ab8:	429a      	cmp	r2, r3
 8005aba:	d3e9      	bcc.n	8005a90 <mpu9255_write+0x28>
	}

	// wait for completion
	while ((SPI1->SR & SPI_SR_FTLVL)) {
 8005abc:	bf00      	nop
 8005abe:	4b0f      	ldr	r3, [pc, #60]	@ (8005afc <mpu9255_write+0x94>)
 8005ac0:	689b      	ldr	r3, [r3, #8]
 8005ac2:	f403 53c0 	and.w	r3, r3, #6144	@ 0x1800
 8005ac6:	2b00      	cmp	r3, #0
 8005ac8:	d1f9      	bne.n	8005abe <mpu9255_write+0x56>
	}; 	//transmit fifo empty?
	while ((SPI1->SR & SPI_SR_BSY)) {
 8005aca:	bf00      	nop
 8005acc:	4b0b      	ldr	r3, [pc, #44]	@ (8005afc <mpu9255_write+0x94>)
 8005ace:	689b      	ldr	r3, [r3, #8]
 8005ad0:	f003 0380 	and.w	r3, r3, #128	@ 0x80
 8005ad4:	2b00      	cmp	r3, #0
 8005ad6:	d1f9      	bne.n	8005acc <mpu9255_write+0x64>
	}; 	// no longer busy
	clearChipSelect();
 8005ad8:	f7ff ffb2 	bl	8005a40 <clearChipSelect>

	// clear receive fifo. Overrun data will be lost, but we are only sending.
	while ((SPI1->SR & SPI_SR_FRLVL)) {
 8005adc:	e002      	b.n	8005ae4 <mpu9255_write+0x7c>
		uint8_t dummy = SPI1->DR; 			// clear rx fifo from the receives.
 8005ade:	4b07      	ldr	r3, [pc, #28]	@ (8005afc <mpu9255_write+0x94>)
 8005ae0:	68db      	ldr	r3, [r3, #12]
 8005ae2:	73bb      	strb	r3, [r7, #14]
	while ((SPI1->SR & SPI_SR_FRLVL)) {
 8005ae4:	4b05      	ldr	r3, [pc, #20]	@ (8005afc <mpu9255_write+0x94>)
 8005ae6:	689b      	ldr	r3, [r3, #8]
 8005ae8:	f403 63c0 	and.w	r3, r3, #1536	@ 0x600
 8005aec:	2b00      	cmp	r3, #0
 8005aee:	d1f6      	bne.n	8005ade <mpu9255_write+0x76>
		(void) dummy;						// suppress unused variable warning
	};
	return 0;
 8005af0:	2300      	movs	r3, #0
}
 8005af2:	4618      	mov	r0, r3
 8005af4:	3710      	adds	r7, #16
 8005af6:	46bd      	mov	sp, r7
 8005af8:	bd80      	pop	{r7, pc}
 8005afa:	bf00      	nop
 8005afc:	40013000 	.word	0x40013000

08005b00 <mpu9255_read>:
 * Read assumes that calling function is providing a data location big enough
 * to handle the size of length. Be aware that this can overrun the calling
 * memory location if not sized appropriately!
 */
int mpu9255_read(unsigned char slave_addr, unsigned char reg_addr,
      unsigned char length, unsigned char *data) {
 8005b00:	b580      	push	{r7, lr}
 8005b02:	b084      	sub	sp, #16
 8005b04:	af00      	add	r7, sp, #0
 8005b06:	603b      	str	r3, [r7, #0]
 8005b08:	4603      	mov	r3, r0
 8005b0a:	71fb      	strb	r3, [r7, #7]
 8005b0c:	460b      	mov	r3, r1
 8005b0e:	71bb      	strb	r3, [r7, #6]
 8005b10:	4613      	mov	r3, r2
 8005b12:	717b      	strb	r3, [r7, #5]

	(void) slave_addr; // not used, suppress unused variable warning.

	setChipSelect();
 8005b14:	f7ff ff9e 	bl	8005a54 <setChipSelect>

	// 4 byte fifo not used. Reads need to be captured.
	LL_SPI_TransmitData8(SPI1, (reg_addr | 0x80)); // MSb set signals read.
 8005b18:	79bb      	ldrb	r3, [r7, #6]
 8005b1a:	f063 037f 	orn	r3, r3, #127	@ 0x7f
 8005b1e:	b2db      	uxtb	r3, r3
 8005b20:	4619      	mov	r1, r3
 8005b22:	481b      	ldr	r0, [pc, #108]	@ (8005b90 <mpu9255_read+0x90>)
 8005b24:	f7ff ff5e 	bl	80059e4 <LL_SPI_TransmitData8>
	while ((SPI1->SR & SPI_SR_FRLVL) == 0) {}; 	//wait for SR buffer to have data
 8005b28:	bf00      	nop
 8005b2a:	4b19      	ldr	r3, [pc, #100]	@ (8005b90 <mpu9255_read+0x90>)
 8005b2c:	689b      	ldr	r3, [r3, #8]
 8005b2e:	f403 63c0 	and.w	r3, r3, #1536	@ 0x600
 8005b32:	2b00      	cmp	r3, #0
 8005b34:	d0f9      	beq.n	8005b2a <mpu9255_read+0x2a>
	uint8_t dummy = SPI1->DR; 				// first byte is from cmd transfer. Ignore
 8005b36:	4b16      	ldr	r3, [pc, #88]	@ (8005b90 <mpu9255_read+0x90>)
 8005b38:	68db      	ldr	r3, [r3, #12]
 8005b3a:	73bb      	strb	r3, [r7, #14]
	(void)dummy; // suppress unused variable warning

	// read the data sequentially
	for (uint8_t i = 0; i < length; i++) {
 8005b3c:	2300      	movs	r3, #0
 8005b3e:	73fb      	strb	r3, [r7, #15]
 8005b40:	e014      	b.n	8005b6c <mpu9255_read+0x6c>
		LL_SPI_TransmitData8(SPI1, 0xFF);	// send clocking byte, not used.
 8005b42:	21ff      	movs	r1, #255	@ 0xff
 8005b44:	4812      	ldr	r0, [pc, #72]	@ (8005b90 <mpu9255_read+0x90>)
 8005b46:	f7ff ff4d 	bl	80059e4 <LL_SPI_TransmitData8>
		while ((SPI1->SR & SPI_SR_FRLVL) == 0) {}; // wait for SR buffer to have data
 8005b4a:	bf00      	nop
 8005b4c:	4b10      	ldr	r3, [pc, #64]	@ (8005b90 <mpu9255_read+0x90>)
 8005b4e:	689b      	ldr	r3, [r3, #8]
 8005b50:	f403 63c0 	and.w	r3, r3, #1536	@ 0x600
 8005b54:	2b00      	cmp	r3, #0
 8005b56:	d0f9      	beq.n	8005b4c <mpu9255_read+0x4c>
		data[i] = SPI1->DR;
 8005b58:	4b0d      	ldr	r3, [pc, #52]	@ (8005b90 <mpu9255_read+0x90>)
 8005b5a:	68d9      	ldr	r1, [r3, #12]
 8005b5c:	7bfb      	ldrb	r3, [r7, #15]
 8005b5e:	683a      	ldr	r2, [r7, #0]
 8005b60:	4413      	add	r3, r2
 8005b62:	b2ca      	uxtb	r2, r1
 8005b64:	701a      	strb	r2, [r3, #0]
	for (uint8_t i = 0; i < length; i++) {
 8005b66:	7bfb      	ldrb	r3, [r7, #15]
 8005b68:	3301      	adds	r3, #1
 8005b6a:	73fb      	strb	r3, [r7, #15]
 8005b6c:	7bfa      	ldrb	r2, [r7, #15]
 8005b6e:	797b      	ldrb	r3, [r7, #5]
 8005b70:	429a      	cmp	r2, r3
 8005b72:	d3e6      	bcc.n	8005b42 <mpu9255_read+0x42>
	}

	while ((SPI1->SR & SPI_SR_BSY)) {
 8005b74:	bf00      	nop
 8005b76:	4b06      	ldr	r3, [pc, #24]	@ (8005b90 <mpu9255_read+0x90>)
 8005b78:	689b      	ldr	r3, [r3, #8]
 8005b7a:	f003 0380 	and.w	r3, r3, #128	@ 0x80
 8005b7e:	2b00      	cmp	r3, #0
 8005b80:	d1f9      	bne.n	8005b76 <mpu9255_read+0x76>
		}; 	// no longer busy
	clearChipSelect();
 8005b82:	f7ff ff5d 	bl	8005a40 <clearChipSelect>

	return 0;
 8005b86:	2300      	movs	r3, #0
}
 8005b88:	4618      	mov	r0, r3
 8005b8a:	3710      	adds	r7, #16
 8005b8c:	46bd      	mov	sp, r7
 8005b8e:	bd80      	pop	{r7, pc}
 8005b90:	40013000 	.word	0x40013000

08005b94 <mpu9255_delay_ms>:

void mpu9255_delay_ms(unsigned long num_ms) {
 8005b94:	b480      	push	{r7}
 8005b96:	b083      	sub	sp, #12
 8005b98:	af00      	add	r7, sp, #0
 8005b9a:	6078      	str	r0, [r7, #4]
	ms_delay = num_ms;
 8005b9c:	4a07      	ldr	r2, [pc, #28]	@ (8005bbc <mpu9255_delay_ms+0x28>)
 8005b9e:	687b      	ldr	r3, [r7, #4]
 8005ba0:	6013      	str	r3, [r2, #0]
	while (ms_delay > 0) {
 8005ba2:	bf00      	nop
 8005ba4:	4b05      	ldr	r3, [pc, #20]	@ (8005bbc <mpu9255_delay_ms+0x28>)
 8005ba6:	681b      	ldr	r3, [r3, #0]
 8005ba8:	2b00      	cmp	r3, #0
 8005baa:	d1fb      	bne.n	8005ba4 <mpu9255_delay_ms+0x10>
		// do nothing while we wait.
	}
}
 8005bac:	bf00      	nop
 8005bae:	bf00      	nop
 8005bb0:	370c      	adds	r7, #12
 8005bb2:	46bd      	mov	sp, r7
 8005bb4:	f85d 7b04 	ldr.w	r7, [sp], #4
 8005bb8:	4770      	bx	lr
 8005bba:	bf00      	nop
 8005bbc:	20000448 	.word	0x20000448

08005bc0 <mpu9255_get_ms>:

void mpu9255_get_ms(unsigned long *count) {
 8005bc0:	b480      	push	{r7}
 8005bc2:	b083      	sub	sp, #12
 8005bc4:	af00      	add	r7, sp, #0
 8005bc6:	6078      	str	r0, [r7, #4]
	*count = g_ul_ms_ticks;
 8005bc8:	4b04      	ldr	r3, [pc, #16]	@ (8005bdc <mpu9255_get_ms+0x1c>)
 8005bca:	681a      	ldr	r2, [r3, #0]
 8005bcc:	687b      	ldr	r3, [r7, #4]
 8005bce:	601a      	str	r2, [r3, #0]
}
 8005bd0:	bf00      	nop
 8005bd2:	370c      	adds	r7, #12
 8005bd4:	46bd      	mov	sp, r7
 8005bd6:	f85d 7b04 	ldr.w	r7, [sp], #4
 8005bda:	4770      	bx	lr
 8005bdc:	20000444 	.word	0x20000444

08005be0 <delaytimer_event_handler>:

void delaytimer_event_handler() {
 8005be0:	b480      	push	{r7}
 8005be2:	af00      	add	r7, sp, #0
	g_ul_ms_ticks++;
 8005be4:	4b09      	ldr	r3, [pc, #36]	@ (8005c0c <delaytimer_event_handler+0x2c>)
 8005be6:	681b      	ldr	r3, [r3, #0]
 8005be8:	3301      	adds	r3, #1
 8005bea:	4a08      	ldr	r2, [pc, #32]	@ (8005c0c <delaytimer_event_handler+0x2c>)
 8005bec:	6013      	str	r3, [r2, #0]
	if (ms_delay) {
 8005bee:	4b08      	ldr	r3, [pc, #32]	@ (8005c10 <delaytimer_event_handler+0x30>)
 8005bf0:	681b      	ldr	r3, [r3, #0]
 8005bf2:	2b00      	cmp	r3, #0
 8005bf4:	d004      	beq.n	8005c00 <delaytimer_event_handler+0x20>
		ms_delay--;
 8005bf6:	4b06      	ldr	r3, [pc, #24]	@ (8005c10 <delaytimer_event_handler+0x30>)
 8005bf8:	681b      	ldr	r3, [r3, #0]
 8005bfa:	3b01      	subs	r3, #1
 8005bfc:	4a04      	ldr	r2, [pc, #16]	@ (8005c10 <delaytimer_event_handler+0x30>)
 8005bfe:	6013      	str	r3, [r2, #0]
	}
}
 8005c00:	bf00      	nop
 8005c02:	46bd      	mov	sp, r7
 8005c04:	f85d 7b04 	ldr.w	r7, [sp], #4
 8005c08:	4770      	bx	lr
 8005c0a:	bf00      	nop
 8005c0c:	20000444 	.word	0x20000444
 8005c10:	20000448 	.word	0x20000448

08005c14 <readTimer_event_handler>:

/*
 * Process reading the fifo from the mpu9255
 */
void readTimer_event_handler() {
 8005c14:	b480      	push	{r7}
 8005c16:	af00      	add	r7, sp, #0
	updateRequired = true;
 8005c18:	4b03      	ldr	r3, [pc, #12]	@ (8005c28 <readTimer_event_handler+0x14>)
 8005c1a:	2201      	movs	r2, #1
 8005c1c:	601a      	str	r2, [r3, #0]
}
 8005c1e:	bf00      	nop
 8005c20:	46bd      	mov	sp, r7
 8005c22:	f85d 7b04 	ldr.w	r7, [sp], #4
 8005c26:	4770      	bx	lr
 8005c28:	2000044c 	.word	0x2000044c

08005c2c <android_orient_cb>:

void android_orient_cb(unsigned char orientation) {
 8005c2c:	b480      	push	{r7}
 8005c2e:	b083      	sub	sp, #12
 8005c30:	af00      	add	r7, sp, #0
 8005c32:	4603      	mov	r3, r0
 8005c34:	71fb      	strb	r3, [r7, #7]
	// do nothing, not used.
}
 8005c36:	bf00      	nop
 8005c38:	370c      	adds	r7, #12
 8005c3a:	46bd      	mov	sp, r7
 8005c3c:	f85d 7b04 	ldr.w	r7, [sp], #4
 8005c40:	4770      	bx	lr

08005c42 <tap_cb>:
void tap_cb(unsigned char direction, unsigned char count) {
 8005c42:	b480      	push	{r7}
 8005c44:	b083      	sub	sp, #12
 8005c46:	af00      	add	r7, sp, #0
 8005c48:	4603      	mov	r3, r0
 8005c4a:	460a      	mov	r2, r1
 8005c4c:	71fb      	strb	r3, [r7, #7]
 8005c4e:	4613      	mov	r3, r2
 8005c50:	71bb      	strb	r3, [r7, #6]
	// do nothing, not used.
}
 8005c52:	bf00      	nop
 8005c54:	370c      	adds	r7, #12
 8005c56:	46bd      	mov	sp, r7
 8005c58:	f85d 7b04 	ldr.w	r7, [sp], #4
 8005c5c:	4770      	bx	lr

08005c5e <inv_row_2_scale>:

static  unsigned short inv_row_2_scale(const signed char *row)
{
 8005c5e:	b480      	push	{r7}
 8005c60:	b085      	sub	sp, #20
 8005c62:	af00      	add	r7, sp, #0
 8005c64:	6078      	str	r0, [r7, #4]
    unsigned short b;

    if (row[0] > 0)
 8005c66:	687b      	ldr	r3, [r7, #4]
 8005c68:	f993 3000 	ldrsb.w	r3, [r3]
 8005c6c:	2b00      	cmp	r3, #0
 8005c6e:	dd02      	ble.n	8005c76 <inv_row_2_scale+0x18>
        b = 0;
 8005c70:	2300      	movs	r3, #0
 8005c72:	81fb      	strh	r3, [r7, #14]
 8005c74:	e02d      	b.n	8005cd2 <inv_row_2_scale+0x74>
    else if (row[0] < 0)
 8005c76:	687b      	ldr	r3, [r7, #4]
 8005c78:	f993 3000 	ldrsb.w	r3, [r3]
 8005c7c:	2b00      	cmp	r3, #0
 8005c7e:	da02      	bge.n	8005c86 <inv_row_2_scale+0x28>
        b = 4;
 8005c80:	2304      	movs	r3, #4
 8005c82:	81fb      	strh	r3, [r7, #14]
 8005c84:	e025      	b.n	8005cd2 <inv_row_2_scale+0x74>
    else if (row[1] > 0)
 8005c86:	687b      	ldr	r3, [r7, #4]
 8005c88:	3301      	adds	r3, #1
 8005c8a:	f993 3000 	ldrsb.w	r3, [r3]
 8005c8e:	2b00      	cmp	r3, #0
 8005c90:	dd02      	ble.n	8005c98 <inv_row_2_scale+0x3a>
        b = 1;
 8005c92:	2301      	movs	r3, #1
 8005c94:	81fb      	strh	r3, [r7, #14]
 8005c96:	e01c      	b.n	8005cd2 <inv_row_2_scale+0x74>
    else if (row[1] < 0)
 8005c98:	687b      	ldr	r3, [r7, #4]
 8005c9a:	3301      	adds	r3, #1
 8005c9c:	f993 3000 	ldrsb.w	r3, [r3]
 8005ca0:	2b00      	cmp	r3, #0
 8005ca2:	da02      	bge.n	8005caa <inv_row_2_scale+0x4c>
        b = 5;
 8005ca4:	2305      	movs	r3, #5
 8005ca6:	81fb      	strh	r3, [r7, #14]
 8005ca8:	e013      	b.n	8005cd2 <inv_row_2_scale+0x74>
    else if (row[2] > 0)
 8005caa:	687b      	ldr	r3, [r7, #4]
 8005cac:	3302      	adds	r3, #2
 8005cae:	f993 3000 	ldrsb.w	r3, [r3]
 8005cb2:	2b00      	cmp	r3, #0
 8005cb4:	dd02      	ble.n	8005cbc <inv_row_2_scale+0x5e>
        b = 2;
 8005cb6:	2302      	movs	r3, #2
 8005cb8:	81fb      	strh	r3, [r7, #14]
 8005cba:	e00a      	b.n	8005cd2 <inv_row_2_scale+0x74>
    else if (row[2] < 0)
 8005cbc:	687b      	ldr	r3, [r7, #4]
 8005cbe:	3302      	adds	r3, #2
 8005cc0:	f993 3000 	ldrsb.w	r3, [r3]
 8005cc4:	2b00      	cmp	r3, #0
 8005cc6:	da02      	bge.n	8005cce <inv_row_2_scale+0x70>
        b = 6;
 8005cc8:	2306      	movs	r3, #6
 8005cca:	81fb      	strh	r3, [r7, #14]
 8005ccc:	e001      	b.n	8005cd2 <inv_row_2_scale+0x74>
    else
        b = 7;      // error
 8005cce:	2307      	movs	r3, #7
 8005cd0:	81fb      	strh	r3, [r7, #14]
    return b;
 8005cd2:	89fb      	ldrh	r3, [r7, #14]
}
 8005cd4:	4618      	mov	r0, r3
 8005cd6:	3714      	adds	r7, #20
 8005cd8:	46bd      	mov	sp, r7
 8005cda:	f85d 7b04 	ldr.w	r7, [sp], #4
 8005cde:	4770      	bx	lr

08005ce0 <inv_orientation_matrix_to_scalar>:


static  unsigned short inv_orientation_matrix_to_scalar(
    const signed char *mtx)
{
 8005ce0:	b580      	push	{r7, lr}
 8005ce2:	b084      	sub	sp, #16
 8005ce4:	af00      	add	r7, sp, #0
 8005ce6:	6078      	str	r0, [r7, #4]
    unsigned short scalar;
    scalar = inv_row_2_scale(mtx);
 8005ce8:	6878      	ldr	r0, [r7, #4]
 8005cea:	f7ff ffb8 	bl	8005c5e <inv_row_2_scale>
 8005cee:	4603      	mov	r3, r0
 8005cf0:	81fb      	strh	r3, [r7, #14]
    scalar |= inv_row_2_scale(mtx + 3) << 3;
 8005cf2:	687b      	ldr	r3, [r7, #4]
 8005cf4:	3303      	adds	r3, #3
 8005cf6:	4618      	mov	r0, r3
 8005cf8:	f7ff ffb1 	bl	8005c5e <inv_row_2_scale>
 8005cfc:	4603      	mov	r3, r0
 8005cfe:	00db      	lsls	r3, r3, #3
 8005d00:	b21a      	sxth	r2, r3
 8005d02:	f9b7 300e 	ldrsh.w	r3, [r7, #14]
 8005d06:	4313      	orrs	r3, r2
 8005d08:	b21b      	sxth	r3, r3
 8005d0a:	81fb      	strh	r3, [r7, #14]
    scalar |= inv_row_2_scale(mtx + 6) << 6;
 8005d0c:	687b      	ldr	r3, [r7, #4]
 8005d0e:	3306      	adds	r3, #6
 8005d10:	4618      	mov	r0, r3
 8005d12:	f7ff ffa4 	bl	8005c5e <inv_row_2_scale>
 8005d16:	4603      	mov	r3, r0
 8005d18:	019b      	lsls	r3, r3, #6
 8005d1a:	b21a      	sxth	r2, r3
 8005d1c:	f9b7 300e 	ldrsh.w	r3, [r7, #14]
 8005d20:	4313      	orrs	r3, r2
 8005d22:	b21b      	sxth	r3, r3
 8005d24:	81fb      	strh	r3, [r7, #14]


    return scalar;
 8005d26:	89fb      	ldrh	r3, [r7, #14]
}
 8005d28:	4618      	mov	r0, r3
 8005d2a:	3710      	adds	r7, #16
 8005d2c:	46bd      	mov	sp, r7
 8005d2e:	bd80      	pop	{r7, pc}

08005d30 <mpu9255_getLast>:

dmp_data_t * mpu9255_getLast() {
 8005d30:	b580      	push	{r7, lr}
 8005d32:	af00      	add	r7, sp, #0
#if DEBUG_DMP
	if (readIndex != writeIndex) {
 8005d34:	4b12      	ldr	r3, [pc, #72]	@ (8005d80 <mpu9255_getLast+0x50>)
 8005d36:	781a      	ldrb	r2, [r3, #0]
 8005d38:	4b12      	ldr	r3, [pc, #72]	@ (8005d84 <mpu9255_getLast+0x54>)
 8005d3a:	781b      	ldrb	r3, [r3, #0]
 8005d3c:	429a      	cmp	r2, r3
 8005d3e:	d01b      	beq.n	8005d78 <mpu9255_getLast+0x48>
		memcpy(&lastDmpData, &dmpData[readIndex], sizeof(dmp_data_t));
 8005d40:	4b0f      	ldr	r3, [pc, #60]	@ (8005d80 <mpu9255_getLast+0x50>)
 8005d42:	781b      	ldrb	r3, [r3, #0]
 8005d44:	461a      	mov	r2, r3
 8005d46:	4613      	mov	r3, r2
 8005d48:	00db      	lsls	r3, r3, #3
 8005d4a:	4413      	add	r3, r2
 8005d4c:	009b      	lsls	r3, r3, #2
 8005d4e:	4a0e      	ldr	r2, [pc, #56]	@ (8005d88 <mpu9255_getLast+0x58>)
 8005d50:	4413      	add	r3, r2
 8005d52:	2224      	movs	r2, #36	@ 0x24
 8005d54:	4619      	mov	r1, r3
 8005d56:	480d      	ldr	r0, [pc, #52]	@ (8005d8c <mpu9255_getLast+0x5c>)
 8005d58:	f001 fb88 	bl	800746c <memcpy>
		return &dmpData[readIndex++];
 8005d5c:	4b08      	ldr	r3, [pc, #32]	@ (8005d80 <mpu9255_getLast+0x50>)
 8005d5e:	781b      	ldrb	r3, [r3, #0]
 8005d60:	1c5a      	adds	r2, r3, #1
 8005d62:	b2d1      	uxtb	r1, r2
 8005d64:	4a06      	ldr	r2, [pc, #24]	@ (8005d80 <mpu9255_getLast+0x50>)
 8005d66:	7011      	strb	r1, [r2, #0]
 8005d68:	461a      	mov	r2, r3
 8005d6a:	4613      	mov	r3, r2
 8005d6c:	00db      	lsls	r3, r3, #3
 8005d6e:	4413      	add	r3, r2
 8005d70:	009b      	lsls	r3, r3, #2
 8005d72:	4a05      	ldr	r2, [pc, #20]	@ (8005d88 <mpu9255_getLast+0x58>)
 8005d74:	4413      	add	r3, r2
 8005d76:	e000      	b.n	8005d7a <mpu9255_getLast+0x4a>
	} else {
		// no new data, keep returning last one
		return &lastDmpData;
 8005d78:	4b04      	ldr	r3, [pc, #16]	@ (8005d8c <mpu9255_getLast+0x5c>)
	}
#else
	return &dmpData;
#endif
}
 8005d7a:	4618      	mov	r0, r3
 8005d7c:	bd80      	pop	{r7, pc}
 8005d7e:	bf00      	nop
 8005d80:	20002874 	.word	0x20002874
 8005d84:	20002875 	.word	0x20002875
 8005d88:	20000450 	.word	0x20000450
 8005d8c:	20002850 	.word	0x20002850

08005d90 <mpu9255_process>:

void mpu9255_process() {
 8005d90:	b5b0      	push	{r4, r5, r7, lr}
 8005d92:	b084      	sub	sp, #16
 8005d94:	af02      	add	r7, sp, #8


	if (updateRequired) {
 8005d96:	4b30      	ldr	r3, [pc, #192]	@ (8005e58 <mpu9255_process+0xc8>)
 8005d98:	681b      	ldr	r3, [r3, #0]
 8005d9a:	2b00      	cmp	r3, #0
 8005d9c:	d057      	beq.n	8005e4e <mpu9255_process+0xbe>

		unsigned char more;


#if DEBUG_DMP
		if (dmp_read_fifo(dmpData[writeIndex].gyro.array,
 8005d9e:	4b2f      	ldr	r3, [pc, #188]	@ (8005e5c <mpu9255_process+0xcc>)
 8005da0:	781b      	ldrb	r3, [r3, #0]
 8005da2:	461a      	mov	r2, r3
 8005da4:	4613      	mov	r3, r2
 8005da6:	00db      	lsls	r3, r3, #3
 8005da8:	4413      	add	r3, r2
 8005daa:	009b      	lsls	r3, r3, #2
 8005dac:	4a2c      	ldr	r2, [pc, #176]	@ (8005e60 <mpu9255_process+0xd0>)
 8005dae:	4413      	add	r3, r2
 8005db0:	1d98      	adds	r0, r3, #6
				dmpData[writeIndex].acceleration.array,
 8005db2:	4b2a      	ldr	r3, [pc, #168]	@ (8005e5c <mpu9255_process+0xcc>)
 8005db4:	781b      	ldrb	r3, [r3, #0]
 8005db6:	461a      	mov	r2, r3
 8005db8:	4613      	mov	r3, r2
 8005dba:	00db      	lsls	r3, r3, #3
 8005dbc:	4413      	add	r3, r2
 8005dbe:	009b      	lsls	r3, r3, #2
 8005dc0:	4a27      	ldr	r2, [pc, #156]	@ (8005e60 <mpu9255_process+0xd0>)
 8005dc2:	1899      	adds	r1, r3, r2
				dmpData[writeIndex].quaternarion.array,
 8005dc4:	4b25      	ldr	r3, [pc, #148]	@ (8005e5c <mpu9255_process+0xcc>)
 8005dc6:	781b      	ldrb	r3, [r3, #0]
 8005dc8:	461a      	mov	r2, r3
 8005dca:	4613      	mov	r3, r2
 8005dcc:	00db      	lsls	r3, r3, #3
 8005dce:	4413      	add	r3, r2
 8005dd0:	009b      	lsls	r3, r3, #2
 8005dd2:	3308      	adds	r3, #8
 8005dd4:	4a22      	ldr	r2, [pc, #136]	@ (8005e60 <mpu9255_process+0xd0>)
 8005dd6:	4413      	add	r3, r2
 8005dd8:	1d1c      	adds	r4, r3, #4
				&dmpData[writeIndex].timestamp, &dmpData[writeIndex].sensors,
 8005dda:	4b20      	ldr	r3, [pc, #128]	@ (8005e5c <mpu9255_process+0xcc>)
 8005ddc:	781b      	ldrb	r3, [r3, #0]
 8005dde:	461a      	mov	r2, r3
		if (dmp_read_fifo(dmpData[writeIndex].gyro.array,
 8005de0:	4613      	mov	r3, r2
 8005de2:	00db      	lsls	r3, r3, #3
 8005de4:	4413      	add	r3, r2
 8005de6:	009b      	lsls	r3, r3, #2
 8005de8:	3318      	adds	r3, #24
 8005dea:	4a1d      	ldr	r2, [pc, #116]	@ (8005e60 <mpu9255_process+0xd0>)
 8005dec:	4413      	add	r3, r2
 8005dee:	1d1d      	adds	r5, r3, #4
				&dmpData[writeIndex].timestamp, &dmpData[writeIndex].sensors,
 8005df0:	4b1a      	ldr	r3, [pc, #104]	@ (8005e5c <mpu9255_process+0xcc>)
 8005df2:	781b      	ldrb	r3, [r3, #0]
 8005df4:	461a      	mov	r2, r3
		if (dmp_read_fifo(dmpData[writeIndex].gyro.array,
 8005df6:	4613      	mov	r3, r2
 8005df8:	00db      	lsls	r3, r3, #3
 8005dfa:	4413      	add	r3, r2
 8005dfc:	009b      	lsls	r3, r3, #2
 8005dfe:	3320      	adds	r3, #32
 8005e00:	4a17      	ldr	r2, [pc, #92]	@ (8005e60 <mpu9255_process+0xd0>)
 8005e02:	4413      	add	r3, r2
 8005e04:	1dfa      	adds	r2, r7, #7
 8005e06:	9201      	str	r2, [sp, #4]
 8005e08:	9300      	str	r3, [sp, #0]
 8005e0a:	462b      	mov	r3, r5
 8005e0c:	4622      	mov	r2, r4
 8005e0e:	f7ff fc5d 	bl	80056cc <dmp_read_fifo>
 8005e12:	4603      	mov	r3, r0
 8005e14:	2b00      	cmp	r3, #0
 8005e16:	d11a      	bne.n	8005e4e <mpu9255_process+0xbe>
				&more) == 0) {

			if (dmpData[writeIndex].sensors == 0x178) {
 8005e18:	4b10      	ldr	r3, [pc, #64]	@ (8005e5c <mpu9255_process+0xcc>)
 8005e1a:	781b      	ldrb	r3, [r3, #0]
 8005e1c:	4619      	mov	r1, r3
 8005e1e:	4a10      	ldr	r2, [pc, #64]	@ (8005e60 <mpu9255_process+0xd0>)
 8005e20:	460b      	mov	r3, r1
 8005e22:	00db      	lsls	r3, r3, #3
 8005e24:	440b      	add	r3, r1
 8005e26:	009b      	lsls	r3, r3, #2
 8005e28:	4413      	add	r3, r2
 8005e2a:	3320      	adds	r3, #32
 8005e2c:	f9b3 3000 	ldrsh.w	r3, [r3]
 8005e30:	f5b3 7fbc 	cmp.w	r3, #376	@ 0x178
 8005e34:	d105      	bne.n	8005e42 <mpu9255_process+0xb2>
				writeIndex++;
 8005e36:	4b09      	ldr	r3, [pc, #36]	@ (8005e5c <mpu9255_process+0xcc>)
 8005e38:	781b      	ldrb	r3, [r3, #0]
 8005e3a:	3301      	adds	r3, #1
 8005e3c:	b2da      	uxtb	r2, r3
 8005e3e:	4b07      	ldr	r3, [pc, #28]	@ (8005e5c <mpu9255_process+0xcc>)
 8005e40:	701a      	strb	r2, [r3, #0]
		// if new data is valid, copy over last saved data
		if (d.sensors != 0) {
			memcpy(&dmpData, &d, sizeof(dmp_data_t));
		}
#endif
			if (!more) {
 8005e42:	79fb      	ldrb	r3, [r7, #7]
 8005e44:	2b00      	cmp	r3, #0
 8005e46:	d102      	bne.n	8005e4e <mpu9255_process+0xbe>
				updateRequired = false;
 8005e48:	4b03      	ldr	r3, [pc, #12]	@ (8005e58 <mpu9255_process+0xc8>)
 8005e4a:	2200      	movs	r2, #0
 8005e4c:	601a      	str	r2, [r3, #0]
			}
		}

	}
}
 8005e4e:	bf00      	nop
 8005e50:	3708      	adds	r7, #8
 8005e52:	46bd      	mov	sp, r7
 8005e54:	bdb0      	pop	{r4, r5, r7, pc}
 8005e56:	bf00      	nop
 8005e58:	2000044c 	.word	0x2000044c
 8005e5c:	20002875 	.word	0x20002875
 8005e60:	20000450 	.word	0x20000450

08005e64 <mpu9255_init>:

void mpu9255_init(uint32_t readPeriod) {
 8005e64:	b580      	push	{r7, lr}
 8005e66:	b088      	sub	sp, #32
 8005e68:	af00      	add	r7, sp, #0
 8005e6a:	6078      	str	r0, [r7, #4]
//	spi1_init(); ??
	clearChipSelect();
 8005e6c:	f7ff fde8 	bl	8005a40 <clearChipSelect>
	uint8_t whoami;
	mpu9255_read(0, 0x75, 1, &whoami);
 8005e70:	f107 031f 	add.w	r3, r7, #31
 8005e74:	2201      	movs	r2, #1
 8005e76:	2175      	movs	r1, #117	@ 0x75
 8005e78:	2000      	movs	r0, #0
 8005e7a:	f7ff fe41 	bl	8005b00 <mpu9255_read>
	delayTimer.mode = APP_TIMER_MODE_CONTINUOUS;
 8005e7e:	4b2b      	ldr	r3, [pc, #172]	@ (8005f2c <mpu9255_init+0xc8>)
 8005e80:	2200      	movs	r2, #0
 8005e82:	721a      	strb	r2, [r3, #8]
	delayTimer.alarm = 1; // 1ms
 8005e84:	4b29      	ldr	r3, [pc, #164]	@ (8005f2c <mpu9255_init+0xc8>)
 8005e86:	2201      	movs	r2, #1
 8005e88:	60da      	str	r2, [r3, #12]
	delayTimer.timerAlarmCallback = delaytimer_event_handler;
 8005e8a:	4b28      	ldr	r3, [pc, #160]	@ (8005f2c <mpu9255_init+0xc8>)
 8005e8c:	4a28      	ldr	r2, [pc, #160]	@ (8005f30 <mpu9255_init+0xcc>)
 8005e8e:	611a      	str	r2, [r3, #16]
	systick_app_timer_channel_create(&delayTimer);
 8005e90:	4826      	ldr	r0, [pc, #152]	@ (8005f2c <mpu9255_init+0xc8>)
 8005e92:	f7fc ff35 	bl	8002d00 <systick_app_timer_channel_create>
	systick_app_timer_channel_start(delayTimer.channel);
 8005e96:	4b25      	ldr	r3, [pc, #148]	@ (8005f2c <mpu9255_init+0xc8>)
 8005e98:	781b      	ldrb	r3, [r3, #0]
 8005e9a:	4618      	mov	r0, r3
 8005e9c:	f7fc ff08 	bl	8002cb0 <systick_app_timer_channel_start>

	readTimer.mode = APP_TIMER_MODE_CONTINUOUS;
 8005ea0:	4b24      	ldr	r3, [pc, #144]	@ (8005f34 <mpu9255_init+0xd0>)
 8005ea2:	2200      	movs	r2, #0
 8005ea4:	721a      	strb	r2, [r3, #8]
	readTimer.alarm = readPeriod; // 1ms
 8005ea6:	4a23      	ldr	r2, [pc, #140]	@ (8005f34 <mpu9255_init+0xd0>)
 8005ea8:	687b      	ldr	r3, [r7, #4]
 8005eaa:	60d3      	str	r3, [r2, #12]
	readTimer.timerAlarmCallback = readTimer_event_handler;
 8005eac:	4b21      	ldr	r3, [pc, #132]	@ (8005f34 <mpu9255_init+0xd0>)
 8005eae:	4a22      	ldr	r2, [pc, #136]	@ (8005f38 <mpu9255_init+0xd4>)
 8005eb0:	611a      	str	r2, [r3, #16]
	systick_app_timer_channel_create(&readTimer);
 8005eb2:	4820      	ldr	r0, [pc, #128]	@ (8005f34 <mpu9255_init+0xd0>)
 8005eb4:	f7fc ff24 	bl	8002d00 <systick_app_timer_channel_create>
	// don't start this one until after the dmp is initialized

	// reset internal data
	memset(&dmpData, 0, sizeof(dmpData));
 8005eb8:	f44f 5210 	mov.w	r2, #9216	@ 0x2400
 8005ebc:	2100      	movs	r1, #0
 8005ebe:	481f      	ldr	r0, [pc, #124]	@ (8005f3c <mpu9255_init+0xd8>)
 8005ec0:	f001 faa8 	bl	8007414 <memset>

	// First init the MPU chip
	struct int_param_s int_param;
	mpu_init(&int_param);
 8005ec4:	f107 0318 	add.w	r3, r7, #24
 8005ec8:	4618      	mov	r0, r3
 8005eca:	f7fd fccf 	bl	800386c <mpu_init>
	mpu_set_sensors(INV_XYZ_GYRO | INV_XYZ_ACCEL);
 8005ece:	2078      	movs	r0, #120	@ 0x78
 8005ed0:	f7fe f976 	bl	80041c0 <mpu_set_sensors>

	// load dmp and turn on
	dmp_load_motion_driver_firmware();
 8005ed4:	f7fe fe8a 	bl	8004bec <dmp_load_motion_driver_firmware>
	const signed char orientation[9] = {1, 0, 0,
 8005ed8:	4a19      	ldr	r2, [pc, #100]	@ (8005f40 <mpu9255_init+0xdc>)
 8005eda:	f107 030c 	add.w	r3, r7, #12
 8005ede:	ca07      	ldmia	r2, {r0, r1, r2}
 8005ee0:	c303      	stmia	r3!, {r0, r1}
 8005ee2:	701a      	strb	r2, [r3, #0]
							0, 0, -1,
							0, 1, 0};

	dmp_set_orientation( inv_orientation_matrix_to_scalar(orientation));
 8005ee4:	f107 030c 	add.w	r3, r7, #12
 8005ee8:	4618      	mov	r0, r3
 8005eea:	f7ff fef9 	bl	8005ce0 <inv_orientation_matrix_to_scalar>
 8005eee:	4603      	mov	r3, r0
 8005ef0:	4618      	mov	r0, r3
 8005ef2:	f7fe fe8b 	bl	8004c0c <dmp_set_orientation>
	dmp_register_tap_cb(tap_cb);
 8005ef6:	4813      	ldr	r0, [pc, #76]	@ (8005f44 <mpu9255_init+0xe0>)
 8005ef8:	f7ff fd54 	bl	80059a4 <dmp_register_tap_cb>
	dmp_register_android_orient_cb(android_orient_cb);
 8005efc:	4812      	ldr	r0, [pc, #72]	@ (8005f48 <mpu9255_init+0xe4>)
 8005efe:	f7ff fd61 	bl	80059c4 <dmp_register_android_orient_cb>
	/*
	 *  * There is a known issue in which if you do not enable DMP_FEATURE_TAP
     * then the interrupts will be at 200Hz even if fifo rate
     * is set at a different rate. To avoid this issue include the DMP_FEATURE_TAP
	 */
	dmp_enable_feature(DMP_FEATURE_6X_LP_QUAT | DMP_FEATURE_SEND_RAW_ACCEL | DMP_FEATURE_SEND_RAW_GYRO);
 8005f02:	20d0      	movs	r0, #208	@ 0xd0
 8005f04:	f7ff f9f8 	bl	80052f8 <dmp_enable_feature>

	dmp_set_fifo_rate(100);
 8005f08:	2064      	movs	r0, #100	@ 0x64
 8005f0a:	f7fe ff6b 	bl	8004de4 <dmp_set_fifo_rate>
	mpu_set_dmp_state(1);
 8005f0e:	2001      	movs	r0, #1
 8005f10:	f7fe fcde 	bl	80048d0 <mpu_set_dmp_state>
	mpu_reset_fifo();
 8005f14:	f7fd fe0c 	bl	8003b30 <mpu_reset_fifo>
	systick_app_timer_channel_start(readTimer.channel);
 8005f18:	4b06      	ldr	r3, [pc, #24]	@ (8005f34 <mpu9255_init+0xd0>)
 8005f1a:	781b      	ldrb	r3, [r3, #0]
 8005f1c:	4618      	mov	r0, r3
 8005f1e:	f7fc fec7 	bl	8002cb0 <systick_app_timer_channel_start>
}
 8005f22:	bf00      	nop
 8005f24:	3720      	adds	r7, #32
 8005f26:	46bd      	mov	sp, r7
 8005f28:	bd80      	pop	{r7, pc}
 8005f2a:	bf00      	nop
 8005f2c:	2000041c 	.word	0x2000041c
 8005f30:	08005be1 	.word	0x08005be1
 8005f34:	20000430 	.word	0x20000430
 8005f38:	08005c15 	.word	0x08005c15
 8005f3c:	20000450 	.word	0x20000450
 8005f40:	080074ec 	.word	0x080074ec
 8005f44:	08005c43 	.word	0x08005c43
 8005f48:	08005c2d 	.word	0x08005c2d

08005f4c <LL_ADC_REG_SetSequencerLength>:
{
 8005f4c:	b480      	push	{r7}
 8005f4e:	b083      	sub	sp, #12
 8005f50:	af00      	add	r7, sp, #0
 8005f52:	6078      	str	r0, [r7, #4]
 8005f54:	6039      	str	r1, [r7, #0]
  MODIFY_REG(ADCx->SQR1, ADC_SQR1_L, SequencerNbRanks);
 8005f56:	687b      	ldr	r3, [r7, #4]
 8005f58:	6b1b      	ldr	r3, [r3, #48]	@ 0x30
 8005f5a:	f023 020f 	bic.w	r2, r3, #15
 8005f5e:	683b      	ldr	r3, [r7, #0]
 8005f60:	431a      	orrs	r2, r3
 8005f62:	687b      	ldr	r3, [r7, #4]
 8005f64:	631a      	str	r2, [r3, #48]	@ 0x30
}
 8005f66:	bf00      	nop
 8005f68:	370c      	adds	r7, #12
 8005f6a:	46bd      	mov	sp, r7
 8005f6c:	f85d 7b04 	ldr.w	r7, [sp], #4
 8005f70:	4770      	bx	lr

08005f72 <LL_ADC_IsEnabled>:
{
 8005f72:	b480      	push	{r7}
 8005f74:	b083      	sub	sp, #12
 8005f76:	af00      	add	r7, sp, #0
 8005f78:	6078      	str	r0, [r7, #4]
  return ((READ_BIT(ADCx->CR, ADC_CR_ADEN) == (ADC_CR_ADEN)) ? 1UL : 0UL);
 8005f7a:	687b      	ldr	r3, [r7, #4]
 8005f7c:	689b      	ldr	r3, [r3, #8]
 8005f7e:	f003 0301 	and.w	r3, r3, #1
 8005f82:	2b01      	cmp	r3, #1
 8005f84:	d101      	bne.n	8005f8a <LL_ADC_IsEnabled+0x18>
 8005f86:	2301      	movs	r3, #1
 8005f88:	e000      	b.n	8005f8c <LL_ADC_IsEnabled+0x1a>
 8005f8a:	2300      	movs	r3, #0
}
 8005f8c:	4618      	mov	r0, r3
 8005f8e:	370c      	adds	r7, #12
 8005f90:	46bd      	mov	sp, r7
 8005f92:	f85d 7b04 	ldr.w	r7, [sp], #4
 8005f96:	4770      	bx	lr

08005f98 <LL_ADC_CommonInit>:
  * @retval An ErrorStatus enumeration value:
  *          - SUCCESS: ADC common registers are initialized
  *          - ERROR: ADC common registers are not initialized
  */
ErrorStatus LL_ADC_CommonInit(ADC_Common_TypeDef *ADCxy_COMMON, LL_ADC_CommonInitTypeDef *ADC_CommonInitStruct)
{
 8005f98:	b590      	push	{r4, r7, lr}
 8005f9a:	b085      	sub	sp, #20
 8005f9c:	af00      	add	r7, sp, #0
 8005f9e:	6078      	str	r0, [r7, #4]
 8005fa0:	6039      	str	r1, [r7, #0]
  ErrorStatus status = SUCCESS;
 8005fa2:	2300      	movs	r3, #0
 8005fa4:	73fb      	strb	r3, [r7, #15]
  /* Note: Hardware constraint (refer to description of functions             */
  /*       "LL_ADC_SetCommonXXX()" and "LL_ADC_SetMultiXXX()"):               */
  /*       On this STM32 series, setting of these features is conditioned to  */
  /*       ADC state:                                                         */
  /*       All ADC instances of the ADC common group must be disabled.        */
  if (__LL_ADC_IS_ENABLED_ALL_COMMON_INSTANCE(ADCxy_COMMON) == 0UL)
 8005fa6:	481c      	ldr	r0, [pc, #112]	@ (8006018 <LL_ADC_CommonInit+0x80>)
 8005fa8:	f7ff ffe3 	bl	8005f72 <LL_ADC_IsEnabled>
 8005fac:	4604      	mov	r4, r0
 8005fae:	481b      	ldr	r0, [pc, #108]	@ (800601c <LL_ADC_CommonInit+0x84>)
 8005fb0:	f7ff ffdf 	bl	8005f72 <LL_ADC_IsEnabled>
 8005fb4:	4603      	mov	r3, r0
 8005fb6:	431c      	orrs	r4, r3
 8005fb8:	4819      	ldr	r0, [pc, #100]	@ (8006020 <LL_ADC_CommonInit+0x88>)
 8005fba:	f7ff ffda 	bl	8005f72 <LL_ADC_IsEnabled>
 8005fbe:	4603      	mov	r3, r0
 8005fc0:	4323      	orrs	r3, r4
 8005fc2:	2b00      	cmp	r3, #0
 8005fc4:	d120      	bne.n	8006008 <LL_ADC_CommonInit+0x70>
    /*    selected device)                                                    */
    /*    - Set ADC multimode configuration                                   */
    /*    - Set ADC multimode DMA transfer                                    */
    /*    - Set ADC multimode: delay between 2 sampling phases                */
#if defined(ADC_MULTIMODE_SUPPORT)
    if (ADC_CommonInitStruct->Multimode != LL_ADC_MULTI_INDEPENDENT)
 8005fc6:	683b      	ldr	r3, [r7, #0]
 8005fc8:	685b      	ldr	r3, [r3, #4]
 8005fca:	2b00      	cmp	r3, #0
 8005fcc:	d012      	beq.n	8005ff4 <LL_ADC_CommonInit+0x5c>
    {
      MODIFY_REG(ADCxy_COMMON->CCR,
 8005fce:	687b      	ldr	r3, [r7, #4]
 8005fd0:	689a      	ldr	r2, [r3, #8]
 8005fd2:	4b14      	ldr	r3, [pc, #80]	@ (8006024 <LL_ADC_CommonInit+0x8c>)
 8005fd4:	4013      	ands	r3, r2
 8005fd6:	683a      	ldr	r2, [r7, #0]
 8005fd8:	6811      	ldr	r1, [r2, #0]
 8005fda:	683a      	ldr	r2, [r7, #0]
 8005fdc:	6852      	ldr	r2, [r2, #4]
 8005fde:	4311      	orrs	r1, r2
 8005fe0:	683a      	ldr	r2, [r7, #0]
 8005fe2:	6892      	ldr	r2, [r2, #8]
 8005fe4:	4311      	orrs	r1, r2
 8005fe6:	683a      	ldr	r2, [r7, #0]
 8005fe8:	68d2      	ldr	r2, [r2, #12]
 8005fea:	430a      	orrs	r2, r1
 8005fec:	431a      	orrs	r2, r3
 8005fee:	687b      	ldr	r3, [r7, #4]
 8005ff0:	609a      	str	r2, [r3, #8]
 8005ff2:	e00b      	b.n	800600c <LL_ADC_CommonInit+0x74>
                 | ADC_CommonInitStruct->MultiTwoSamplingDelay
                );
    }
    else
    {
      MODIFY_REG(ADCxy_COMMON->CCR,
 8005ff4:	687b      	ldr	r3, [r7, #4]
 8005ff6:	689a      	ldr	r2, [r3, #8]
 8005ff8:	4b0a      	ldr	r3, [pc, #40]	@ (8006024 <LL_ADC_CommonInit+0x8c>)
 8005ffa:	4013      	ands	r3, r2
 8005ffc:	683a      	ldr	r2, [r7, #0]
 8005ffe:	6812      	ldr	r2, [r2, #0]
 8006000:	431a      	orrs	r2, r3
 8006002:	687b      	ldr	r3, [r7, #4]
 8006004:	609a      	str	r2, [r3, #8]
 8006006:	e001      	b.n	800600c <LL_ADC_CommonInit+0x74>
  }
  else
  {
    /* Initialization error: One or several ADC instances belonging to        */
    /* the same ADC common instance are not disabled.                         */
    status = ERROR;
 8006008:	2301      	movs	r3, #1
 800600a:	73fb      	strb	r3, [r7, #15]
  }

  return status;
 800600c:	7bfb      	ldrb	r3, [r7, #15]
}
 800600e:	4618      	mov	r0, r3
 8006010:	3714      	adds	r7, #20
 8006012:	46bd      	mov	sp, r7
 8006014:	bd90      	pop	{r4, r7, pc}
 8006016:	bf00      	nop
 8006018:	50040000 	.word	0x50040000
 800601c:	50040100 	.word	0x50040100
 8006020:	50040200 	.word	0x50040200
 8006024:	ffc030e0 	.word	0xffc030e0

08006028 <LL_ADC_Init>:
  * @retval An ErrorStatus enumeration value:
  *          - SUCCESS: ADC registers are initialized
  *          - ERROR: ADC registers are not initialized
  */
ErrorStatus LL_ADC_Init(ADC_TypeDef *ADCx, LL_ADC_InitTypeDef *ADC_InitStruct)
{
 8006028:	b580      	push	{r7, lr}
 800602a:	b084      	sub	sp, #16
 800602c:	af00      	add	r7, sp, #0
 800602e:	6078      	str	r0, [r7, #4]
 8006030:	6039      	str	r1, [r7, #0]
  ErrorStatus status = SUCCESS;
 8006032:	2300      	movs	r3, #0
 8006034:	73fb      	strb	r3, [r7, #15]
  assert_param(IS_LL_ADC_DATA_ALIGN(ADC_InitStruct->DataAlignment));
  assert_param(IS_LL_ADC_LOW_POWER(ADC_InitStruct->LowPowerMode));

  /* Note: Hardware constraint (refer to description of this function):       */
  /*       ADC instance must be disabled.                                     */
  if (LL_ADC_IsEnabled(ADCx) == 0UL)
 8006036:	6878      	ldr	r0, [r7, #4]
 8006038:	f7ff ff9b 	bl	8005f72 <LL_ADC_IsEnabled>
 800603c:	4603      	mov	r3, r0
 800603e:	2b00      	cmp	r3, #0
 8006040:	d111      	bne.n	8006066 <LL_ADC_Init+0x3e>
    /* Configuration of ADC hierarchical scope:                               */
    /*  - ADC instance                                                        */
    /*    - Set ADC data resolution                                           */
    /*    - Set ADC conversion data alignment                                 */
    /*    - Set ADC low power mode                                            */
    MODIFY_REG(ADCx->CFGR,
 8006042:	687b      	ldr	r3, [r7, #4]
 8006044:	68db      	ldr	r3, [r3, #12]
 8006046:	f423 4380 	bic.w	r3, r3, #16384	@ 0x4000
 800604a:	f023 0338 	bic.w	r3, r3, #56	@ 0x38
 800604e:	683a      	ldr	r2, [r7, #0]
 8006050:	6811      	ldr	r1, [r2, #0]
 8006052:	683a      	ldr	r2, [r7, #0]
 8006054:	6852      	ldr	r2, [r2, #4]
 8006056:	4311      	orrs	r1, r2
 8006058:	683a      	ldr	r2, [r7, #0]
 800605a:	6892      	ldr	r2, [r2, #8]
 800605c:	430a      	orrs	r2, r1
 800605e:	431a      	orrs	r2, r3
 8006060:	687b      	ldr	r3, [r7, #4]
 8006062:	60da      	str	r2, [r3, #12]
 8006064:	e001      	b.n	800606a <LL_ADC_Init+0x42>

  }
  else
  {
    /* Initialization error: ADC instance is not disabled. */
    status = ERROR;
 8006066:	2301      	movs	r3, #1
 8006068:	73fb      	strb	r3, [r7, #15]
  }

  return status;
 800606a:	7bfb      	ldrb	r3, [r7, #15]
}
 800606c:	4618      	mov	r0, r3
 800606e:	3710      	adds	r7, #16
 8006070:	46bd      	mov	sp, r7
 8006072:	bd80      	pop	{r7, pc}

08006074 <LL_ADC_REG_Init>:
  * @retval An ErrorStatus enumeration value:
  *          - SUCCESS: ADC registers are initialized
  *          - ERROR: ADC registers are not initialized
  */
ErrorStatus LL_ADC_REG_Init(ADC_TypeDef *ADCx, LL_ADC_REG_InitTypeDef *ADC_REG_InitStruct)
{
 8006074:	b580      	push	{r7, lr}
 8006076:	b084      	sub	sp, #16
 8006078:	af00      	add	r7, sp, #0
 800607a:	6078      	str	r0, [r7, #4]
 800607c:	6039      	str	r1, [r7, #0]
  ErrorStatus status = SUCCESS;
 800607e:	2300      	movs	r3, #0
 8006080:	73fb      	strb	r3, [r7, #15]
  assert_param(IS_LL_ADC_REG_DMA_TRANSFER(ADC_REG_InitStruct->DMATransfer));
  assert_param(IS_LL_ADC_REG_OVR_DATA_BEHAVIOR(ADC_REG_InitStruct->Overrun));

  /* Note: Hardware constraint (refer to description of this function):       */
  /*       ADC instance must be disabled.                                     */
  if (LL_ADC_IsEnabled(ADCx) == 0UL)
 8006082:	6878      	ldr	r0, [r7, #4]
 8006084:	f7ff ff75 	bl	8005f72 <LL_ADC_IsEnabled>
 8006088:	4603      	mov	r3, r0
 800608a:	2b00      	cmp	r3, #0
 800608c:	d132      	bne.n	80060f4 <LL_ADC_REG_Init+0x80>
    /*    - Set ADC group regular conversion data transfer: no transfer or    */
    /*      transfer by DMA, and DMA requests mode                            */
    /*    - Set ADC group regular overrun behavior                            */
    /* Note: On this STM32 series, ADC trigger edge is set to value 0x0 by    */
    /*       setting of trigger source to SW start.                           */
    if (ADC_REG_InitStruct->SequencerLength != LL_ADC_REG_SEQ_SCAN_DISABLE)
 800608e:	683b      	ldr	r3, [r7, #0]
 8006090:	685b      	ldr	r3, [r3, #4]
 8006092:	2b00      	cmp	r3, #0
 8006094:	d015      	beq.n	80060c2 <LL_ADC_REG_Init+0x4e>
    {
      MODIFY_REG(ADCx->CFGR,
 8006096:	687b      	ldr	r3, [r7, #4]
 8006098:	68da      	ldr	r2, [r3, #12]
 800609a:	4b1a      	ldr	r3, [pc, #104]	@ (8006104 <LL_ADC_REG_Init+0x90>)
 800609c:	4013      	ands	r3, r2
 800609e:	683a      	ldr	r2, [r7, #0]
 80060a0:	6811      	ldr	r1, [r2, #0]
 80060a2:	683a      	ldr	r2, [r7, #0]
 80060a4:	6892      	ldr	r2, [r2, #8]
 80060a6:	4311      	orrs	r1, r2
 80060a8:	683a      	ldr	r2, [r7, #0]
 80060aa:	68d2      	ldr	r2, [r2, #12]
 80060ac:	4311      	orrs	r1, r2
 80060ae:	683a      	ldr	r2, [r7, #0]
 80060b0:	6912      	ldr	r2, [r2, #16]
 80060b2:	4311      	orrs	r1, r2
 80060b4:	683a      	ldr	r2, [r7, #0]
 80060b6:	6952      	ldr	r2, [r2, #20]
 80060b8:	430a      	orrs	r2, r1
 80060ba:	431a      	orrs	r2, r3
 80060bc:	687b      	ldr	r3, [r7, #4]
 80060be:	60da      	str	r2, [r3, #12]
 80060c0:	e011      	b.n	80060e6 <LL_ADC_REG_Init+0x72>
                 | ADC_REG_InitStruct->Overrun
                );
    }
    else
    {
      MODIFY_REG(ADCx->CFGR,
 80060c2:	687b      	ldr	r3, [r7, #4]
 80060c4:	68da      	ldr	r2, [r3, #12]
 80060c6:	4b0f      	ldr	r3, [pc, #60]	@ (8006104 <LL_ADC_REG_Init+0x90>)
 80060c8:	4013      	ands	r3, r2
 80060ca:	683a      	ldr	r2, [r7, #0]
 80060cc:	6811      	ldr	r1, [r2, #0]
 80060ce:	683a      	ldr	r2, [r7, #0]
 80060d0:	68d2      	ldr	r2, [r2, #12]
 80060d2:	4311      	orrs	r1, r2
 80060d4:	683a      	ldr	r2, [r7, #0]
 80060d6:	6912      	ldr	r2, [r2, #16]
 80060d8:	4311      	orrs	r1, r2
 80060da:	683a      	ldr	r2, [r7, #0]
 80060dc:	6952      	ldr	r2, [r2, #20]
 80060de:	430a      	orrs	r2, r1
 80060e0:	431a      	orrs	r2, r3
 80060e2:	687b      	ldr	r3, [r7, #4]
 80060e4:	60da      	str	r2, [r3, #12]
                 | ADC_REG_InitStruct->Overrun
                );
    }

    /* Set ADC group regular sequencer length and scan direction */
    LL_ADC_REG_SetSequencerLength(ADCx, ADC_REG_InitStruct->SequencerLength);
 80060e6:	683b      	ldr	r3, [r7, #0]
 80060e8:	685b      	ldr	r3, [r3, #4]
 80060ea:	4619      	mov	r1, r3
 80060ec:	6878      	ldr	r0, [r7, #4]
 80060ee:	f7ff ff2d 	bl	8005f4c <LL_ADC_REG_SetSequencerLength>
 80060f2:	e001      	b.n	80060f8 <LL_ADC_REG_Init+0x84>
  }
  else
  {
    /* Initialization error: ADC instance is not disabled. */
    status = ERROR;
 80060f4:	2301      	movs	r3, #1
 80060f6:	73fb      	strb	r3, [r7, #15]
  }
  return status;
 80060f8:	7bfb      	ldrb	r3, [r7, #15]
}
 80060fa:	4618      	mov	r0, r3
 80060fc:	3710      	adds	r7, #16
 80060fe:	46bd      	mov	sp, r7
 8006100:	bd80      	pop	{r7, pc}
 8006102:	bf00      	nop
 8006104:	fff0c03c 	.word	0xfff0c03c

08006108 <LL_EXTI_EnableIT_0_31>:
  *         @arg @ref LL_EXTI_LINE_ALL_0_31
  * @note   Please check each device line mapping for EXTI Line availability
  * @retval None
  */
__STATIC_INLINE void LL_EXTI_EnableIT_0_31(uint32_t ExtiLine)
{
 8006108:	b480      	push	{r7}
 800610a:	b083      	sub	sp, #12
 800610c:	af00      	add	r7, sp, #0
 800610e:	6078      	str	r0, [r7, #4]
  SET_BIT(EXTI->IMR1, ExtiLine);
 8006110:	4b05      	ldr	r3, [pc, #20]	@ (8006128 <LL_EXTI_EnableIT_0_31+0x20>)
 8006112:	681a      	ldr	r2, [r3, #0]
 8006114:	4904      	ldr	r1, [pc, #16]	@ (8006128 <LL_EXTI_EnableIT_0_31+0x20>)
 8006116:	687b      	ldr	r3, [r7, #4]
 8006118:	4313      	orrs	r3, r2
 800611a:	600b      	str	r3, [r1, #0]
}
 800611c:	bf00      	nop
 800611e:	370c      	adds	r7, #12
 8006120:	46bd      	mov	sp, r7
 8006122:	f85d 7b04 	ldr.w	r7, [sp], #4
 8006126:	4770      	bx	lr
 8006128:	40010400 	.word	0x40010400

0800612c <LL_EXTI_EnableIT_32_63>:
  *         @arg @ref LL_EXTI_LINE_ALL_32_63
  * @note   (*): Available in some devices
  * @retval None
  */
__STATIC_INLINE void LL_EXTI_EnableIT_32_63(uint32_t ExtiLine)
{
 800612c:	b480      	push	{r7}
 800612e:	b083      	sub	sp, #12
 8006130:	af00      	add	r7, sp, #0
 8006132:	6078      	str	r0, [r7, #4]
  SET_BIT(EXTI->IMR2, ExtiLine);
 8006134:	4b05      	ldr	r3, [pc, #20]	@ (800614c <LL_EXTI_EnableIT_32_63+0x20>)
 8006136:	6a1a      	ldr	r2, [r3, #32]
 8006138:	4904      	ldr	r1, [pc, #16]	@ (800614c <LL_EXTI_EnableIT_32_63+0x20>)
 800613a:	687b      	ldr	r3, [r7, #4]
 800613c:	4313      	orrs	r3, r2
 800613e:	620b      	str	r3, [r1, #32]
}
 8006140:	bf00      	nop
 8006142:	370c      	adds	r7, #12
 8006144:	46bd      	mov	sp, r7
 8006146:	f85d 7b04 	ldr.w	r7, [sp], #4
 800614a:	4770      	bx	lr
 800614c:	40010400 	.word	0x40010400

08006150 <LL_EXTI_DisableIT_0_31>:
  *         @arg @ref LL_EXTI_LINE_ALL_0_31
  * @note   Please check each device line mapping for EXTI Line availability
  * @retval None
  */
__STATIC_INLINE void LL_EXTI_DisableIT_0_31(uint32_t ExtiLine)
{
 8006150:	b480      	push	{r7}
 8006152:	b083      	sub	sp, #12
 8006154:	af00      	add	r7, sp, #0
 8006156:	6078      	str	r0, [r7, #4]
  CLEAR_BIT(EXTI->IMR1, ExtiLine);
 8006158:	4b06      	ldr	r3, [pc, #24]	@ (8006174 <LL_EXTI_DisableIT_0_31+0x24>)
 800615a:	681a      	ldr	r2, [r3, #0]
 800615c:	687b      	ldr	r3, [r7, #4]
 800615e:	43db      	mvns	r3, r3
 8006160:	4904      	ldr	r1, [pc, #16]	@ (8006174 <LL_EXTI_DisableIT_0_31+0x24>)
 8006162:	4013      	ands	r3, r2
 8006164:	600b      	str	r3, [r1, #0]
}
 8006166:	bf00      	nop
 8006168:	370c      	adds	r7, #12
 800616a:	46bd      	mov	sp, r7
 800616c:	f85d 7b04 	ldr.w	r7, [sp], #4
 8006170:	4770      	bx	lr
 8006172:	bf00      	nop
 8006174:	40010400 	.word	0x40010400

08006178 <LL_EXTI_DisableIT_32_63>:
  *         @arg @ref LL_EXTI_LINE_ALL_32_63
  * @note   (*): Available in some devices
  * @retval None
  */
__STATIC_INLINE void LL_EXTI_DisableIT_32_63(uint32_t ExtiLine)
{
 8006178:	b480      	push	{r7}
 800617a:	b083      	sub	sp, #12
 800617c:	af00      	add	r7, sp, #0
 800617e:	6078      	str	r0, [r7, #4]
  CLEAR_BIT(EXTI->IMR2, ExtiLine);
 8006180:	4b06      	ldr	r3, [pc, #24]	@ (800619c <LL_EXTI_DisableIT_32_63+0x24>)
 8006182:	6a1a      	ldr	r2, [r3, #32]
 8006184:	687b      	ldr	r3, [r7, #4]
 8006186:	43db      	mvns	r3, r3
 8006188:	4904      	ldr	r1, [pc, #16]	@ (800619c <LL_EXTI_DisableIT_32_63+0x24>)
 800618a:	4013      	ands	r3, r2
 800618c:	620b      	str	r3, [r1, #32]
}
 800618e:	bf00      	nop
 8006190:	370c      	adds	r7, #12
 8006192:	46bd      	mov	sp, r7
 8006194:	f85d 7b04 	ldr.w	r7, [sp], #4
 8006198:	4770      	bx	lr
 800619a:	bf00      	nop
 800619c:	40010400 	.word	0x40010400

080061a0 <LL_EXTI_EnableEvent_0_31>:
  *         @arg @ref LL_EXTI_LINE_ALL_0_31
  * @note   Please check each device line mapping for EXTI Line availability
  * @retval None
  */
__STATIC_INLINE void LL_EXTI_EnableEvent_0_31(uint32_t ExtiLine)
{
 80061a0:	b480      	push	{r7}
 80061a2:	b083      	sub	sp, #12
 80061a4:	af00      	add	r7, sp, #0
 80061a6:	6078      	str	r0, [r7, #4]
  SET_BIT(EXTI->EMR1, ExtiLine);
 80061a8:	4b05      	ldr	r3, [pc, #20]	@ (80061c0 <LL_EXTI_EnableEvent_0_31+0x20>)
 80061aa:	685a      	ldr	r2, [r3, #4]
 80061ac:	4904      	ldr	r1, [pc, #16]	@ (80061c0 <LL_EXTI_EnableEvent_0_31+0x20>)
 80061ae:	687b      	ldr	r3, [r7, #4]
 80061b0:	4313      	orrs	r3, r2
 80061b2:	604b      	str	r3, [r1, #4]

}
 80061b4:	bf00      	nop
 80061b6:	370c      	adds	r7, #12
 80061b8:	46bd      	mov	sp, r7
 80061ba:	f85d 7b04 	ldr.w	r7, [sp], #4
 80061be:	4770      	bx	lr
 80061c0:	40010400 	.word	0x40010400

080061c4 <LL_EXTI_EnableEvent_32_63>:
  *         @arg @ref LL_EXTI_LINE_ALL_32_63
  * @note   (*): Available in some devices
  * @retval None
  */
__STATIC_INLINE void LL_EXTI_EnableEvent_32_63(uint32_t ExtiLine)
{
 80061c4:	b480      	push	{r7}
 80061c6:	b083      	sub	sp, #12
 80061c8:	af00      	add	r7, sp, #0
 80061ca:	6078      	str	r0, [r7, #4]
  SET_BIT(EXTI->EMR2, ExtiLine);
 80061cc:	4b05      	ldr	r3, [pc, #20]	@ (80061e4 <LL_EXTI_EnableEvent_32_63+0x20>)
 80061ce:	6a5a      	ldr	r2, [r3, #36]	@ 0x24
 80061d0:	4904      	ldr	r1, [pc, #16]	@ (80061e4 <LL_EXTI_EnableEvent_32_63+0x20>)
 80061d2:	687b      	ldr	r3, [r7, #4]
 80061d4:	4313      	orrs	r3, r2
 80061d6:	624b      	str	r3, [r1, #36]	@ 0x24
}
 80061d8:	bf00      	nop
 80061da:	370c      	adds	r7, #12
 80061dc:	46bd      	mov	sp, r7
 80061de:	f85d 7b04 	ldr.w	r7, [sp], #4
 80061e2:	4770      	bx	lr
 80061e4:	40010400 	.word	0x40010400

080061e8 <LL_EXTI_DisableEvent_0_31>:
  *         @arg @ref LL_EXTI_LINE_ALL_0_31
  * @note   Please check each device line mapping for EXTI Line availability
  * @retval None
  */
__STATIC_INLINE void LL_EXTI_DisableEvent_0_31(uint32_t ExtiLine)
{
 80061e8:	b480      	push	{r7}
 80061ea:	b083      	sub	sp, #12
 80061ec:	af00      	add	r7, sp, #0
 80061ee:	6078      	str	r0, [r7, #4]
  CLEAR_BIT(EXTI->EMR1, ExtiLine);
 80061f0:	4b06      	ldr	r3, [pc, #24]	@ (800620c <LL_EXTI_DisableEvent_0_31+0x24>)
 80061f2:	685a      	ldr	r2, [r3, #4]
 80061f4:	687b      	ldr	r3, [r7, #4]
 80061f6:	43db      	mvns	r3, r3
 80061f8:	4904      	ldr	r1, [pc, #16]	@ (800620c <LL_EXTI_DisableEvent_0_31+0x24>)
 80061fa:	4013      	ands	r3, r2
 80061fc:	604b      	str	r3, [r1, #4]
}
 80061fe:	bf00      	nop
 8006200:	370c      	adds	r7, #12
 8006202:	46bd      	mov	sp, r7
 8006204:	f85d 7b04 	ldr.w	r7, [sp], #4
 8006208:	4770      	bx	lr
 800620a:	bf00      	nop
 800620c:	40010400 	.word	0x40010400

08006210 <LL_EXTI_DisableEvent_32_63>:
  *         @arg @ref LL_EXTI_LINE_ALL_32_63
  * @note   (*): Available in some devices
  * @retval None
  */
__STATIC_INLINE void LL_EXTI_DisableEvent_32_63(uint32_t ExtiLine)
{
 8006210:	b480      	push	{r7}
 8006212:	b083      	sub	sp, #12
 8006214:	af00      	add	r7, sp, #0
 8006216:	6078      	str	r0, [r7, #4]
  CLEAR_BIT(EXTI->EMR2, ExtiLine);
 8006218:	4b06      	ldr	r3, [pc, #24]	@ (8006234 <LL_EXTI_DisableEvent_32_63+0x24>)
 800621a:	6a5a      	ldr	r2, [r3, #36]	@ 0x24
 800621c:	687b      	ldr	r3, [r7, #4]
 800621e:	43db      	mvns	r3, r3
 8006220:	4904      	ldr	r1, [pc, #16]	@ (8006234 <LL_EXTI_DisableEvent_32_63+0x24>)
 8006222:	4013      	ands	r3, r2
 8006224:	624b      	str	r3, [r1, #36]	@ 0x24
}
 8006226:	bf00      	nop
 8006228:	370c      	adds	r7, #12
 800622a:	46bd      	mov	sp, r7
 800622c:	f85d 7b04 	ldr.w	r7, [sp], #4
 8006230:	4770      	bx	lr
 8006232:	bf00      	nop
 8006234:	40010400 	.word	0x40010400

08006238 <LL_EXTI_EnableRisingTrig_0_31>:
  *         @arg @ref LL_EXTI_LINE_31
  * @note   Please check each device line mapping for EXTI Line availability
  * @retval None
  */
__STATIC_INLINE void LL_EXTI_EnableRisingTrig_0_31(uint32_t ExtiLine)
{
 8006238:	b480      	push	{r7}
 800623a:	b083      	sub	sp, #12
 800623c:	af00      	add	r7, sp, #0
 800623e:	6078      	str	r0, [r7, #4]
  SET_BIT(EXTI->RTSR1, ExtiLine);
 8006240:	4b05      	ldr	r3, [pc, #20]	@ (8006258 <LL_EXTI_EnableRisingTrig_0_31+0x20>)
 8006242:	689a      	ldr	r2, [r3, #8]
 8006244:	4904      	ldr	r1, [pc, #16]	@ (8006258 <LL_EXTI_EnableRisingTrig_0_31+0x20>)
 8006246:	687b      	ldr	r3, [r7, #4]
 8006248:	4313      	orrs	r3, r2
 800624a:	608b      	str	r3, [r1, #8]

}
 800624c:	bf00      	nop
 800624e:	370c      	adds	r7, #12
 8006250:	46bd      	mov	sp, r7
 8006252:	f85d 7b04 	ldr.w	r7, [sp], #4
 8006256:	4770      	bx	lr
 8006258:	40010400 	.word	0x40010400

0800625c <LL_EXTI_EnableRisingTrig_32_63>:
  *         @arg @ref LL_EXTI_LINE_37
  *         @arg @ref LL_EXTI_LINE_38
  * @retval None
  */
__STATIC_INLINE void LL_EXTI_EnableRisingTrig_32_63(uint32_t ExtiLine)
{
 800625c:	b480      	push	{r7}
 800625e:	b083      	sub	sp, #12
 8006260:	af00      	add	r7, sp, #0
 8006262:	6078      	str	r0, [r7, #4]
  SET_BIT(EXTI->RTSR2, ExtiLine);
 8006264:	4b05      	ldr	r3, [pc, #20]	@ (800627c <LL_EXTI_EnableRisingTrig_32_63+0x20>)
 8006266:	6a9a      	ldr	r2, [r3, #40]	@ 0x28
 8006268:	4904      	ldr	r1, [pc, #16]	@ (800627c <LL_EXTI_EnableRisingTrig_32_63+0x20>)
 800626a:	687b      	ldr	r3, [r7, #4]
 800626c:	4313      	orrs	r3, r2
 800626e:	628b      	str	r3, [r1, #40]	@ 0x28
}
 8006270:	bf00      	nop
 8006272:	370c      	adds	r7, #12
 8006274:	46bd      	mov	sp, r7
 8006276:	f85d 7b04 	ldr.w	r7, [sp], #4
 800627a:	4770      	bx	lr
 800627c:	40010400 	.word	0x40010400

08006280 <LL_EXTI_DisableRisingTrig_0_31>:
  *         @arg @ref LL_EXTI_LINE_31
  * @note   Please check each device line mapping for EXTI Line availability
  * @retval None
  */
__STATIC_INLINE void LL_EXTI_DisableRisingTrig_0_31(uint32_t ExtiLine)
{
 8006280:	b480      	push	{r7}
 8006282:	b083      	sub	sp, #12
 8006284:	af00      	add	r7, sp, #0
 8006286:	6078      	str	r0, [r7, #4]
  CLEAR_BIT(EXTI->RTSR1, ExtiLine);
 8006288:	4b06      	ldr	r3, [pc, #24]	@ (80062a4 <LL_EXTI_DisableRisingTrig_0_31+0x24>)
 800628a:	689a      	ldr	r2, [r3, #8]
 800628c:	687b      	ldr	r3, [r7, #4]
 800628e:	43db      	mvns	r3, r3
 8006290:	4904      	ldr	r1, [pc, #16]	@ (80062a4 <LL_EXTI_DisableRisingTrig_0_31+0x24>)
 8006292:	4013      	ands	r3, r2
 8006294:	608b      	str	r3, [r1, #8]

}
 8006296:	bf00      	nop
 8006298:	370c      	adds	r7, #12
 800629a:	46bd      	mov	sp, r7
 800629c:	f85d 7b04 	ldr.w	r7, [sp], #4
 80062a0:	4770      	bx	lr
 80062a2:	bf00      	nop
 80062a4:	40010400 	.word	0x40010400

080062a8 <LL_EXTI_DisableRisingTrig_32_63>:
  *         @arg @ref LL_EXTI_LINE_37
  *         @arg @ref LL_EXTI_LINE_38
  * @retval None
  */
__STATIC_INLINE void LL_EXTI_DisableRisingTrig_32_63(uint32_t ExtiLine)
{
 80062a8:	b480      	push	{r7}
 80062aa:	b083      	sub	sp, #12
 80062ac:	af00      	add	r7, sp, #0
 80062ae:	6078      	str	r0, [r7, #4]
  CLEAR_BIT(EXTI->RTSR2, ExtiLine);
 80062b0:	4b06      	ldr	r3, [pc, #24]	@ (80062cc <LL_EXTI_DisableRisingTrig_32_63+0x24>)
 80062b2:	6a9a      	ldr	r2, [r3, #40]	@ 0x28
 80062b4:	687b      	ldr	r3, [r7, #4]
 80062b6:	43db      	mvns	r3, r3
 80062b8:	4904      	ldr	r1, [pc, #16]	@ (80062cc <LL_EXTI_DisableRisingTrig_32_63+0x24>)
 80062ba:	4013      	ands	r3, r2
 80062bc:	628b      	str	r3, [r1, #40]	@ 0x28
}
 80062be:	bf00      	nop
 80062c0:	370c      	adds	r7, #12
 80062c2:	46bd      	mov	sp, r7
 80062c4:	f85d 7b04 	ldr.w	r7, [sp], #4
 80062c8:	4770      	bx	lr
 80062ca:	bf00      	nop
 80062cc:	40010400 	.word	0x40010400

080062d0 <LL_EXTI_EnableFallingTrig_0_31>:
  *         @arg @ref LL_EXTI_LINE_31
  * @note   Please check each device line mapping for EXTI Line availability
  * @retval None
  */
__STATIC_INLINE void LL_EXTI_EnableFallingTrig_0_31(uint32_t ExtiLine)
{
 80062d0:	b480      	push	{r7}
 80062d2:	b083      	sub	sp, #12
 80062d4:	af00      	add	r7, sp, #0
 80062d6:	6078      	str	r0, [r7, #4]
  SET_BIT(EXTI->FTSR1, ExtiLine);
 80062d8:	4b05      	ldr	r3, [pc, #20]	@ (80062f0 <LL_EXTI_EnableFallingTrig_0_31+0x20>)
 80062da:	68da      	ldr	r2, [r3, #12]
 80062dc:	4904      	ldr	r1, [pc, #16]	@ (80062f0 <LL_EXTI_EnableFallingTrig_0_31+0x20>)
 80062de:	687b      	ldr	r3, [r7, #4]
 80062e0:	4313      	orrs	r3, r2
 80062e2:	60cb      	str	r3, [r1, #12]
}
 80062e4:	bf00      	nop
 80062e6:	370c      	adds	r7, #12
 80062e8:	46bd      	mov	sp, r7
 80062ea:	f85d 7b04 	ldr.w	r7, [sp], #4
 80062ee:	4770      	bx	lr
 80062f0:	40010400 	.word	0x40010400

080062f4 <LL_EXTI_EnableFallingTrig_32_63>:
  *         @arg @ref LL_EXTI_LINE_37
  *         @arg @ref LL_EXTI_LINE_38
  * @retval None
  */
__STATIC_INLINE void LL_EXTI_EnableFallingTrig_32_63(uint32_t ExtiLine)
{
 80062f4:	b480      	push	{r7}
 80062f6:	b083      	sub	sp, #12
 80062f8:	af00      	add	r7, sp, #0
 80062fa:	6078      	str	r0, [r7, #4]
  SET_BIT(EXTI->FTSR2, ExtiLine);
 80062fc:	4b05      	ldr	r3, [pc, #20]	@ (8006314 <LL_EXTI_EnableFallingTrig_32_63+0x20>)
 80062fe:	6ada      	ldr	r2, [r3, #44]	@ 0x2c
 8006300:	4904      	ldr	r1, [pc, #16]	@ (8006314 <LL_EXTI_EnableFallingTrig_32_63+0x20>)
 8006302:	687b      	ldr	r3, [r7, #4]
 8006304:	4313      	orrs	r3, r2
 8006306:	62cb      	str	r3, [r1, #44]	@ 0x2c
}
 8006308:	bf00      	nop
 800630a:	370c      	adds	r7, #12
 800630c:	46bd      	mov	sp, r7
 800630e:	f85d 7b04 	ldr.w	r7, [sp], #4
 8006312:	4770      	bx	lr
 8006314:	40010400 	.word	0x40010400

08006318 <LL_EXTI_DisableFallingTrig_0_31>:
  *         @arg @ref LL_EXTI_LINE_31
  * @note   Please check each device line mapping for EXTI Line availability
  * @retval None
  */
__STATIC_INLINE void LL_EXTI_DisableFallingTrig_0_31(uint32_t ExtiLine)
{
 8006318:	b480      	push	{r7}
 800631a:	b083      	sub	sp, #12
 800631c:	af00      	add	r7, sp, #0
 800631e:	6078      	str	r0, [r7, #4]
  CLEAR_BIT(EXTI->FTSR1, ExtiLine);
 8006320:	4b06      	ldr	r3, [pc, #24]	@ (800633c <LL_EXTI_DisableFallingTrig_0_31+0x24>)
 8006322:	68da      	ldr	r2, [r3, #12]
 8006324:	687b      	ldr	r3, [r7, #4]
 8006326:	43db      	mvns	r3, r3
 8006328:	4904      	ldr	r1, [pc, #16]	@ (800633c <LL_EXTI_DisableFallingTrig_0_31+0x24>)
 800632a:	4013      	ands	r3, r2
 800632c:	60cb      	str	r3, [r1, #12]
}
 800632e:	bf00      	nop
 8006330:	370c      	adds	r7, #12
 8006332:	46bd      	mov	sp, r7
 8006334:	f85d 7b04 	ldr.w	r7, [sp], #4
 8006338:	4770      	bx	lr
 800633a:	bf00      	nop
 800633c:	40010400 	.word	0x40010400

08006340 <LL_EXTI_DisableFallingTrig_32_63>:
  *         @arg @ref LL_EXTI_LINE_37
  *         @arg @ref LL_EXTI_LINE_38
  * @retval None
  */
__STATIC_INLINE void LL_EXTI_DisableFallingTrig_32_63(uint32_t ExtiLine)
{
 8006340:	b480      	push	{r7}
 8006342:	b083      	sub	sp, #12
 8006344:	af00      	add	r7, sp, #0
 8006346:	6078      	str	r0, [r7, #4]
  CLEAR_BIT(EXTI->FTSR2, ExtiLine);
 8006348:	4b06      	ldr	r3, [pc, #24]	@ (8006364 <LL_EXTI_DisableFallingTrig_32_63+0x24>)
 800634a:	6ada      	ldr	r2, [r3, #44]	@ 0x2c
 800634c:	687b      	ldr	r3, [r7, #4]
 800634e:	43db      	mvns	r3, r3
 8006350:	4904      	ldr	r1, [pc, #16]	@ (8006364 <LL_EXTI_DisableFallingTrig_32_63+0x24>)
 8006352:	4013      	ands	r3, r2
 8006354:	62cb      	str	r3, [r1, #44]	@ 0x2c
}
 8006356:	bf00      	nop
 8006358:	370c      	adds	r7, #12
 800635a:	46bd      	mov	sp, r7
 800635c:	f85d 7b04 	ldr.w	r7, [sp], #4
 8006360:	4770      	bx	lr
 8006362:	bf00      	nop
 8006364:	40010400 	.word	0x40010400

08006368 <LL_EXTI_Init>:
  * @retval An ErrorStatus enumeration value:
  *          - 0x00: EXTI registers are initialized
  *          - any other value : wrong configuration
  */
uint32_t LL_EXTI_Init(LL_EXTI_InitTypeDef *EXTI_InitStruct)
{
 8006368:	b580      	push	{r7, lr}
 800636a:	b084      	sub	sp, #16
 800636c:	af00      	add	r7, sp, #0
 800636e:	6078      	str	r0, [r7, #4]
  uint32_t status = 0x00u;
 8006370:	2300      	movs	r3, #0
 8006372:	60fb      	str	r3, [r7, #12]
  assert_param(IS_LL_EXTI_LINE_32_63(EXTI_InitStruct->Line_32_63));
  assert_param(IS_FUNCTIONAL_STATE(EXTI_InitStruct->LineCommand));
  assert_param(IS_LL_EXTI_MODE(EXTI_InitStruct->Mode));

  /* ENABLE LineCommand */
  if (EXTI_InitStruct->LineCommand != DISABLE)
 8006374:	687b      	ldr	r3, [r7, #4]
 8006376:	7a1b      	ldrb	r3, [r3, #8]
 8006378:	2b00      	cmp	r3, #0
 800637a:	f000 80d0 	beq.w	800651e <LL_EXTI_Init+0x1b6>
  {
    assert_param(IS_LL_EXTI_TRIGGER(EXTI_InitStruct->Trigger));

    /* Configure EXTI Lines in range from 0 to 31 */
    if (EXTI_InitStruct->Line_0_31 != LL_EXTI_LINE_NONE)
 800637e:	687b      	ldr	r3, [r7, #4]
 8006380:	681b      	ldr	r3, [r3, #0]
 8006382:	2b00      	cmp	r3, #0
 8006384:	d063      	beq.n	800644e <LL_EXTI_Init+0xe6>
    {
      switch (EXTI_InitStruct->Mode)
 8006386:	687b      	ldr	r3, [r7, #4]
 8006388:	7a5b      	ldrb	r3, [r3, #9]
 800638a:	2b02      	cmp	r3, #2
 800638c:	d01c      	beq.n	80063c8 <LL_EXTI_Init+0x60>
 800638e:	2b02      	cmp	r3, #2
 8006390:	dc25      	bgt.n	80063de <LL_EXTI_Init+0x76>
 8006392:	2b00      	cmp	r3, #0
 8006394:	d002      	beq.n	800639c <LL_EXTI_Init+0x34>
 8006396:	2b01      	cmp	r3, #1
 8006398:	d00b      	beq.n	80063b2 <LL_EXTI_Init+0x4a>
 800639a:	e020      	b.n	80063de <LL_EXTI_Init+0x76>
      {
        case LL_EXTI_MODE_IT:
          /* First Disable Event on provided Lines */
          LL_EXTI_DisableEvent_0_31(EXTI_InitStruct->Line_0_31);
 800639c:	687b      	ldr	r3, [r7, #4]
 800639e:	681b      	ldr	r3, [r3, #0]
 80063a0:	4618      	mov	r0, r3
 80063a2:	f7ff ff21 	bl	80061e8 <LL_EXTI_DisableEvent_0_31>
          /* Then Enable IT on provided Lines */
          LL_EXTI_EnableIT_0_31(EXTI_InitStruct->Line_0_31);
 80063a6:	687b      	ldr	r3, [r7, #4]
 80063a8:	681b      	ldr	r3, [r3, #0]
 80063aa:	4618      	mov	r0, r3
 80063ac:	f7ff feac 	bl	8006108 <LL_EXTI_EnableIT_0_31>
          break;
 80063b0:	e018      	b.n	80063e4 <LL_EXTI_Init+0x7c>
        case LL_EXTI_MODE_EVENT:
          /* First Disable IT on provided Lines */
          LL_EXTI_DisableIT_0_31(EXTI_InitStruct->Line_0_31);
 80063b2:	687b      	ldr	r3, [r7, #4]
 80063b4:	681b      	ldr	r3, [r3, #0]
 80063b6:	4618      	mov	r0, r3
 80063b8:	f7ff feca 	bl	8006150 <LL_EXTI_DisableIT_0_31>
          /* Then Enable Event on provided Lines */
          LL_EXTI_EnableEvent_0_31(EXTI_InitStruct->Line_0_31);
 80063bc:	687b      	ldr	r3, [r7, #4]
 80063be:	681b      	ldr	r3, [r3, #0]
 80063c0:	4618      	mov	r0, r3
 80063c2:	f7ff feed 	bl	80061a0 <LL_EXTI_EnableEvent_0_31>
          break;
 80063c6:	e00d      	b.n	80063e4 <LL_EXTI_Init+0x7c>
        case LL_EXTI_MODE_IT_EVENT:
          /* Directly Enable IT & Event on provided Lines */
          LL_EXTI_EnableIT_0_31(EXTI_InitStruct->Line_0_31);
 80063c8:	687b      	ldr	r3, [r7, #4]
 80063ca:	681b      	ldr	r3, [r3, #0]
 80063cc:	4618      	mov	r0, r3
 80063ce:	f7ff fe9b 	bl	8006108 <LL_EXTI_EnableIT_0_31>
          LL_EXTI_EnableEvent_0_31(EXTI_InitStruct->Line_0_31);
 80063d2:	687b      	ldr	r3, [r7, #4]
 80063d4:	681b      	ldr	r3, [r3, #0]
 80063d6:	4618      	mov	r0, r3
 80063d8:	f7ff fee2 	bl	80061a0 <LL_EXTI_EnableEvent_0_31>
          break;
 80063dc:	e002      	b.n	80063e4 <LL_EXTI_Init+0x7c>
        default:
          status = 0x01u;
 80063de:	2301      	movs	r3, #1
 80063e0:	60fb      	str	r3, [r7, #12]
          break;
 80063e2:	bf00      	nop
      }
      if (EXTI_InitStruct->Trigger != LL_EXTI_TRIGGER_NONE)
 80063e4:	687b      	ldr	r3, [r7, #4]
 80063e6:	7a9b      	ldrb	r3, [r3, #10]
 80063e8:	2b00      	cmp	r3, #0
 80063ea:	d030      	beq.n	800644e <LL_EXTI_Init+0xe6>
      {
        switch (EXTI_InitStruct->Trigger)
 80063ec:	687b      	ldr	r3, [r7, #4]
 80063ee:	7a9b      	ldrb	r3, [r3, #10]
 80063f0:	2b03      	cmp	r3, #3
 80063f2:	d01c      	beq.n	800642e <LL_EXTI_Init+0xc6>
 80063f4:	2b03      	cmp	r3, #3
 80063f6:	dc25      	bgt.n	8006444 <LL_EXTI_Init+0xdc>
 80063f8:	2b01      	cmp	r3, #1
 80063fa:	d002      	beq.n	8006402 <LL_EXTI_Init+0x9a>
 80063fc:	2b02      	cmp	r3, #2
 80063fe:	d00b      	beq.n	8006418 <LL_EXTI_Init+0xb0>
 8006400:	e020      	b.n	8006444 <LL_EXTI_Init+0xdc>
        {
          case LL_EXTI_TRIGGER_RISING:
            /* First Disable Falling Trigger on provided Lines */
            LL_EXTI_DisableFallingTrig_0_31(EXTI_InitStruct->Line_0_31);
 8006402:	687b      	ldr	r3, [r7, #4]
 8006404:	681b      	ldr	r3, [r3, #0]
 8006406:	4618      	mov	r0, r3
 8006408:	f7ff ff86 	bl	8006318 <LL_EXTI_DisableFallingTrig_0_31>
            /* Then Enable Rising Trigger on provided Lines */
            LL_EXTI_EnableRisingTrig_0_31(EXTI_InitStruct->Line_0_31);
 800640c:	687b      	ldr	r3, [r7, #4]
 800640e:	681b      	ldr	r3, [r3, #0]
 8006410:	4618      	mov	r0, r3
 8006412:	f7ff ff11 	bl	8006238 <LL_EXTI_EnableRisingTrig_0_31>
            break;
 8006416:	e01a      	b.n	800644e <LL_EXTI_Init+0xe6>
          case LL_EXTI_TRIGGER_FALLING:
            /* First Disable Rising Trigger on provided Lines */
            LL_EXTI_DisableRisingTrig_0_31(EXTI_InitStruct->Line_0_31);
 8006418:	687b      	ldr	r3, [r7, #4]
 800641a:	681b      	ldr	r3, [r3, #0]
 800641c:	4618      	mov	r0, r3
 800641e:	f7ff ff2f 	bl	8006280 <LL_EXTI_DisableRisingTrig_0_31>
            /* Then Enable Falling Trigger on provided Lines */
            LL_EXTI_EnableFallingTrig_0_31(EXTI_InitStruct->Line_0_31);
 8006422:	687b      	ldr	r3, [r7, #4]
 8006424:	681b      	ldr	r3, [r3, #0]
 8006426:	4618      	mov	r0, r3
 8006428:	f7ff ff52 	bl	80062d0 <LL_EXTI_EnableFallingTrig_0_31>
            break;
 800642c:	e00f      	b.n	800644e <LL_EXTI_Init+0xe6>
          case LL_EXTI_TRIGGER_RISING_FALLING:
            LL_EXTI_EnableRisingTrig_0_31(EXTI_InitStruct->Line_0_31);
 800642e:	687b      	ldr	r3, [r7, #4]
 8006430:	681b      	ldr	r3, [r3, #0]
 8006432:	4618      	mov	r0, r3
 8006434:	f7ff ff00 	bl	8006238 <LL_EXTI_EnableRisingTrig_0_31>
            LL_EXTI_EnableFallingTrig_0_31(EXTI_InitStruct->Line_0_31);
 8006438:	687b      	ldr	r3, [r7, #4]
 800643a:	681b      	ldr	r3, [r3, #0]
 800643c:	4618      	mov	r0, r3
 800643e:	f7ff ff47 	bl	80062d0 <LL_EXTI_EnableFallingTrig_0_31>
            break;
 8006442:	e004      	b.n	800644e <LL_EXTI_Init+0xe6>
          default:
            status |= 0x02u;
 8006444:	68fb      	ldr	r3, [r7, #12]
 8006446:	f043 0302 	orr.w	r3, r3, #2
 800644a:	60fb      	str	r3, [r7, #12]
            break;
 800644c:	bf00      	nop
        }
      }
    }
    /* Configure EXTI Lines in range from 32 to 63 */
    if (EXTI_InitStruct->Line_32_63 != LL_EXTI_LINE_NONE)
 800644e:	687b      	ldr	r3, [r7, #4]
 8006450:	685b      	ldr	r3, [r3, #4]
 8006452:	2b00      	cmp	r3, #0
 8006454:	d077      	beq.n	8006546 <LL_EXTI_Init+0x1de>
    {
      switch (EXTI_InitStruct->Mode)
 8006456:	687b      	ldr	r3, [r7, #4]
 8006458:	7a5b      	ldrb	r3, [r3, #9]
 800645a:	2b02      	cmp	r3, #2
 800645c:	d01c      	beq.n	8006498 <LL_EXTI_Init+0x130>
 800645e:	2b02      	cmp	r3, #2
 8006460:	dc25      	bgt.n	80064ae <LL_EXTI_Init+0x146>
 8006462:	2b00      	cmp	r3, #0
 8006464:	d002      	beq.n	800646c <LL_EXTI_Init+0x104>
 8006466:	2b01      	cmp	r3, #1
 8006468:	d00b      	beq.n	8006482 <LL_EXTI_Init+0x11a>
 800646a:	e020      	b.n	80064ae <LL_EXTI_Init+0x146>
      {
        case LL_EXTI_MODE_IT:
          /* First Disable Event on provided Lines */
          LL_EXTI_DisableEvent_32_63(EXTI_InitStruct->Line_32_63);
 800646c:	687b      	ldr	r3, [r7, #4]
 800646e:	685b      	ldr	r3, [r3, #4]
 8006470:	4618      	mov	r0, r3
 8006472:	f7ff fecd 	bl	8006210 <LL_EXTI_DisableEvent_32_63>
          /* Then Enable IT on provided Lines */
          LL_EXTI_EnableIT_32_63(EXTI_InitStruct->Line_32_63);
 8006476:	687b      	ldr	r3, [r7, #4]
 8006478:	685b      	ldr	r3, [r3, #4]
 800647a:	4618      	mov	r0, r3
 800647c:	f7ff fe56 	bl	800612c <LL_EXTI_EnableIT_32_63>
          break;
 8006480:	e01a      	b.n	80064b8 <LL_EXTI_Init+0x150>
        case LL_EXTI_MODE_EVENT:
          /* First Disable IT on provided Lines */
          LL_EXTI_DisableIT_32_63(EXTI_InitStruct->Line_32_63);
 8006482:	687b      	ldr	r3, [r7, #4]
 8006484:	685b      	ldr	r3, [r3, #4]
 8006486:	4618      	mov	r0, r3
 8006488:	f7ff fe76 	bl	8006178 <LL_EXTI_DisableIT_32_63>
          /* Then Enable Event on provided Lines */
          LL_EXTI_EnableEvent_32_63(EXTI_InitStruct->Line_32_63);
 800648c:	687b      	ldr	r3, [r7, #4]
 800648e:	685b      	ldr	r3, [r3, #4]
 8006490:	4618      	mov	r0, r3
 8006492:	f7ff fe97 	bl	80061c4 <LL_EXTI_EnableEvent_32_63>
          break;
 8006496:	e00f      	b.n	80064b8 <LL_EXTI_Init+0x150>
        case LL_EXTI_MODE_IT_EVENT:
          /* Directly Enable IT & Event on provided Lines */
          LL_EXTI_EnableIT_32_63(EXTI_InitStruct->Line_32_63);
 8006498:	687b      	ldr	r3, [r7, #4]
 800649a:	685b      	ldr	r3, [r3, #4]
 800649c:	4618      	mov	r0, r3
 800649e:	f7ff fe45 	bl	800612c <LL_EXTI_EnableIT_32_63>
          LL_EXTI_EnableEvent_32_63(EXTI_InitStruct->Line_32_63);
 80064a2:	687b      	ldr	r3, [r7, #4]
 80064a4:	685b      	ldr	r3, [r3, #4]
 80064a6:	4618      	mov	r0, r3
 80064a8:	f7ff fe8c 	bl	80061c4 <LL_EXTI_EnableEvent_32_63>
          break;
 80064ac:	e004      	b.n	80064b8 <LL_EXTI_Init+0x150>
        default:
          status |= 0x04u;
 80064ae:	68fb      	ldr	r3, [r7, #12]
 80064b0:	f043 0304 	orr.w	r3, r3, #4
 80064b4:	60fb      	str	r3, [r7, #12]
          break;
 80064b6:	bf00      	nop
      }
      if (EXTI_InitStruct->Trigger != LL_EXTI_TRIGGER_NONE)
 80064b8:	687b      	ldr	r3, [r7, #4]
 80064ba:	7a9b      	ldrb	r3, [r3, #10]
 80064bc:	2b00      	cmp	r3, #0
 80064be:	d042      	beq.n	8006546 <LL_EXTI_Init+0x1de>
      {
        switch (EXTI_InitStruct->Trigger)
 80064c0:	687b      	ldr	r3, [r7, #4]
 80064c2:	7a9b      	ldrb	r3, [r3, #10]
 80064c4:	2b03      	cmp	r3, #3
 80064c6:	d01c      	beq.n	8006502 <LL_EXTI_Init+0x19a>
 80064c8:	2b03      	cmp	r3, #3
 80064ca:	dc25      	bgt.n	8006518 <LL_EXTI_Init+0x1b0>
 80064cc:	2b01      	cmp	r3, #1
 80064ce:	d002      	beq.n	80064d6 <LL_EXTI_Init+0x16e>
 80064d0:	2b02      	cmp	r3, #2
 80064d2:	d00b      	beq.n	80064ec <LL_EXTI_Init+0x184>
 80064d4:	e020      	b.n	8006518 <LL_EXTI_Init+0x1b0>
        {
          case LL_EXTI_TRIGGER_RISING:
            /* First Disable Falling Trigger on provided Lines */
            LL_EXTI_DisableFallingTrig_32_63(EXTI_InitStruct->Line_32_63);
 80064d6:	687b      	ldr	r3, [r7, #4]
 80064d8:	685b      	ldr	r3, [r3, #4]
 80064da:	4618      	mov	r0, r3
 80064dc:	f7ff ff30 	bl	8006340 <LL_EXTI_DisableFallingTrig_32_63>
            /* Then Enable IT on provided Lines */
            LL_EXTI_EnableRisingTrig_32_63(EXTI_InitStruct->Line_32_63);
 80064e0:	687b      	ldr	r3, [r7, #4]
 80064e2:	685b      	ldr	r3, [r3, #4]
 80064e4:	4618      	mov	r0, r3
 80064e6:	f7ff feb9 	bl	800625c <LL_EXTI_EnableRisingTrig_32_63>
            break;
 80064ea:	e02c      	b.n	8006546 <LL_EXTI_Init+0x1de>
          case LL_EXTI_TRIGGER_FALLING:
            /* First Disable Rising Trigger on provided Lines */
            LL_EXTI_DisableRisingTrig_32_63(EXTI_InitStruct->Line_32_63);
 80064ec:	687b      	ldr	r3, [r7, #4]
 80064ee:	685b      	ldr	r3, [r3, #4]
 80064f0:	4618      	mov	r0, r3
 80064f2:	f7ff fed9 	bl	80062a8 <LL_EXTI_DisableRisingTrig_32_63>
            /* Then Enable Falling Trigger on provided Lines */
            LL_EXTI_EnableFallingTrig_32_63(EXTI_InitStruct->Line_32_63);
 80064f6:	687b      	ldr	r3, [r7, #4]
 80064f8:	685b      	ldr	r3, [r3, #4]
 80064fa:	4618      	mov	r0, r3
 80064fc:	f7ff fefa 	bl	80062f4 <LL_EXTI_EnableFallingTrig_32_63>
            break;
 8006500:	e021      	b.n	8006546 <LL_EXTI_Init+0x1de>
          case LL_EXTI_TRIGGER_RISING_FALLING:
            LL_EXTI_EnableRisingTrig_32_63(EXTI_InitStruct->Line_32_63);
 8006502:	687b      	ldr	r3, [r7, #4]
 8006504:	685b      	ldr	r3, [r3, #4]
 8006506:	4618      	mov	r0, r3
 8006508:	f7ff fea8 	bl	800625c <LL_EXTI_EnableRisingTrig_32_63>
            LL_EXTI_EnableFallingTrig_32_63(EXTI_InitStruct->Line_32_63);
 800650c:	687b      	ldr	r3, [r7, #4]
 800650e:	685b      	ldr	r3, [r3, #4]
 8006510:	4618      	mov	r0, r3
 8006512:	f7ff feef 	bl	80062f4 <LL_EXTI_EnableFallingTrig_32_63>
            break;
 8006516:	e016      	b.n	8006546 <LL_EXTI_Init+0x1de>
          default:
            status = ERROR;
 8006518:	2301      	movs	r3, #1
 800651a:	60fb      	str	r3, [r7, #12]
            break;
 800651c:	e013      	b.n	8006546 <LL_EXTI_Init+0x1de>
  }
  /* DISABLE LineCommand */
  else
  {
    /* De-configure EXTI Lines in range from 0 to 31 */
    LL_EXTI_DisableIT_0_31(EXTI_InitStruct->Line_0_31);
 800651e:	687b      	ldr	r3, [r7, #4]
 8006520:	681b      	ldr	r3, [r3, #0]
 8006522:	4618      	mov	r0, r3
 8006524:	f7ff fe14 	bl	8006150 <LL_EXTI_DisableIT_0_31>
    LL_EXTI_DisableEvent_0_31(EXTI_InitStruct->Line_0_31);
 8006528:	687b      	ldr	r3, [r7, #4]
 800652a:	681b      	ldr	r3, [r3, #0]
 800652c:	4618      	mov	r0, r3
 800652e:	f7ff fe5b 	bl	80061e8 <LL_EXTI_DisableEvent_0_31>
    /* De-configure EXTI Lines in range from 32 to 63 */
    LL_EXTI_DisableIT_32_63(EXTI_InitStruct->Line_32_63);
 8006532:	687b      	ldr	r3, [r7, #4]
 8006534:	685b      	ldr	r3, [r3, #4]
 8006536:	4618      	mov	r0, r3
 8006538:	f7ff fe1e 	bl	8006178 <LL_EXTI_DisableIT_32_63>
    LL_EXTI_DisableEvent_32_63(EXTI_InitStruct->Line_32_63);
 800653c:	687b      	ldr	r3, [r7, #4]
 800653e:	685b      	ldr	r3, [r3, #4]
 8006540:	4618      	mov	r0, r3
 8006542:	f7ff fe65 	bl	8006210 <LL_EXTI_DisableEvent_32_63>
  }

  return status;
 8006546:	68fb      	ldr	r3, [r7, #12]
}
 8006548:	4618      	mov	r0, r3
 800654a:	3710      	adds	r7, #16
 800654c:	46bd      	mov	sp, r7
 800654e:	bd80      	pop	{r7, pc}

08006550 <LL_GPIO_SetPinMode>:
{
 8006550:	b480      	push	{r7}
 8006552:	b08b      	sub	sp, #44	@ 0x2c
 8006554:	af00      	add	r7, sp, #0
 8006556:	60f8      	str	r0, [r7, #12]
 8006558:	60b9      	str	r1, [r7, #8]
 800655a:	607a      	str	r2, [r7, #4]
  MODIFY_REG(GPIOx->MODER, (GPIO_MODER_MODE0 << (POSITION_VAL(Pin) * 2U)), (Mode << (POSITION_VAL(Pin) * 2U)));
 800655c:	68fb      	ldr	r3, [r7, #12]
 800655e:	681a      	ldr	r2, [r3, #0]
 8006560:	68bb      	ldr	r3, [r7, #8]
 8006562:	617b      	str	r3, [r7, #20]
   __ASM volatile ("rbit %0, %1" : "=r" (result) : "r" (value) );
 8006564:	697b      	ldr	r3, [r7, #20]
 8006566:	fa93 f3a3 	rbit	r3, r3
 800656a:	613b      	str	r3, [r7, #16]
  return result;
 800656c:	693b      	ldr	r3, [r7, #16]
 800656e:	61bb      	str	r3, [r7, #24]
  if (value == 0U)
 8006570:	69bb      	ldr	r3, [r7, #24]
 8006572:	2b00      	cmp	r3, #0
 8006574:	d101      	bne.n	800657a <LL_GPIO_SetPinMode+0x2a>
    return 32U;
 8006576:	2320      	movs	r3, #32
 8006578:	e003      	b.n	8006582 <LL_GPIO_SetPinMode+0x32>
  return __builtin_clz(value);
 800657a:	69bb      	ldr	r3, [r7, #24]
 800657c:	fab3 f383 	clz	r3, r3
 8006580:	b2db      	uxtb	r3, r3
 8006582:	005b      	lsls	r3, r3, #1
 8006584:	2103      	movs	r1, #3
 8006586:	fa01 f303 	lsl.w	r3, r1, r3
 800658a:	43db      	mvns	r3, r3
 800658c:	401a      	ands	r2, r3
 800658e:	68bb      	ldr	r3, [r7, #8]
 8006590:	623b      	str	r3, [r7, #32]
   __ASM volatile ("rbit %0, %1" : "=r" (result) : "r" (value) );
 8006592:	6a3b      	ldr	r3, [r7, #32]
 8006594:	fa93 f3a3 	rbit	r3, r3
 8006598:	61fb      	str	r3, [r7, #28]
  return result;
 800659a:	69fb      	ldr	r3, [r7, #28]
 800659c:	627b      	str	r3, [r7, #36]	@ 0x24
  if (value == 0U)
 800659e:	6a7b      	ldr	r3, [r7, #36]	@ 0x24
 80065a0:	2b00      	cmp	r3, #0
 80065a2:	d101      	bne.n	80065a8 <LL_GPIO_SetPinMode+0x58>
    return 32U;
 80065a4:	2320      	movs	r3, #32
 80065a6:	e003      	b.n	80065b0 <LL_GPIO_SetPinMode+0x60>
  return __builtin_clz(value);
 80065a8:	6a7b      	ldr	r3, [r7, #36]	@ 0x24
 80065aa:	fab3 f383 	clz	r3, r3
 80065ae:	b2db      	uxtb	r3, r3
 80065b0:	005b      	lsls	r3, r3, #1
 80065b2:	6879      	ldr	r1, [r7, #4]
 80065b4:	fa01 f303 	lsl.w	r3, r1, r3
 80065b8:	431a      	orrs	r2, r3
 80065ba:	68fb      	ldr	r3, [r7, #12]
 80065bc:	601a      	str	r2, [r3, #0]
}
 80065be:	bf00      	nop
 80065c0:	372c      	adds	r7, #44	@ 0x2c
 80065c2:	46bd      	mov	sp, r7
 80065c4:	f85d 7b04 	ldr.w	r7, [sp], #4
 80065c8:	4770      	bx	lr

080065ca <LL_GPIO_SetPinOutputType>:
{
 80065ca:	b480      	push	{r7}
 80065cc:	b085      	sub	sp, #20
 80065ce:	af00      	add	r7, sp, #0
 80065d0:	60f8      	str	r0, [r7, #12]
 80065d2:	60b9      	str	r1, [r7, #8]
 80065d4:	607a      	str	r2, [r7, #4]
  MODIFY_REG(GPIOx->OTYPER, PinMask, (PinMask * OutputType));
 80065d6:	68fb      	ldr	r3, [r7, #12]
 80065d8:	685a      	ldr	r2, [r3, #4]
 80065da:	68bb      	ldr	r3, [r7, #8]
 80065dc:	43db      	mvns	r3, r3
 80065de:	401a      	ands	r2, r3
 80065e0:	68bb      	ldr	r3, [r7, #8]
 80065e2:	6879      	ldr	r1, [r7, #4]
 80065e4:	fb01 f303 	mul.w	r3, r1, r3
 80065e8:	431a      	orrs	r2, r3
 80065ea:	68fb      	ldr	r3, [r7, #12]
 80065ec:	605a      	str	r2, [r3, #4]
}
 80065ee:	bf00      	nop
 80065f0:	3714      	adds	r7, #20
 80065f2:	46bd      	mov	sp, r7
 80065f4:	f85d 7b04 	ldr.w	r7, [sp], #4
 80065f8:	4770      	bx	lr

080065fa <LL_GPIO_SetPinSpeed>:
{
 80065fa:	b480      	push	{r7}
 80065fc:	b08b      	sub	sp, #44	@ 0x2c
 80065fe:	af00      	add	r7, sp, #0
 8006600:	60f8      	str	r0, [r7, #12]
 8006602:	60b9      	str	r1, [r7, #8]
 8006604:	607a      	str	r2, [r7, #4]
  MODIFY_REG(GPIOx->OSPEEDR, (GPIO_OSPEEDR_OSPEED0 << (POSITION_VAL(Pin) * 2U)),
 8006606:	68fb      	ldr	r3, [r7, #12]
 8006608:	689a      	ldr	r2, [r3, #8]
 800660a:	68bb      	ldr	r3, [r7, #8]
 800660c:	617b      	str	r3, [r7, #20]
   __ASM volatile ("rbit %0, %1" : "=r" (result) : "r" (value) );
 800660e:	697b      	ldr	r3, [r7, #20]
 8006610:	fa93 f3a3 	rbit	r3, r3
 8006614:	613b      	str	r3, [r7, #16]
  return result;
 8006616:	693b      	ldr	r3, [r7, #16]
 8006618:	61bb      	str	r3, [r7, #24]
  if (value == 0U)
 800661a:	69bb      	ldr	r3, [r7, #24]
 800661c:	2b00      	cmp	r3, #0
 800661e:	d101      	bne.n	8006624 <LL_GPIO_SetPinSpeed+0x2a>
    return 32U;
 8006620:	2320      	movs	r3, #32
 8006622:	e003      	b.n	800662c <LL_GPIO_SetPinSpeed+0x32>
  return __builtin_clz(value);
 8006624:	69bb      	ldr	r3, [r7, #24]
 8006626:	fab3 f383 	clz	r3, r3
 800662a:	b2db      	uxtb	r3, r3
 800662c:	005b      	lsls	r3, r3, #1
 800662e:	2103      	movs	r1, #3
 8006630:	fa01 f303 	lsl.w	r3, r1, r3
 8006634:	43db      	mvns	r3, r3
 8006636:	401a      	ands	r2, r3
 8006638:	68bb      	ldr	r3, [r7, #8]
 800663a:	623b      	str	r3, [r7, #32]
   __ASM volatile ("rbit %0, %1" : "=r" (result) : "r" (value) );
 800663c:	6a3b      	ldr	r3, [r7, #32]
 800663e:	fa93 f3a3 	rbit	r3, r3
 8006642:	61fb      	str	r3, [r7, #28]
  return result;
 8006644:	69fb      	ldr	r3, [r7, #28]
 8006646:	627b      	str	r3, [r7, #36]	@ 0x24
  if (value == 0U)
 8006648:	6a7b      	ldr	r3, [r7, #36]	@ 0x24
 800664a:	2b00      	cmp	r3, #0
 800664c:	d101      	bne.n	8006652 <LL_GPIO_SetPinSpeed+0x58>
    return 32U;
 800664e:	2320      	movs	r3, #32
 8006650:	e003      	b.n	800665a <LL_GPIO_SetPinSpeed+0x60>
  return __builtin_clz(value);
 8006652:	6a7b      	ldr	r3, [r7, #36]	@ 0x24
 8006654:	fab3 f383 	clz	r3, r3
 8006658:	b2db      	uxtb	r3, r3
 800665a:	005b      	lsls	r3, r3, #1
 800665c:	6879      	ldr	r1, [r7, #4]
 800665e:	fa01 f303 	lsl.w	r3, r1, r3
 8006662:	431a      	orrs	r2, r3
 8006664:	68fb      	ldr	r3, [r7, #12]
 8006666:	609a      	str	r2, [r3, #8]
}
 8006668:	bf00      	nop
 800666a:	372c      	adds	r7, #44	@ 0x2c
 800666c:	46bd      	mov	sp, r7
 800666e:	f85d 7b04 	ldr.w	r7, [sp], #4
 8006672:	4770      	bx	lr

08006674 <LL_GPIO_SetPinPull>:
{
 8006674:	b480      	push	{r7}
 8006676:	b08b      	sub	sp, #44	@ 0x2c
 8006678:	af00      	add	r7, sp, #0
 800667a:	60f8      	str	r0, [r7, #12]
 800667c:	60b9      	str	r1, [r7, #8]
 800667e:	607a      	str	r2, [r7, #4]
  MODIFY_REG(GPIOx->PUPDR, (GPIO_PUPDR_PUPD0 << (POSITION_VAL(Pin) * 2U)), (Pull << (POSITION_VAL(Pin) * 2U)));
 8006680:	68fb      	ldr	r3, [r7, #12]
 8006682:	68da      	ldr	r2, [r3, #12]
 8006684:	68bb      	ldr	r3, [r7, #8]
 8006686:	617b      	str	r3, [r7, #20]
   __ASM volatile ("rbit %0, %1" : "=r" (result) : "r" (value) );
 8006688:	697b      	ldr	r3, [r7, #20]
 800668a:	fa93 f3a3 	rbit	r3, r3
 800668e:	613b      	str	r3, [r7, #16]
  return result;
 8006690:	693b      	ldr	r3, [r7, #16]
 8006692:	61bb      	str	r3, [r7, #24]
  if (value == 0U)
 8006694:	69bb      	ldr	r3, [r7, #24]
 8006696:	2b00      	cmp	r3, #0
 8006698:	d101      	bne.n	800669e <LL_GPIO_SetPinPull+0x2a>
    return 32U;
 800669a:	2320      	movs	r3, #32
 800669c:	e003      	b.n	80066a6 <LL_GPIO_SetPinPull+0x32>
  return __builtin_clz(value);
 800669e:	69bb      	ldr	r3, [r7, #24]
 80066a0:	fab3 f383 	clz	r3, r3
 80066a4:	b2db      	uxtb	r3, r3
 80066a6:	005b      	lsls	r3, r3, #1
 80066a8:	2103      	movs	r1, #3
 80066aa:	fa01 f303 	lsl.w	r3, r1, r3
 80066ae:	43db      	mvns	r3, r3
 80066b0:	401a      	ands	r2, r3
 80066b2:	68bb      	ldr	r3, [r7, #8]
 80066b4:	623b      	str	r3, [r7, #32]
   __ASM volatile ("rbit %0, %1" : "=r" (result) : "r" (value) );
 80066b6:	6a3b      	ldr	r3, [r7, #32]
 80066b8:	fa93 f3a3 	rbit	r3, r3
 80066bc:	61fb      	str	r3, [r7, #28]
  return result;
 80066be:	69fb      	ldr	r3, [r7, #28]
 80066c0:	627b      	str	r3, [r7, #36]	@ 0x24
  if (value == 0U)
 80066c2:	6a7b      	ldr	r3, [r7, #36]	@ 0x24
 80066c4:	2b00      	cmp	r3, #0
 80066c6:	d101      	bne.n	80066cc <LL_GPIO_SetPinPull+0x58>
    return 32U;
 80066c8:	2320      	movs	r3, #32
 80066ca:	e003      	b.n	80066d4 <LL_GPIO_SetPinPull+0x60>
  return __builtin_clz(value);
 80066cc:	6a7b      	ldr	r3, [r7, #36]	@ 0x24
 80066ce:	fab3 f383 	clz	r3, r3
 80066d2:	b2db      	uxtb	r3, r3
 80066d4:	005b      	lsls	r3, r3, #1
 80066d6:	6879      	ldr	r1, [r7, #4]
 80066d8:	fa01 f303 	lsl.w	r3, r1, r3
 80066dc:	431a      	orrs	r2, r3
 80066de:	68fb      	ldr	r3, [r7, #12]
 80066e0:	60da      	str	r2, [r3, #12]
}
 80066e2:	bf00      	nop
 80066e4:	372c      	adds	r7, #44	@ 0x2c
 80066e6:	46bd      	mov	sp, r7
 80066e8:	f85d 7b04 	ldr.w	r7, [sp], #4
 80066ec:	4770      	bx	lr

080066ee <LL_GPIO_SetAFPin_0_7>:
{
 80066ee:	b480      	push	{r7}
 80066f0:	b08b      	sub	sp, #44	@ 0x2c
 80066f2:	af00      	add	r7, sp, #0
 80066f4:	60f8      	str	r0, [r7, #12]
 80066f6:	60b9      	str	r1, [r7, #8]
 80066f8:	607a      	str	r2, [r7, #4]
  MODIFY_REG(GPIOx->AFR[0], (GPIO_AFRL_AFSEL0 << (POSITION_VAL(Pin) * 4U)),
 80066fa:	68fb      	ldr	r3, [r7, #12]
 80066fc:	6a1a      	ldr	r2, [r3, #32]
 80066fe:	68bb      	ldr	r3, [r7, #8]
 8006700:	617b      	str	r3, [r7, #20]
   __ASM volatile ("rbit %0, %1" : "=r" (result) : "r" (value) );
 8006702:	697b      	ldr	r3, [r7, #20]
 8006704:	fa93 f3a3 	rbit	r3, r3
 8006708:	613b      	str	r3, [r7, #16]
  return result;
 800670a:	693b      	ldr	r3, [r7, #16]
 800670c:	61bb      	str	r3, [r7, #24]
  if (value == 0U)
 800670e:	69bb      	ldr	r3, [r7, #24]
 8006710:	2b00      	cmp	r3, #0
 8006712:	d101      	bne.n	8006718 <LL_GPIO_SetAFPin_0_7+0x2a>
    return 32U;
 8006714:	2320      	movs	r3, #32
 8006716:	e003      	b.n	8006720 <LL_GPIO_SetAFPin_0_7+0x32>
  return __builtin_clz(value);
 8006718:	69bb      	ldr	r3, [r7, #24]
 800671a:	fab3 f383 	clz	r3, r3
 800671e:	b2db      	uxtb	r3, r3
 8006720:	009b      	lsls	r3, r3, #2
 8006722:	210f      	movs	r1, #15
 8006724:	fa01 f303 	lsl.w	r3, r1, r3
 8006728:	43db      	mvns	r3, r3
 800672a:	401a      	ands	r2, r3
 800672c:	68bb      	ldr	r3, [r7, #8]
 800672e:	623b      	str	r3, [r7, #32]
   __ASM volatile ("rbit %0, %1" : "=r" (result) : "r" (value) );
 8006730:	6a3b      	ldr	r3, [r7, #32]
 8006732:	fa93 f3a3 	rbit	r3, r3
 8006736:	61fb      	str	r3, [r7, #28]
  return result;
 8006738:	69fb      	ldr	r3, [r7, #28]
 800673a:	627b      	str	r3, [r7, #36]	@ 0x24
  if (value == 0U)
 800673c:	6a7b      	ldr	r3, [r7, #36]	@ 0x24
 800673e:	2b00      	cmp	r3, #0
 8006740:	d101      	bne.n	8006746 <LL_GPIO_SetAFPin_0_7+0x58>
    return 32U;
 8006742:	2320      	movs	r3, #32
 8006744:	e003      	b.n	800674e <LL_GPIO_SetAFPin_0_7+0x60>
  return __builtin_clz(value);
 8006746:	6a7b      	ldr	r3, [r7, #36]	@ 0x24
 8006748:	fab3 f383 	clz	r3, r3
 800674c:	b2db      	uxtb	r3, r3
 800674e:	009b      	lsls	r3, r3, #2
 8006750:	6879      	ldr	r1, [r7, #4]
 8006752:	fa01 f303 	lsl.w	r3, r1, r3
 8006756:	431a      	orrs	r2, r3
 8006758:	68fb      	ldr	r3, [r7, #12]
 800675a:	621a      	str	r2, [r3, #32]
}
 800675c:	bf00      	nop
 800675e:	372c      	adds	r7, #44	@ 0x2c
 8006760:	46bd      	mov	sp, r7
 8006762:	f85d 7b04 	ldr.w	r7, [sp], #4
 8006766:	4770      	bx	lr

08006768 <LL_GPIO_SetAFPin_8_15>:
{
 8006768:	b480      	push	{r7}
 800676a:	b08b      	sub	sp, #44	@ 0x2c
 800676c:	af00      	add	r7, sp, #0
 800676e:	60f8      	str	r0, [r7, #12]
 8006770:	60b9      	str	r1, [r7, #8]
 8006772:	607a      	str	r2, [r7, #4]
  MODIFY_REG(GPIOx->AFR[1], (GPIO_AFRH_AFSEL8 << (POSITION_VAL(Pin >> 8U) * 4U)),
 8006774:	68fb      	ldr	r3, [r7, #12]
 8006776:	6a5a      	ldr	r2, [r3, #36]	@ 0x24
 8006778:	68bb      	ldr	r3, [r7, #8]
 800677a:	0a1b      	lsrs	r3, r3, #8
 800677c:	617b      	str	r3, [r7, #20]
   __ASM volatile ("rbit %0, %1" : "=r" (result) : "r" (value) );
 800677e:	697b      	ldr	r3, [r7, #20]
 8006780:	fa93 f3a3 	rbit	r3, r3
 8006784:	613b      	str	r3, [r7, #16]
  return result;
 8006786:	693b      	ldr	r3, [r7, #16]
 8006788:	61bb      	str	r3, [r7, #24]
  if (value == 0U)
 800678a:	69bb      	ldr	r3, [r7, #24]
 800678c:	2b00      	cmp	r3, #0
 800678e:	d101      	bne.n	8006794 <LL_GPIO_SetAFPin_8_15+0x2c>
    return 32U;
 8006790:	2320      	movs	r3, #32
 8006792:	e003      	b.n	800679c <LL_GPIO_SetAFPin_8_15+0x34>
  return __builtin_clz(value);
 8006794:	69bb      	ldr	r3, [r7, #24]
 8006796:	fab3 f383 	clz	r3, r3
 800679a:	b2db      	uxtb	r3, r3
 800679c:	009b      	lsls	r3, r3, #2
 800679e:	210f      	movs	r1, #15
 80067a0:	fa01 f303 	lsl.w	r3, r1, r3
 80067a4:	43db      	mvns	r3, r3
 80067a6:	401a      	ands	r2, r3
 80067a8:	68bb      	ldr	r3, [r7, #8]
 80067aa:	0a1b      	lsrs	r3, r3, #8
 80067ac:	623b      	str	r3, [r7, #32]
   __ASM volatile ("rbit %0, %1" : "=r" (result) : "r" (value) );
 80067ae:	6a3b      	ldr	r3, [r7, #32]
 80067b0:	fa93 f3a3 	rbit	r3, r3
 80067b4:	61fb      	str	r3, [r7, #28]
  return result;
 80067b6:	69fb      	ldr	r3, [r7, #28]
 80067b8:	627b      	str	r3, [r7, #36]	@ 0x24
  if (value == 0U)
 80067ba:	6a7b      	ldr	r3, [r7, #36]	@ 0x24
 80067bc:	2b00      	cmp	r3, #0
 80067be:	d101      	bne.n	80067c4 <LL_GPIO_SetAFPin_8_15+0x5c>
    return 32U;
 80067c0:	2320      	movs	r3, #32
 80067c2:	e003      	b.n	80067cc <LL_GPIO_SetAFPin_8_15+0x64>
  return __builtin_clz(value);
 80067c4:	6a7b      	ldr	r3, [r7, #36]	@ 0x24
 80067c6:	fab3 f383 	clz	r3, r3
 80067ca:	b2db      	uxtb	r3, r3
 80067cc:	009b      	lsls	r3, r3, #2
 80067ce:	6879      	ldr	r1, [r7, #4]
 80067d0:	fa01 f303 	lsl.w	r3, r1, r3
 80067d4:	431a      	orrs	r2, r3
 80067d6:	68fb      	ldr	r3, [r7, #12]
 80067d8:	625a      	str	r2, [r3, #36]	@ 0x24
}
 80067da:	bf00      	nop
 80067dc:	372c      	adds	r7, #44	@ 0x2c
 80067de:	46bd      	mov	sp, r7
 80067e0:	f85d 7b04 	ldr.w	r7, [sp], #4
 80067e4:	4770      	bx	lr

080067e6 <LL_GPIO_Init>:
  * @retval An ErrorStatus enumeration value:
  *          - SUCCESS: GPIO registers are initialized according to GPIO_InitStruct content
  *          - ERROR:   Not applicable
  */
ErrorStatus LL_GPIO_Init(GPIO_TypeDef *GPIOx, LL_GPIO_InitTypeDef *GPIO_InitStruct)
{
 80067e6:	b580      	push	{r7, lr}
 80067e8:	b088      	sub	sp, #32
 80067ea:	af00      	add	r7, sp, #0
 80067ec:	6078      	str	r0, [r7, #4]
 80067ee:	6039      	str	r1, [r7, #0]
  assert_param(IS_LL_GPIO_MODE(GPIO_InitStruct->Mode));
  assert_param(IS_LL_GPIO_PULL(GPIO_InitStruct->Pull));

  /* ------------------------- Configure the port pins ---------------- */
  /* Initialize  pinpos on first pin set */
  pinpos = POSITION_VAL(GPIO_InitStruct->Pin);
 80067f0:	683b      	ldr	r3, [r7, #0]
 80067f2:	681b      	ldr	r3, [r3, #0]
 80067f4:	613b      	str	r3, [r7, #16]
   __ASM volatile ("rbit %0, %1" : "=r" (result) : "r" (value) );
 80067f6:	693b      	ldr	r3, [r7, #16]
 80067f8:	fa93 f3a3 	rbit	r3, r3
 80067fc:	60fb      	str	r3, [r7, #12]
  return result;
 80067fe:	68fb      	ldr	r3, [r7, #12]
 8006800:	617b      	str	r3, [r7, #20]
  if (value == 0U)
 8006802:	697b      	ldr	r3, [r7, #20]
 8006804:	2b00      	cmp	r3, #0
 8006806:	d101      	bne.n	800680c <LL_GPIO_Init+0x26>
    return 32U;
 8006808:	2320      	movs	r3, #32
 800680a:	e003      	b.n	8006814 <LL_GPIO_Init+0x2e>
  return __builtin_clz(value);
 800680c:	697b      	ldr	r3, [r7, #20]
 800680e:	fab3 f383 	clz	r3, r3
 8006812:	b2db      	uxtb	r3, r3
 8006814:	61fb      	str	r3, [r7, #28]

  /* Configure the port pins */
  while (((GPIO_InitStruct->Pin) >> pinpos) != 0x00u)
 8006816:	e048      	b.n	80068aa <LL_GPIO_Init+0xc4>
  {
    /* Get current io position */
    currentpin = (GPIO_InitStruct->Pin) & (0x00000001uL << pinpos);
 8006818:	683b      	ldr	r3, [r7, #0]
 800681a:	681a      	ldr	r2, [r3, #0]
 800681c:	2101      	movs	r1, #1
 800681e:	69fb      	ldr	r3, [r7, #28]
 8006820:	fa01 f303 	lsl.w	r3, r1, r3
 8006824:	4013      	ands	r3, r2
 8006826:	61bb      	str	r3, [r7, #24]

    if (currentpin != 0x00u)
 8006828:	69bb      	ldr	r3, [r7, #24]
 800682a:	2b00      	cmp	r3, #0
 800682c:	d03a      	beq.n	80068a4 <LL_GPIO_Init+0xbe>
    {
      if ((GPIO_InitStruct->Mode == LL_GPIO_MODE_OUTPUT) || (GPIO_InitStruct->Mode == LL_GPIO_MODE_ALTERNATE))
 800682e:	683b      	ldr	r3, [r7, #0]
 8006830:	685b      	ldr	r3, [r3, #4]
 8006832:	2b01      	cmp	r3, #1
 8006834:	d003      	beq.n	800683e <LL_GPIO_Init+0x58>
 8006836:	683b      	ldr	r3, [r7, #0]
 8006838:	685b      	ldr	r3, [r3, #4]
 800683a:	2b02      	cmp	r3, #2
 800683c:	d10e      	bne.n	800685c <LL_GPIO_Init+0x76>
      {
        /* Check Speed mode parameters */
        assert_param(IS_LL_GPIO_SPEED(GPIO_InitStruct->Speed));

        /* Speed mode configuration */
        LL_GPIO_SetPinSpeed(GPIOx, currentpin, GPIO_InitStruct->Speed);
 800683e:	683b      	ldr	r3, [r7, #0]
 8006840:	689b      	ldr	r3, [r3, #8]
 8006842:	461a      	mov	r2, r3
 8006844:	69b9      	ldr	r1, [r7, #24]
 8006846:	6878      	ldr	r0, [r7, #4]
 8006848:	f7ff fed7 	bl	80065fa <LL_GPIO_SetPinSpeed>

        /* Check Output mode parameters */
        assert_param(IS_LL_GPIO_OUTPUT_TYPE(GPIO_InitStruct->OutputType));

        /* Output mode configuration*/
        LL_GPIO_SetPinOutputType(GPIOx, GPIO_InitStruct->Pin, GPIO_InitStruct->OutputType);
 800684c:	683b      	ldr	r3, [r7, #0]
 800684e:	6819      	ldr	r1, [r3, #0]
 8006850:	683b      	ldr	r3, [r7, #0]
 8006852:	68db      	ldr	r3, [r3, #12]
 8006854:	461a      	mov	r2, r3
 8006856:	6878      	ldr	r0, [r7, #4]
 8006858:	f7ff feb7 	bl	80065ca <LL_GPIO_SetPinOutputType>
      }

      /* Pull-up Pull down resistor configuration*/
      LL_GPIO_SetPinPull(GPIOx, currentpin, GPIO_InitStruct->Pull);
 800685c:	683b      	ldr	r3, [r7, #0]
 800685e:	691b      	ldr	r3, [r3, #16]
 8006860:	461a      	mov	r2, r3
 8006862:	69b9      	ldr	r1, [r7, #24]
 8006864:	6878      	ldr	r0, [r7, #4]
 8006866:	f7ff ff05 	bl	8006674 <LL_GPIO_SetPinPull>

      if (GPIO_InitStruct->Mode == LL_GPIO_MODE_ALTERNATE)
 800686a:	683b      	ldr	r3, [r7, #0]
 800686c:	685b      	ldr	r3, [r3, #4]
 800686e:	2b02      	cmp	r3, #2
 8006870:	d111      	bne.n	8006896 <LL_GPIO_Init+0xb0>
      {
        /* Check Alternate parameter */
        assert_param(IS_LL_GPIO_ALTERNATE(GPIO_InitStruct->Alternate));

        /* Speed mode configuration */
        if (currentpin < LL_GPIO_PIN_8)
 8006872:	69bb      	ldr	r3, [r7, #24]
 8006874:	2bff      	cmp	r3, #255	@ 0xff
 8006876:	d807      	bhi.n	8006888 <LL_GPIO_Init+0xa2>
        {
          LL_GPIO_SetAFPin_0_7(GPIOx, currentpin, GPIO_InitStruct->Alternate);
 8006878:	683b      	ldr	r3, [r7, #0]
 800687a:	695b      	ldr	r3, [r3, #20]
 800687c:	461a      	mov	r2, r3
 800687e:	69b9      	ldr	r1, [r7, #24]
 8006880:	6878      	ldr	r0, [r7, #4]
 8006882:	f7ff ff34 	bl	80066ee <LL_GPIO_SetAFPin_0_7>
 8006886:	e006      	b.n	8006896 <LL_GPIO_Init+0xb0>
        }
        else
        {
          LL_GPIO_SetAFPin_8_15(GPIOx, currentpin, GPIO_InitStruct->Alternate);
 8006888:	683b      	ldr	r3, [r7, #0]
 800688a:	695b      	ldr	r3, [r3, #20]
 800688c:	461a      	mov	r2, r3
 800688e:	69b9      	ldr	r1, [r7, #24]
 8006890:	6878      	ldr	r0, [r7, #4]
 8006892:	f7ff ff69 	bl	8006768 <LL_GPIO_SetAFPin_8_15>
        }
      }

      /* Pin Mode configuration */
      LL_GPIO_SetPinMode(GPIOx, currentpin, GPIO_InitStruct->Mode);
 8006896:	683b      	ldr	r3, [r7, #0]
 8006898:	685b      	ldr	r3, [r3, #4]
 800689a:	461a      	mov	r2, r3
 800689c:	69b9      	ldr	r1, [r7, #24]
 800689e:	6878      	ldr	r0, [r7, #4]
 80068a0:	f7ff fe56 	bl	8006550 <LL_GPIO_SetPinMode>
    }
    pinpos++;
 80068a4:	69fb      	ldr	r3, [r7, #28]
 80068a6:	3301      	adds	r3, #1
 80068a8:	61fb      	str	r3, [r7, #28]
  while (((GPIO_InitStruct->Pin) >> pinpos) != 0x00u)
 80068aa:	683b      	ldr	r3, [r7, #0]
 80068ac:	681a      	ldr	r2, [r3, #0]
 80068ae:	69fb      	ldr	r3, [r7, #28]
 80068b0:	fa22 f303 	lsr.w	r3, r2, r3
 80068b4:	2b00      	cmp	r3, #0
 80068b6:	d1af      	bne.n	8006818 <LL_GPIO_Init+0x32>
  }

  return (SUCCESS);
 80068b8:	2300      	movs	r3, #0
}
 80068ba:	4618      	mov	r0, r3
 80068bc:	3720      	adds	r7, #32
 80068be:	46bd      	mov	sp, r7
 80068c0:	bd80      	pop	{r7, pc}
	...

080068c4 <LL_RCC_HSI_IsReady>:
{
 80068c4:	b480      	push	{r7}
 80068c6:	af00      	add	r7, sp, #0
  return ((READ_BIT(RCC->CR, RCC_CR_HSIRDY) == RCC_CR_HSIRDY) ? 1UL : 0UL);
 80068c8:	4b07      	ldr	r3, [pc, #28]	@ (80068e8 <LL_RCC_HSI_IsReady+0x24>)
 80068ca:	681b      	ldr	r3, [r3, #0]
 80068cc:	f403 6380 	and.w	r3, r3, #1024	@ 0x400
 80068d0:	f5b3 6f80 	cmp.w	r3, #1024	@ 0x400
 80068d4:	d101      	bne.n	80068da <LL_RCC_HSI_IsReady+0x16>
 80068d6:	2301      	movs	r3, #1
 80068d8:	e000      	b.n	80068dc <LL_RCC_HSI_IsReady+0x18>
 80068da:	2300      	movs	r3, #0
}
 80068dc:	4618      	mov	r0, r3
 80068de:	46bd      	mov	sp, r7
 80068e0:	f85d 7b04 	ldr.w	r7, [sp], #4
 80068e4:	4770      	bx	lr
 80068e6:	bf00      	nop
 80068e8:	40021000 	.word	0x40021000

080068ec <LL_RCC_LSE_IsReady>:
{
 80068ec:	b480      	push	{r7}
 80068ee:	af00      	add	r7, sp, #0
  return ((READ_BIT(RCC->BDCR, RCC_BDCR_LSERDY) == RCC_BDCR_LSERDY) ? 1UL : 0UL);
 80068f0:	4b07      	ldr	r3, [pc, #28]	@ (8006910 <LL_RCC_LSE_IsReady+0x24>)
 80068f2:	f8d3 3090 	ldr.w	r3, [r3, #144]	@ 0x90
 80068f6:	f003 0302 	and.w	r3, r3, #2
 80068fa:	2b02      	cmp	r3, #2
 80068fc:	d101      	bne.n	8006902 <LL_RCC_LSE_IsReady+0x16>
 80068fe:	2301      	movs	r3, #1
 8006900:	e000      	b.n	8006904 <LL_RCC_LSE_IsReady+0x18>
 8006902:	2300      	movs	r3, #0
}
 8006904:	4618      	mov	r0, r3
 8006906:	46bd      	mov	sp, r7
 8006908:	f85d 7b04 	ldr.w	r7, [sp], #4
 800690c:	4770      	bx	lr
 800690e:	bf00      	nop
 8006910:	40021000 	.word	0x40021000

08006914 <LL_RCC_MSI_IsEnabledRangeSelect>:
{
 8006914:	b480      	push	{r7}
 8006916:	af00      	add	r7, sp, #0
  return ((READ_BIT(RCC->CR, RCC_CR_MSIRGSEL) == RCC_CR_MSIRGSEL) ? 1UL : 0UL);
 8006918:	4b06      	ldr	r3, [pc, #24]	@ (8006934 <LL_RCC_MSI_IsEnabledRangeSelect+0x20>)
 800691a:	681b      	ldr	r3, [r3, #0]
 800691c:	f003 0308 	and.w	r3, r3, #8
 8006920:	2b08      	cmp	r3, #8
 8006922:	d101      	bne.n	8006928 <LL_RCC_MSI_IsEnabledRangeSelect+0x14>
 8006924:	2301      	movs	r3, #1
 8006926:	e000      	b.n	800692a <LL_RCC_MSI_IsEnabledRangeSelect+0x16>
 8006928:	2300      	movs	r3, #0
}
 800692a:	4618      	mov	r0, r3
 800692c:	46bd      	mov	sp, r7
 800692e:	f85d 7b04 	ldr.w	r7, [sp], #4
 8006932:	4770      	bx	lr
 8006934:	40021000 	.word	0x40021000

08006938 <LL_RCC_MSI_GetRange>:
{
 8006938:	b480      	push	{r7}
 800693a:	af00      	add	r7, sp, #0
  return (uint32_t)(READ_BIT(RCC->CR, RCC_CR_MSIRANGE));
 800693c:	4b04      	ldr	r3, [pc, #16]	@ (8006950 <LL_RCC_MSI_GetRange+0x18>)
 800693e:	681b      	ldr	r3, [r3, #0]
 8006940:	f003 03f0 	and.w	r3, r3, #240	@ 0xf0
}
 8006944:	4618      	mov	r0, r3
 8006946:	46bd      	mov	sp, r7
 8006948:	f85d 7b04 	ldr.w	r7, [sp], #4
 800694c:	4770      	bx	lr
 800694e:	bf00      	nop
 8006950:	40021000 	.word	0x40021000

08006954 <LL_RCC_MSI_GetRangeAfterStandby>:
{
 8006954:	b480      	push	{r7}
 8006956:	af00      	add	r7, sp, #0
  return (uint32_t)(READ_BIT(RCC->CSR, RCC_CSR_MSISRANGE));
 8006958:	4b04      	ldr	r3, [pc, #16]	@ (800696c <LL_RCC_MSI_GetRangeAfterStandby+0x18>)
 800695a:	f8d3 3094 	ldr.w	r3, [r3, #148]	@ 0x94
 800695e:	f403 6370 	and.w	r3, r3, #3840	@ 0xf00
}
 8006962:	4618      	mov	r0, r3
 8006964:	46bd      	mov	sp, r7
 8006966:	f85d 7b04 	ldr.w	r7, [sp], #4
 800696a:	4770      	bx	lr
 800696c:	40021000 	.word	0x40021000

08006970 <LL_RCC_GetSysClkSource>:
{
 8006970:	b480      	push	{r7}
 8006972:	af00      	add	r7, sp, #0
  return (uint32_t)(READ_BIT(RCC->CFGR, RCC_CFGR_SWS));
 8006974:	4b04      	ldr	r3, [pc, #16]	@ (8006988 <LL_RCC_GetSysClkSource+0x18>)
 8006976:	689b      	ldr	r3, [r3, #8]
 8006978:	f003 030c 	and.w	r3, r3, #12
}
 800697c:	4618      	mov	r0, r3
 800697e:	46bd      	mov	sp, r7
 8006980:	f85d 7b04 	ldr.w	r7, [sp], #4
 8006984:	4770      	bx	lr
 8006986:	bf00      	nop
 8006988:	40021000 	.word	0x40021000

0800698c <LL_RCC_GetAHBPrescaler>:
{
 800698c:	b480      	push	{r7}
 800698e:	af00      	add	r7, sp, #0
  return (uint32_t)(READ_BIT(RCC->CFGR, RCC_CFGR_HPRE));
 8006990:	4b04      	ldr	r3, [pc, #16]	@ (80069a4 <LL_RCC_GetAHBPrescaler+0x18>)
 8006992:	689b      	ldr	r3, [r3, #8]
 8006994:	f003 03f0 	and.w	r3, r3, #240	@ 0xf0
}
 8006998:	4618      	mov	r0, r3
 800699a:	46bd      	mov	sp, r7
 800699c:	f85d 7b04 	ldr.w	r7, [sp], #4
 80069a0:	4770      	bx	lr
 80069a2:	bf00      	nop
 80069a4:	40021000 	.word	0x40021000

080069a8 <LL_RCC_GetAPB1Prescaler>:
{
 80069a8:	b480      	push	{r7}
 80069aa:	af00      	add	r7, sp, #0
  return (uint32_t)(READ_BIT(RCC->CFGR, RCC_CFGR_PPRE1));
 80069ac:	4b04      	ldr	r3, [pc, #16]	@ (80069c0 <LL_RCC_GetAPB1Prescaler+0x18>)
 80069ae:	689b      	ldr	r3, [r3, #8]
 80069b0:	f403 63e0 	and.w	r3, r3, #1792	@ 0x700
}
 80069b4:	4618      	mov	r0, r3
 80069b6:	46bd      	mov	sp, r7
 80069b8:	f85d 7b04 	ldr.w	r7, [sp], #4
 80069bc:	4770      	bx	lr
 80069be:	bf00      	nop
 80069c0:	40021000 	.word	0x40021000

080069c4 <LL_RCC_GetAPB2Prescaler>:
{
 80069c4:	b480      	push	{r7}
 80069c6:	af00      	add	r7, sp, #0
  return (uint32_t)(READ_BIT(RCC->CFGR, RCC_CFGR_PPRE2));
 80069c8:	4b04      	ldr	r3, [pc, #16]	@ (80069dc <LL_RCC_GetAPB2Prescaler+0x18>)
 80069ca:	689b      	ldr	r3, [r3, #8]
 80069cc:	f403 5360 	and.w	r3, r3, #14336	@ 0x3800
}
 80069d0:	4618      	mov	r0, r3
 80069d2:	46bd      	mov	sp, r7
 80069d4:	f85d 7b04 	ldr.w	r7, [sp], #4
 80069d8:	4770      	bx	lr
 80069da:	bf00      	nop
 80069dc:	40021000 	.word	0x40021000

080069e0 <LL_RCC_GetUSARTClockSource>:
{
 80069e0:	b480      	push	{r7}
 80069e2:	b083      	sub	sp, #12
 80069e4:	af00      	add	r7, sp, #0
 80069e6:	6078      	str	r0, [r7, #4]
  return (uint32_t)(READ_BIT(RCC->CCIPR, USARTx) | (USARTx << 16U));
 80069e8:	4b06      	ldr	r3, [pc, #24]	@ (8006a04 <LL_RCC_GetUSARTClockSource+0x24>)
 80069ea:	f8d3 2088 	ldr.w	r2, [r3, #136]	@ 0x88
 80069ee:	687b      	ldr	r3, [r7, #4]
 80069f0:	401a      	ands	r2, r3
 80069f2:	687b      	ldr	r3, [r7, #4]
 80069f4:	041b      	lsls	r3, r3, #16
 80069f6:	4313      	orrs	r3, r2
}
 80069f8:	4618      	mov	r0, r3
 80069fa:	370c      	adds	r7, #12
 80069fc:	46bd      	mov	sp, r7
 80069fe:	f85d 7b04 	ldr.w	r7, [sp], #4
 8006a02:	4770      	bx	lr
 8006a04:	40021000 	.word	0x40021000

08006a08 <LL_RCC_GetUARTClockSource>:
{
 8006a08:	b480      	push	{r7}
 8006a0a:	b083      	sub	sp, #12
 8006a0c:	af00      	add	r7, sp, #0
 8006a0e:	6078      	str	r0, [r7, #4]
  return (uint32_t)(READ_BIT(RCC->CCIPR, UARTx) | (UARTx << 16U));
 8006a10:	4b06      	ldr	r3, [pc, #24]	@ (8006a2c <LL_RCC_GetUARTClockSource+0x24>)
 8006a12:	f8d3 2088 	ldr.w	r2, [r3, #136]	@ 0x88
 8006a16:	687b      	ldr	r3, [r7, #4]
 8006a18:	401a      	ands	r2, r3
 8006a1a:	687b      	ldr	r3, [r7, #4]
 8006a1c:	041b      	lsls	r3, r3, #16
 8006a1e:	4313      	orrs	r3, r2
}
 8006a20:	4618      	mov	r0, r3
 8006a22:	370c      	adds	r7, #12
 8006a24:	46bd      	mov	sp, r7
 8006a26:	f85d 7b04 	ldr.w	r7, [sp], #4
 8006a2a:	4770      	bx	lr
 8006a2c:	40021000 	.word	0x40021000

08006a30 <LL_RCC_PLL_GetMainSource>:
{
 8006a30:	b480      	push	{r7}
 8006a32:	af00      	add	r7, sp, #0
  return (uint32_t)(READ_BIT(RCC->PLLCFGR, RCC_PLLCFGR_PLLSRC));
 8006a34:	4b04      	ldr	r3, [pc, #16]	@ (8006a48 <LL_RCC_PLL_GetMainSource+0x18>)
 8006a36:	68db      	ldr	r3, [r3, #12]
 8006a38:	f003 0303 	and.w	r3, r3, #3
}
 8006a3c:	4618      	mov	r0, r3
 8006a3e:	46bd      	mov	sp, r7
 8006a40:	f85d 7b04 	ldr.w	r7, [sp], #4
 8006a44:	4770      	bx	lr
 8006a46:	bf00      	nop
 8006a48:	40021000 	.word	0x40021000

08006a4c <LL_RCC_PLL_GetN>:
{
 8006a4c:	b480      	push	{r7}
 8006a4e:	af00      	add	r7, sp, #0
  return (uint32_t)(READ_BIT(RCC->PLLCFGR, RCC_PLLCFGR_PLLN) >>  RCC_PLLCFGR_PLLN_Pos);
 8006a50:	4b04      	ldr	r3, [pc, #16]	@ (8006a64 <LL_RCC_PLL_GetN+0x18>)
 8006a52:	68db      	ldr	r3, [r3, #12]
 8006a54:	0a1b      	lsrs	r3, r3, #8
 8006a56:	f003 037f 	and.w	r3, r3, #127	@ 0x7f
}
 8006a5a:	4618      	mov	r0, r3
 8006a5c:	46bd      	mov	sp, r7
 8006a5e:	f85d 7b04 	ldr.w	r7, [sp], #4
 8006a62:	4770      	bx	lr
 8006a64:	40021000 	.word	0x40021000

08006a68 <LL_RCC_PLL_GetR>:
{
 8006a68:	b480      	push	{r7}
 8006a6a:	af00      	add	r7, sp, #0
  return (uint32_t)(READ_BIT(RCC->PLLCFGR, RCC_PLLCFGR_PLLR));
 8006a6c:	4b04      	ldr	r3, [pc, #16]	@ (8006a80 <LL_RCC_PLL_GetR+0x18>)
 8006a6e:	68db      	ldr	r3, [r3, #12]
 8006a70:	f003 63c0 	and.w	r3, r3, #100663296	@ 0x6000000
}
 8006a74:	4618      	mov	r0, r3
 8006a76:	46bd      	mov	sp, r7
 8006a78:	f85d 7b04 	ldr.w	r7, [sp], #4
 8006a7c:	4770      	bx	lr
 8006a7e:	bf00      	nop
 8006a80:	40021000 	.word	0x40021000

08006a84 <LL_RCC_PLL_GetDivider>:
{
 8006a84:	b480      	push	{r7}
 8006a86:	af00      	add	r7, sp, #0
  return (uint32_t)(READ_BIT(RCC->PLLCFGR, RCC_PLLCFGR_PLLM));
 8006a88:	4b04      	ldr	r3, [pc, #16]	@ (8006a9c <LL_RCC_PLL_GetDivider+0x18>)
 8006a8a:	68db      	ldr	r3, [r3, #12]
 8006a8c:	f003 0370 	and.w	r3, r3, #112	@ 0x70
}
 8006a90:	4618      	mov	r0, r3
 8006a92:	46bd      	mov	sp, r7
 8006a94:	f85d 7b04 	ldr.w	r7, [sp], #4
 8006a98:	4770      	bx	lr
 8006a9a:	bf00      	nop
 8006a9c:	40021000 	.word	0x40021000

08006aa0 <LL_RCC_GetUSARTClockFreq>:
  *         (*) value not defined in all devices.
  * @retval USART clock frequency (in Hz)
  *         - @ref  LL_RCC_PERIPH_FREQUENCY_NO indicates that oscillator (HSI or LSE) is not ready
  */
uint32_t LL_RCC_GetUSARTClockFreq(uint32_t USARTxSource)
{
 8006aa0:	b580      	push	{r7, lr}
 8006aa2:	b084      	sub	sp, #16
 8006aa4:	af00      	add	r7, sp, #0
 8006aa6:	6078      	str	r0, [r7, #4]
  uint32_t usart_frequency = LL_RCC_PERIPH_FREQUENCY_NO;
 8006aa8:	2300      	movs	r3, #0
 8006aaa:	60fb      	str	r3, [r7, #12]

  /* Check parameter */
  assert_param(IS_LL_RCC_USART_CLKSOURCE(USARTxSource));

  if (USARTxSource == LL_RCC_USART1_CLKSOURCE)
 8006aac:	687b      	ldr	r3, [r7, #4]
 8006aae:	2b03      	cmp	r3, #3
 8006ab0:	d137      	bne.n	8006b22 <LL_RCC_GetUSARTClockFreq+0x82>
  {
    /* USART1CLK clock frequency */
    switch (LL_RCC_GetUSARTClockSource(USARTxSource))
 8006ab2:	6878      	ldr	r0, [r7, #4]
 8006ab4:	f7ff ff94 	bl	80069e0 <LL_RCC_GetUSARTClockSource>
 8006ab8:	4603      	mov	r3, r0
 8006aba:	f5a3 3340 	sub.w	r3, r3, #196608	@ 0x30000
 8006abe:	2b03      	cmp	r3, #3
 8006ac0:	f200 80b3 	bhi.w	8006c2a <LL_RCC_GetUSARTClockFreq+0x18a>
 8006ac4:	a201      	add	r2, pc, #4	@ (adr r2, 8006acc <LL_RCC_GetUSARTClockFreq+0x2c>)
 8006ac6:	f852 f023 	ldr.w	pc, [r2, r3, lsl #2]
 8006aca:	bf00      	nop
 8006acc:	08006b0b 	.word	0x08006b0b
 8006ad0:	08006add 	.word	0x08006add
 8006ad4:	08006ae5 	.word	0x08006ae5
 8006ad8:	08006af7 	.word	0x08006af7
    {
      case LL_RCC_USART1_CLKSOURCE_SYSCLK: /* USART1 Clock is System Clock */
        usart_frequency = RCC_GetSystemClockFreq();
 8006adc:	f000 f956 	bl	8006d8c <RCC_GetSystemClockFreq>
 8006ae0:	60f8      	str	r0, [r7, #12]
        break;
 8006ae2:	e0b3      	b.n	8006c4c <LL_RCC_GetUSARTClockFreq+0x1ac>

      case LL_RCC_USART1_CLKSOURCE_HSI:    /* USART1 Clock is HSI Osc. */
        if (LL_RCC_HSI_IsReady() != 0U)
 8006ae4:	f7ff feee 	bl	80068c4 <LL_RCC_HSI_IsReady>
 8006ae8:	4603      	mov	r3, r0
 8006aea:	2b00      	cmp	r3, #0
 8006aec:	f000 809f 	beq.w	8006c2e <LL_RCC_GetUSARTClockFreq+0x18e>
        {
          usart_frequency = HSI_VALUE;
 8006af0:	4b59      	ldr	r3, [pc, #356]	@ (8006c58 <LL_RCC_GetUSARTClockFreq+0x1b8>)
 8006af2:	60fb      	str	r3, [r7, #12]
        }
        break;
 8006af4:	e09b      	b.n	8006c2e <LL_RCC_GetUSARTClockFreq+0x18e>

      case LL_RCC_USART1_CLKSOURCE_LSE:    /* USART1 Clock is LSE Osc. */
        if (LL_RCC_LSE_IsReady() != 0U)
 8006af6:	f7ff fef9 	bl	80068ec <LL_RCC_LSE_IsReady>
 8006afa:	4603      	mov	r3, r0
 8006afc:	2b00      	cmp	r3, #0
 8006afe:	f000 8098 	beq.w	8006c32 <LL_RCC_GetUSARTClockFreq+0x192>
        {
          usart_frequency = LSE_VALUE;
 8006b02:	f44f 4300 	mov.w	r3, #32768	@ 0x8000
 8006b06:	60fb      	str	r3, [r7, #12]
        }
        break;
 8006b08:	e093      	b.n	8006c32 <LL_RCC_GetUSARTClockFreq+0x192>

      case LL_RCC_USART1_CLKSOURCE_PCLK2:  /* USART1 Clock is PCLK2 */
        usart_frequency = RCC_GetPCLK2ClockFreq(RCC_GetHCLKClockFreq(RCC_GetSystemClockFreq()));
 8006b0a:	f000 f93f 	bl	8006d8c <RCC_GetSystemClockFreq>
 8006b0e:	4603      	mov	r3, r0
 8006b10:	4618      	mov	r0, r3
 8006b12:	f000 f9cb 	bl	8006eac <RCC_GetHCLKClockFreq>
 8006b16:	4603      	mov	r3, r0
 8006b18:	4618      	mov	r0, r3
 8006b1a:	f000 f9f1 	bl	8006f00 <RCC_GetPCLK2ClockFreq>
 8006b1e:	60f8      	str	r0, [r7, #12]
        break;
 8006b20:	e094      	b.n	8006c4c <LL_RCC_GetUSARTClockFreq+0x1ac>

      default:
        break;
    }
  }
  else if (USARTxSource == LL_RCC_USART2_CLKSOURCE)
 8006b22:	687b      	ldr	r3, [r7, #4]
 8006b24:	2b0c      	cmp	r3, #12
 8006b26:	d146      	bne.n	8006bb6 <LL_RCC_GetUSARTClockFreq+0x116>
  {
    /* USART2CLK clock frequency */
    switch (LL_RCC_GetUSARTClockSource(USARTxSource))
 8006b28:	6878      	ldr	r0, [r7, #4]
 8006b2a:	f7ff ff59 	bl	80069e0 <LL_RCC_GetUSARTClockSource>
 8006b2e:	4603      	mov	r3, r0
 8006b30:	f5a3 2340 	sub.w	r3, r3, #786432	@ 0xc0000
 8006b34:	2b0c      	cmp	r3, #12
 8006b36:	d87e      	bhi.n	8006c36 <LL_RCC_GetUSARTClockFreq+0x196>
 8006b38:	a201      	add	r2, pc, #4	@ (adr r2, 8006b40 <LL_RCC_GetUSARTClockFreq+0xa0>)
 8006b3a:	f852 f023 	ldr.w	pc, [r2, r3, lsl #2]
 8006b3e:	bf00      	nop
 8006b40:	08006b9f 	.word	0x08006b9f
 8006b44:	08006c37 	.word	0x08006c37
 8006b48:	08006c37 	.word	0x08006c37
 8006b4c:	08006c37 	.word	0x08006c37
 8006b50:	08006b75 	.word	0x08006b75
 8006b54:	08006c37 	.word	0x08006c37
 8006b58:	08006c37 	.word	0x08006c37
 8006b5c:	08006c37 	.word	0x08006c37
 8006b60:	08006b7d 	.word	0x08006b7d
 8006b64:	08006c37 	.word	0x08006c37
 8006b68:	08006c37 	.word	0x08006c37
 8006b6c:	08006c37 	.word	0x08006c37
 8006b70:	08006b8d 	.word	0x08006b8d
    {
      case LL_RCC_USART2_CLKSOURCE_SYSCLK: /* USART2 Clock is System Clock */
        usart_frequency = RCC_GetSystemClockFreq();
 8006b74:	f000 f90a 	bl	8006d8c <RCC_GetSystemClockFreq>
 8006b78:	60f8      	str	r0, [r7, #12]
        break;
 8006b7a:	e067      	b.n	8006c4c <LL_RCC_GetUSARTClockFreq+0x1ac>

      case LL_RCC_USART2_CLKSOURCE_HSI:    /* USART2 Clock is HSI Osc. */
        if (LL_RCC_HSI_IsReady() != 0U)
 8006b7c:	f7ff fea2 	bl	80068c4 <LL_RCC_HSI_IsReady>
 8006b80:	4603      	mov	r3, r0
 8006b82:	2b00      	cmp	r3, #0
 8006b84:	d059      	beq.n	8006c3a <LL_RCC_GetUSARTClockFreq+0x19a>
        {
          usart_frequency = HSI_VALUE;
 8006b86:	4b34      	ldr	r3, [pc, #208]	@ (8006c58 <LL_RCC_GetUSARTClockFreq+0x1b8>)
 8006b88:	60fb      	str	r3, [r7, #12]
        }
        break;
 8006b8a:	e056      	b.n	8006c3a <LL_RCC_GetUSARTClockFreq+0x19a>

      case LL_RCC_USART2_CLKSOURCE_LSE:    /* USART2 Clock is LSE Osc. */
        if (LL_RCC_LSE_IsReady() != 0U)
 8006b8c:	f7ff feae 	bl	80068ec <LL_RCC_LSE_IsReady>
 8006b90:	4603      	mov	r3, r0
 8006b92:	2b00      	cmp	r3, #0
 8006b94:	d053      	beq.n	8006c3e <LL_RCC_GetUSARTClockFreq+0x19e>
        {
          usart_frequency = LSE_VALUE;
 8006b96:	f44f 4300 	mov.w	r3, #32768	@ 0x8000
 8006b9a:	60fb      	str	r3, [r7, #12]
        }
        break;
 8006b9c:	e04f      	b.n	8006c3e <LL_RCC_GetUSARTClockFreq+0x19e>

      case LL_RCC_USART2_CLKSOURCE_PCLK1:  /* USART2 Clock is PCLK1 */
        usart_frequency = RCC_GetPCLK1ClockFreq(RCC_GetHCLKClockFreq(RCC_GetSystemClockFreq()));
 8006b9e:	f000 f8f5 	bl	8006d8c <RCC_GetSystemClockFreq>
 8006ba2:	4603      	mov	r3, r0
 8006ba4:	4618      	mov	r0, r3
 8006ba6:	f000 f981 	bl	8006eac <RCC_GetHCLKClockFreq>
 8006baa:	4603      	mov	r3, r0
 8006bac:	4618      	mov	r0, r3
 8006bae:	f000 f993 	bl	8006ed8 <RCC_GetPCLK1ClockFreq>
 8006bb2:	60f8      	str	r0, [r7, #12]
        break;
 8006bb4:	e04a      	b.n	8006c4c <LL_RCC_GetUSARTClockFreq+0x1ac>
    }
  }
  else
  {
#if defined(RCC_CCIPR_USART3SEL)
    if (USARTxSource == LL_RCC_USART3_CLKSOURCE)
 8006bb6:	687b      	ldr	r3, [r7, #4]
 8006bb8:	2b30      	cmp	r3, #48	@ 0x30
 8006bba:	d147      	bne.n	8006c4c <LL_RCC_GetUSARTClockFreq+0x1ac>
    {
      /* USART3CLK clock frequency */
      switch (LL_RCC_GetUSARTClockSource(USARTxSource))
 8006bbc:	6878      	ldr	r0, [r7, #4]
 8006bbe:	f7ff ff0f 	bl	80069e0 <LL_RCC_GetUSARTClockSource>
 8006bc2:	4603      	mov	r3, r0
 8006bc4:	f1b3 1f30 	cmp.w	r3, #3145776	@ 0x300030
 8006bc8:	d01a      	beq.n	8006c00 <LL_RCC_GetUSARTClockFreq+0x160>
 8006bca:	f1b3 1f30 	cmp.w	r3, #3145776	@ 0x300030
 8006bce:	d838      	bhi.n	8006c42 <LL_RCC_GetUSARTClockFreq+0x1a2>
 8006bd0:	4a22      	ldr	r2, [pc, #136]	@ (8006c5c <LL_RCC_GetUSARTClockFreq+0x1bc>)
 8006bd2:	4293      	cmp	r3, r2
 8006bd4:	d00c      	beq.n	8006bf0 <LL_RCC_GetUSARTClockFreq+0x150>
 8006bd6:	4a21      	ldr	r2, [pc, #132]	@ (8006c5c <LL_RCC_GetUSARTClockFreq+0x1bc>)
 8006bd8:	4293      	cmp	r3, r2
 8006bda:	d832      	bhi.n	8006c42 <LL_RCC_GetUSARTClockFreq+0x1a2>
 8006bdc:	f5b3 1f40 	cmp.w	r3, #3145728	@ 0x300000
 8006be0:	d017      	beq.n	8006c12 <LL_RCC_GetUSARTClockFreq+0x172>
 8006be2:	4a1f      	ldr	r2, [pc, #124]	@ (8006c60 <LL_RCC_GetUSARTClockFreq+0x1c0>)
 8006be4:	4293      	cmp	r3, r2
 8006be6:	d12c      	bne.n	8006c42 <LL_RCC_GetUSARTClockFreq+0x1a2>
      {
        case LL_RCC_USART3_CLKSOURCE_SYSCLK: /* USART3 Clock is System Clock */
          usart_frequency = RCC_GetSystemClockFreq();
 8006be8:	f000 f8d0 	bl	8006d8c <RCC_GetSystemClockFreq>
 8006bec:	60f8      	str	r0, [r7, #12]
          break;
 8006bee:	e02d      	b.n	8006c4c <LL_RCC_GetUSARTClockFreq+0x1ac>

        case LL_RCC_USART3_CLKSOURCE_HSI:    /* USART3 Clock is HSI Osc. */
          if (LL_RCC_HSI_IsReady() != 0U)
 8006bf0:	f7ff fe68 	bl	80068c4 <LL_RCC_HSI_IsReady>
 8006bf4:	4603      	mov	r3, r0
 8006bf6:	2b00      	cmp	r3, #0
 8006bf8:	d025      	beq.n	8006c46 <LL_RCC_GetUSARTClockFreq+0x1a6>
          {
            usart_frequency = HSI_VALUE;
 8006bfa:	4b17      	ldr	r3, [pc, #92]	@ (8006c58 <LL_RCC_GetUSARTClockFreq+0x1b8>)
 8006bfc:	60fb      	str	r3, [r7, #12]
          }
          break;
 8006bfe:	e022      	b.n	8006c46 <LL_RCC_GetUSARTClockFreq+0x1a6>

        case LL_RCC_USART3_CLKSOURCE_LSE:    /* USART3 Clock is LSE Osc. */
          if (LL_RCC_LSE_IsReady() != 0U)
 8006c00:	f7ff fe74 	bl	80068ec <LL_RCC_LSE_IsReady>
 8006c04:	4603      	mov	r3, r0
 8006c06:	2b00      	cmp	r3, #0
 8006c08:	d01f      	beq.n	8006c4a <LL_RCC_GetUSARTClockFreq+0x1aa>
          {
            usart_frequency = LSE_VALUE;
 8006c0a:	f44f 4300 	mov.w	r3, #32768	@ 0x8000
 8006c0e:	60fb      	str	r3, [r7, #12]
          }
          break;
 8006c10:	e01b      	b.n	8006c4a <LL_RCC_GetUSARTClockFreq+0x1aa>

        case LL_RCC_USART3_CLKSOURCE_PCLK1:  /* USART3 Clock is PCLK1 */
          usart_frequency = RCC_GetPCLK1ClockFreq(RCC_GetHCLKClockFreq(RCC_GetSystemClockFreq()));
 8006c12:	f000 f8bb 	bl	8006d8c <RCC_GetSystemClockFreq>
 8006c16:	4603      	mov	r3, r0
 8006c18:	4618      	mov	r0, r3
 8006c1a:	f000 f947 	bl	8006eac <RCC_GetHCLKClockFreq>
 8006c1e:	4603      	mov	r3, r0
 8006c20:	4618      	mov	r0, r3
 8006c22:	f000 f959 	bl	8006ed8 <RCC_GetPCLK1ClockFreq>
 8006c26:	60f8      	str	r0, [r7, #12]
          break;
 8006c28:	e010      	b.n	8006c4c <LL_RCC_GetUSARTClockFreq+0x1ac>
        break;
 8006c2a:	bf00      	nop
 8006c2c:	e00e      	b.n	8006c4c <LL_RCC_GetUSARTClockFreq+0x1ac>
        break;
 8006c2e:	bf00      	nop
 8006c30:	e00c      	b.n	8006c4c <LL_RCC_GetUSARTClockFreq+0x1ac>
        break;
 8006c32:	bf00      	nop
 8006c34:	e00a      	b.n	8006c4c <LL_RCC_GetUSARTClockFreq+0x1ac>
        break;
 8006c36:	bf00      	nop
 8006c38:	e008      	b.n	8006c4c <LL_RCC_GetUSARTClockFreq+0x1ac>
        break;
 8006c3a:	bf00      	nop
 8006c3c:	e006      	b.n	8006c4c <LL_RCC_GetUSARTClockFreq+0x1ac>
        break;
 8006c3e:	bf00      	nop
 8006c40:	e004      	b.n	8006c4c <LL_RCC_GetUSARTClockFreq+0x1ac>

        default:
          break;
 8006c42:	bf00      	nop
 8006c44:	e002      	b.n	8006c4c <LL_RCC_GetUSARTClockFreq+0x1ac>
          break;
 8006c46:	bf00      	nop
 8006c48:	e000      	b.n	8006c4c <LL_RCC_GetUSARTClockFreq+0x1ac>
          break;
 8006c4a:	bf00      	nop
      }
    }
#endif /* RCC_CCIPR_USART3SEL */
  }
  return usart_frequency;
 8006c4c:	68fb      	ldr	r3, [r7, #12]
}
 8006c4e:	4618      	mov	r0, r3
 8006c50:	3710      	adds	r7, #16
 8006c52:	46bd      	mov	sp, r7
 8006c54:	bd80      	pop	{r7, pc}
 8006c56:	bf00      	nop
 8006c58:	00f42400 	.word	0x00f42400
 8006c5c:	00300020 	.word	0x00300020
 8006c60:	00300010 	.word	0x00300010

08006c64 <LL_RCC_GetUARTClockFreq>:
  *         @arg @ref LL_RCC_UART5_CLKSOURCE
  * @retval UART clock frequency (in Hz)
  *         - @ref  LL_RCC_PERIPH_FREQUENCY_NO indicates that oscillator (HSI or LSE) is not ready
  */
uint32_t LL_RCC_GetUARTClockFreq(uint32_t UARTxSource)
{
 8006c64:	b580      	push	{r7, lr}
 8006c66:	b084      	sub	sp, #16
 8006c68:	af00      	add	r7, sp, #0
 8006c6a:	6078      	str	r0, [r7, #4]
  uint32_t uart_frequency = LL_RCC_PERIPH_FREQUENCY_NO;
 8006c6c:	2300      	movs	r3, #0
 8006c6e:	60fb      	str	r3, [r7, #12]

  /* Check parameter */
  assert_param(IS_LL_RCC_UART_CLKSOURCE(UARTxSource));

#if defined(RCC_CCIPR_UART4SEL)
  if (UARTxSource == LL_RCC_UART4_CLKSOURCE)
 8006c70:	687b      	ldr	r3, [r7, #4]
 8006c72:	2bc0      	cmp	r3, #192	@ 0xc0
 8006c74:	d13b      	bne.n	8006cee <LL_RCC_GetUARTClockFreq+0x8a>
  {
    /* UART4CLK clock frequency */
    switch (LL_RCC_GetUARTClockSource(UARTxSource))
 8006c76:	6878      	ldr	r0, [r7, #4]
 8006c78:	f7ff fec6 	bl	8006a08 <LL_RCC_GetUARTClockSource>
 8006c7c:	4603      	mov	r3, r0
 8006c7e:	f1b3 1fc0 	cmp.w	r3, #12583104	@ 0xc000c0
 8006c82:	d01a      	beq.n	8006cba <LL_RCC_GetUARTClockFreq+0x56>
 8006c84:	f1b3 1fc0 	cmp.w	r3, #12583104	@ 0xc000c0
 8006c88:	d82c      	bhi.n	8006ce4 <LL_RCC_GetUARTClockFreq+0x80>
 8006c8a:	4a3b      	ldr	r2, [pc, #236]	@ (8006d78 <LL_RCC_GetUARTClockFreq+0x114>)
 8006c8c:	4293      	cmp	r3, r2
 8006c8e:	d00c      	beq.n	8006caa <LL_RCC_GetUARTClockFreq+0x46>
 8006c90:	4a39      	ldr	r2, [pc, #228]	@ (8006d78 <LL_RCC_GetUARTClockFreq+0x114>)
 8006c92:	4293      	cmp	r3, r2
 8006c94:	d826      	bhi.n	8006ce4 <LL_RCC_GetUARTClockFreq+0x80>
 8006c96:	f5b3 0f40 	cmp.w	r3, #12582912	@ 0xc00000
 8006c9a:	d017      	beq.n	8006ccc <LL_RCC_GetUARTClockFreq+0x68>
 8006c9c:	4a37      	ldr	r2, [pc, #220]	@ (8006d7c <LL_RCC_GetUARTClockFreq+0x118>)
 8006c9e:	4293      	cmp	r3, r2
 8006ca0:	d120      	bne.n	8006ce4 <LL_RCC_GetUARTClockFreq+0x80>
    {
      case LL_RCC_UART4_CLKSOURCE_SYSCLK: /* UART4 Clock is System Clock */
        uart_frequency = RCC_GetSystemClockFreq();
 8006ca2:	f000 f873 	bl	8006d8c <RCC_GetSystemClockFreq>
 8006ca6:	60f8      	str	r0, [r7, #12]
        break;
 8006ca8:	e021      	b.n	8006cee <LL_RCC_GetUARTClockFreq+0x8a>

      case LL_RCC_UART4_CLKSOURCE_HSI:    /* UART4 Clock is HSI Osc. */
        if (LL_RCC_HSI_IsReady() != 0U)
 8006caa:	f7ff fe0b 	bl	80068c4 <LL_RCC_HSI_IsReady>
 8006cae:	4603      	mov	r3, r0
 8006cb0:	2b00      	cmp	r3, #0
 8006cb2:	d019      	beq.n	8006ce8 <LL_RCC_GetUARTClockFreq+0x84>
        {
          uart_frequency = HSI_VALUE;
 8006cb4:	4b32      	ldr	r3, [pc, #200]	@ (8006d80 <LL_RCC_GetUARTClockFreq+0x11c>)
 8006cb6:	60fb      	str	r3, [r7, #12]
        }
        break;
 8006cb8:	e016      	b.n	8006ce8 <LL_RCC_GetUARTClockFreq+0x84>

      case LL_RCC_UART4_CLKSOURCE_LSE:    /* UART4 Clock is LSE Osc. */
        if (LL_RCC_LSE_IsReady() != 0U)
 8006cba:	f7ff fe17 	bl	80068ec <LL_RCC_LSE_IsReady>
 8006cbe:	4603      	mov	r3, r0
 8006cc0:	2b00      	cmp	r3, #0
 8006cc2:	d013      	beq.n	8006cec <LL_RCC_GetUARTClockFreq+0x88>
        {
          uart_frequency = LSE_VALUE;
 8006cc4:	f44f 4300 	mov.w	r3, #32768	@ 0x8000
 8006cc8:	60fb      	str	r3, [r7, #12]
        }
        break;
 8006cca:	e00f      	b.n	8006cec <LL_RCC_GetUARTClockFreq+0x88>

      case LL_RCC_UART4_CLKSOURCE_PCLK1:  /* UART4 Clock is PCLK1 */
        uart_frequency = RCC_GetPCLK1ClockFreq(RCC_GetHCLKClockFreq(RCC_GetSystemClockFreq()));
 8006ccc:	f000 f85e 	bl	8006d8c <RCC_GetSystemClockFreq>
 8006cd0:	4603      	mov	r3, r0
 8006cd2:	4618      	mov	r0, r3
 8006cd4:	f000 f8ea 	bl	8006eac <RCC_GetHCLKClockFreq>
 8006cd8:	4603      	mov	r3, r0
 8006cda:	4618      	mov	r0, r3
 8006cdc:	f000 f8fc 	bl	8006ed8 <RCC_GetPCLK1ClockFreq>
 8006ce0:	60f8      	str	r0, [r7, #12]
        break;
 8006ce2:	e004      	b.n	8006cee <LL_RCC_GetUARTClockFreq+0x8a>

      default:
        break;
 8006ce4:	bf00      	nop
 8006ce6:	e002      	b.n	8006cee <LL_RCC_GetUARTClockFreq+0x8a>
        break;
 8006ce8:	bf00      	nop
 8006cea:	e000      	b.n	8006cee <LL_RCC_GetUARTClockFreq+0x8a>
        break;
 8006cec:	bf00      	nop
    }
  }
#endif /* RCC_CCIPR_UART4SEL */

#if defined(RCC_CCIPR_UART5SEL)
  if (UARTxSource == LL_RCC_UART5_CLKSOURCE)
 8006cee:	687b      	ldr	r3, [r7, #4]
 8006cf0:	f5b3 7f40 	cmp.w	r3, #768	@ 0x300
 8006cf4:	d13b      	bne.n	8006d6e <LL_RCC_GetUARTClockFreq+0x10a>
  {
    /* UART5CLK clock frequency */
    switch (LL_RCC_GetUARTClockSource(UARTxSource))
 8006cf6:	6878      	ldr	r0, [r7, #4]
 8006cf8:	f7ff fe86 	bl	8006a08 <LL_RCC_GetUARTClockSource>
 8006cfc:	4603      	mov	r3, r0
 8006cfe:	f1b3 2f03 	cmp.w	r3, #50332416	@ 0x3000300
 8006d02:	d01a      	beq.n	8006d3a <LL_RCC_GetUARTClockFreq+0xd6>
 8006d04:	f1b3 2f03 	cmp.w	r3, #50332416	@ 0x3000300
 8006d08:	d82c      	bhi.n	8006d64 <LL_RCC_GetUARTClockFreq+0x100>
 8006d0a:	4a1e      	ldr	r2, [pc, #120]	@ (8006d84 <LL_RCC_GetUARTClockFreq+0x120>)
 8006d0c:	4293      	cmp	r3, r2
 8006d0e:	d00c      	beq.n	8006d2a <LL_RCC_GetUARTClockFreq+0xc6>
 8006d10:	4a1c      	ldr	r2, [pc, #112]	@ (8006d84 <LL_RCC_GetUARTClockFreq+0x120>)
 8006d12:	4293      	cmp	r3, r2
 8006d14:	d826      	bhi.n	8006d64 <LL_RCC_GetUARTClockFreq+0x100>
 8006d16:	f1b3 7f40 	cmp.w	r3, #50331648	@ 0x3000000
 8006d1a:	d017      	beq.n	8006d4c <LL_RCC_GetUARTClockFreq+0xe8>
 8006d1c:	4a1a      	ldr	r2, [pc, #104]	@ (8006d88 <LL_RCC_GetUARTClockFreq+0x124>)
 8006d1e:	4293      	cmp	r3, r2
 8006d20:	d120      	bne.n	8006d64 <LL_RCC_GetUARTClockFreq+0x100>
    {
      case LL_RCC_UART5_CLKSOURCE_SYSCLK: /* UART5 Clock is System Clock */
        uart_frequency = RCC_GetSystemClockFreq();
 8006d22:	f000 f833 	bl	8006d8c <RCC_GetSystemClockFreq>
 8006d26:	60f8      	str	r0, [r7, #12]
        break;
 8006d28:	e021      	b.n	8006d6e <LL_RCC_GetUARTClockFreq+0x10a>

      case LL_RCC_UART5_CLKSOURCE_HSI:    /* UART5 Clock is HSI Osc. */
        if (LL_RCC_HSI_IsReady() != 0U)
 8006d2a:	f7ff fdcb 	bl	80068c4 <LL_RCC_HSI_IsReady>
 8006d2e:	4603      	mov	r3, r0
 8006d30:	2b00      	cmp	r3, #0
 8006d32:	d019      	beq.n	8006d68 <LL_RCC_GetUARTClockFreq+0x104>
        {
          uart_frequency = HSI_VALUE;
 8006d34:	4b12      	ldr	r3, [pc, #72]	@ (8006d80 <LL_RCC_GetUARTClockFreq+0x11c>)
 8006d36:	60fb      	str	r3, [r7, #12]
        }
        break;
 8006d38:	e016      	b.n	8006d68 <LL_RCC_GetUARTClockFreq+0x104>

      case LL_RCC_UART5_CLKSOURCE_LSE:    /* UART5 Clock is LSE Osc. */
        if (LL_RCC_LSE_IsReady() != 0U)
 8006d3a:	f7ff fdd7 	bl	80068ec <LL_RCC_LSE_IsReady>
 8006d3e:	4603      	mov	r3, r0
 8006d40:	2b00      	cmp	r3, #0
 8006d42:	d013      	beq.n	8006d6c <LL_RCC_GetUARTClockFreq+0x108>
        {
          uart_frequency = LSE_VALUE;
 8006d44:	f44f 4300 	mov.w	r3, #32768	@ 0x8000
 8006d48:	60fb      	str	r3, [r7, #12]
        }
        break;
 8006d4a:	e00f      	b.n	8006d6c <LL_RCC_GetUARTClockFreq+0x108>

      case LL_RCC_UART5_CLKSOURCE_PCLK1:  /* UART5 Clock is PCLK1 */
        uart_frequency = RCC_GetPCLK1ClockFreq(RCC_GetHCLKClockFreq(RCC_GetSystemClockFreq()));
 8006d4c:	f000 f81e 	bl	8006d8c <RCC_GetSystemClockFreq>
 8006d50:	4603      	mov	r3, r0
 8006d52:	4618      	mov	r0, r3
 8006d54:	f000 f8aa 	bl	8006eac <RCC_GetHCLKClockFreq>
 8006d58:	4603      	mov	r3, r0
 8006d5a:	4618      	mov	r0, r3
 8006d5c:	f000 f8bc 	bl	8006ed8 <RCC_GetPCLK1ClockFreq>
 8006d60:	60f8      	str	r0, [r7, #12]
        break;
 8006d62:	e004      	b.n	8006d6e <LL_RCC_GetUARTClockFreq+0x10a>

      default:
        break;
 8006d64:	bf00      	nop
 8006d66:	e002      	b.n	8006d6e <LL_RCC_GetUARTClockFreq+0x10a>
        break;
 8006d68:	bf00      	nop
 8006d6a:	e000      	b.n	8006d6e <LL_RCC_GetUARTClockFreq+0x10a>
        break;
 8006d6c:	bf00      	nop
    }
  }
#endif /* RCC_CCIPR_UART5SEL */

  return uart_frequency;
 8006d6e:	68fb      	ldr	r3, [r7, #12]
}
 8006d70:	4618      	mov	r0, r3
 8006d72:	3710      	adds	r7, #16
 8006d74:	46bd      	mov	sp, r7
 8006d76:	bd80      	pop	{r7, pc}
 8006d78:	00c00080 	.word	0x00c00080
 8006d7c:	00c00040 	.word	0x00c00040
 8006d80:	00f42400 	.word	0x00f42400
 8006d84:	03000200 	.word	0x03000200
 8006d88:	03000100 	.word	0x03000100

08006d8c <RCC_GetSystemClockFreq>:
/**
  * @brief  Return SYSTEM clock frequency
  * @retval SYSTEM clock frequency (in Hz)
  */
static uint32_t RCC_GetSystemClockFreq(void)
{
 8006d8c:	b580      	push	{r7, lr}
 8006d8e:	b082      	sub	sp, #8
 8006d90:	af00      	add	r7, sp, #0
  uint32_t frequency;

  /* Get SYSCLK source -------------------------------------------------------*/
  switch (LL_RCC_GetSysClkSource())
 8006d92:	f7ff fded 	bl	8006970 <LL_RCC_GetSysClkSource>
 8006d96:	4603      	mov	r3, r0
 8006d98:	2b0c      	cmp	r3, #12
 8006d9a:	d851      	bhi.n	8006e40 <RCC_GetSystemClockFreq+0xb4>
 8006d9c:	a201      	add	r2, pc, #4	@ (adr r2, 8006da4 <RCC_GetSystemClockFreq+0x18>)
 8006d9e:	f852 f023 	ldr.w	pc, [r2, r3, lsl #2]
 8006da2:	bf00      	nop
 8006da4:	08006dd9 	.word	0x08006dd9
 8006da8:	08006e41 	.word	0x08006e41
 8006dac:	08006e41 	.word	0x08006e41
 8006db0:	08006e41 	.word	0x08006e41
 8006db4:	08006e2d 	.word	0x08006e2d
 8006db8:	08006e41 	.word	0x08006e41
 8006dbc:	08006e41 	.word	0x08006e41
 8006dc0:	08006e41 	.word	0x08006e41
 8006dc4:	08006e33 	.word	0x08006e33
 8006dc8:	08006e41 	.word	0x08006e41
 8006dcc:	08006e41 	.word	0x08006e41
 8006dd0:	08006e41 	.word	0x08006e41
 8006dd4:	08006e39 	.word	0x08006e39
  {
    case LL_RCC_SYS_CLKSOURCE_STATUS_MSI:  /* MSI used as system clock source */
      frequency = __LL_RCC_CALC_MSI_FREQ(LL_RCC_MSI_IsEnabledRangeSelect(),
 8006dd8:	f7ff fd9c 	bl	8006914 <LL_RCC_MSI_IsEnabledRangeSelect>
 8006ddc:	4603      	mov	r3, r0
 8006dde:	2b00      	cmp	r3, #0
 8006de0:	d111      	bne.n	8006e06 <RCC_GetSystemClockFreq+0x7a>
 8006de2:	f7ff fd97 	bl	8006914 <LL_RCC_MSI_IsEnabledRangeSelect>
 8006de6:	4603      	mov	r3, r0
 8006de8:	2b00      	cmp	r3, #0
 8006dea:	d004      	beq.n	8006df6 <RCC_GetSystemClockFreq+0x6a>
 8006dec:	f7ff fda4 	bl	8006938 <LL_RCC_MSI_GetRange>
 8006df0:	4603      	mov	r3, r0
 8006df2:	0a1b      	lsrs	r3, r3, #8
 8006df4:	e003      	b.n	8006dfe <RCC_GetSystemClockFreq+0x72>
 8006df6:	f7ff fdad 	bl	8006954 <LL_RCC_MSI_GetRangeAfterStandby>
 8006dfa:	4603      	mov	r3, r0
 8006dfc:	0a1b      	lsrs	r3, r3, #8
 8006dfe:	4a28      	ldr	r2, [pc, #160]	@ (8006ea0 <RCC_GetSystemClockFreq+0x114>)
 8006e00:	f852 3023 	ldr.w	r3, [r2, r3, lsl #2]
 8006e04:	e010      	b.n	8006e28 <RCC_GetSystemClockFreq+0x9c>
 8006e06:	f7ff fd85 	bl	8006914 <LL_RCC_MSI_IsEnabledRangeSelect>
 8006e0a:	4603      	mov	r3, r0
 8006e0c:	2b00      	cmp	r3, #0
 8006e0e:	d004      	beq.n	8006e1a <RCC_GetSystemClockFreq+0x8e>
 8006e10:	f7ff fd92 	bl	8006938 <LL_RCC_MSI_GetRange>
 8006e14:	4603      	mov	r3, r0
 8006e16:	091b      	lsrs	r3, r3, #4
 8006e18:	e003      	b.n	8006e22 <RCC_GetSystemClockFreq+0x96>
 8006e1a:	f7ff fd9b 	bl	8006954 <LL_RCC_MSI_GetRangeAfterStandby>
 8006e1e:	4603      	mov	r3, r0
 8006e20:	091b      	lsrs	r3, r3, #4
 8006e22:	4a1f      	ldr	r2, [pc, #124]	@ (8006ea0 <RCC_GetSystemClockFreq+0x114>)
 8006e24:	f852 3023 	ldr.w	r3, [r2, r3, lsl #2]
 8006e28:	607b      	str	r3, [r7, #4]
                                    ((LL_RCC_MSI_IsEnabledRangeSelect() != 0U) ?
                                     LL_RCC_MSI_GetRange() :
                                     LL_RCC_MSI_GetRangeAfterStandby()));
      break;
 8006e2a:	e033      	b.n	8006e94 <RCC_GetSystemClockFreq+0x108>

    case LL_RCC_SYS_CLKSOURCE_STATUS_HSI:  /* HSI used as system clock  source */
      frequency = HSI_VALUE;
 8006e2c:	4b1d      	ldr	r3, [pc, #116]	@ (8006ea4 <RCC_GetSystemClockFreq+0x118>)
 8006e2e:	607b      	str	r3, [r7, #4]
      break;
 8006e30:	e030      	b.n	8006e94 <RCC_GetSystemClockFreq+0x108>

    case LL_RCC_SYS_CLKSOURCE_STATUS_HSE:  /* HSE used as system clock  source */
      frequency = HSE_VALUE;
 8006e32:	4b1d      	ldr	r3, [pc, #116]	@ (8006ea8 <RCC_GetSystemClockFreq+0x11c>)
 8006e34:	607b      	str	r3, [r7, #4]
      break;
 8006e36:	e02d      	b.n	8006e94 <RCC_GetSystemClockFreq+0x108>

    case LL_RCC_SYS_CLKSOURCE_STATUS_PLL:  /* PLL used as system clock  source */
      frequency = RCC_PLL_GetFreqDomain_SYS();
 8006e38:	f000 f876 	bl	8006f28 <RCC_PLL_GetFreqDomain_SYS>
 8006e3c:	6078      	str	r0, [r7, #4]
      break;
 8006e3e:	e029      	b.n	8006e94 <RCC_GetSystemClockFreq+0x108>

    default:
      frequency = __LL_RCC_CALC_MSI_FREQ(LL_RCC_MSI_IsEnabledRangeSelect(),
 8006e40:	f7ff fd68 	bl	8006914 <LL_RCC_MSI_IsEnabledRangeSelect>
 8006e44:	4603      	mov	r3, r0
 8006e46:	2b00      	cmp	r3, #0
 8006e48:	d111      	bne.n	8006e6e <RCC_GetSystemClockFreq+0xe2>
 8006e4a:	f7ff fd63 	bl	8006914 <LL_RCC_MSI_IsEnabledRangeSelect>
 8006e4e:	4603      	mov	r3, r0
 8006e50:	2b00      	cmp	r3, #0
 8006e52:	d004      	beq.n	8006e5e <RCC_GetSystemClockFreq+0xd2>
 8006e54:	f7ff fd70 	bl	8006938 <LL_RCC_MSI_GetRange>
 8006e58:	4603      	mov	r3, r0
 8006e5a:	0a1b      	lsrs	r3, r3, #8
 8006e5c:	e003      	b.n	8006e66 <RCC_GetSystemClockFreq+0xda>
 8006e5e:	f7ff fd79 	bl	8006954 <LL_RCC_MSI_GetRangeAfterStandby>
 8006e62:	4603      	mov	r3, r0
 8006e64:	0a1b      	lsrs	r3, r3, #8
 8006e66:	4a0e      	ldr	r2, [pc, #56]	@ (8006ea0 <RCC_GetSystemClockFreq+0x114>)
 8006e68:	f852 3023 	ldr.w	r3, [r2, r3, lsl #2]
 8006e6c:	e010      	b.n	8006e90 <RCC_GetSystemClockFreq+0x104>
 8006e6e:	f7ff fd51 	bl	8006914 <LL_RCC_MSI_IsEnabledRangeSelect>
 8006e72:	4603      	mov	r3, r0
 8006e74:	2b00      	cmp	r3, #0
 8006e76:	d004      	beq.n	8006e82 <RCC_GetSystemClockFreq+0xf6>
 8006e78:	f7ff fd5e 	bl	8006938 <LL_RCC_MSI_GetRange>
 8006e7c:	4603      	mov	r3, r0
 8006e7e:	091b      	lsrs	r3, r3, #4
 8006e80:	e003      	b.n	8006e8a <RCC_GetSystemClockFreq+0xfe>
 8006e82:	f7ff fd67 	bl	8006954 <LL_RCC_MSI_GetRangeAfterStandby>
 8006e86:	4603      	mov	r3, r0
 8006e88:	091b      	lsrs	r3, r3, #4
 8006e8a:	4a05      	ldr	r2, [pc, #20]	@ (8006ea0 <RCC_GetSystemClockFreq+0x114>)
 8006e8c:	f852 3023 	ldr.w	r3, [r2, r3, lsl #2]
 8006e90:	607b      	str	r3, [r7, #4]
                                    ((LL_RCC_MSI_IsEnabledRangeSelect() != 0U) ?
                                     LL_RCC_MSI_GetRange() :
                                     LL_RCC_MSI_GetRangeAfterStandby()));
      break;
 8006e92:	bf00      	nop
  }

  return frequency;
 8006e94:	687b      	ldr	r3, [r7, #4]
}
 8006e96:	4618      	mov	r0, r3
 8006e98:	3708      	adds	r7, #8
 8006e9a:	46bd      	mov	sp, r7
 8006e9c:	bd80      	pop	{r7, pc}
 8006e9e:	bf00      	nop
 8006ea0:	08007510 	.word	0x08007510
 8006ea4:	00f42400 	.word	0x00f42400
 8006ea8:	007a1200 	.word	0x007a1200

08006eac <RCC_GetHCLKClockFreq>:
  * @brief  Return HCLK clock frequency
  * @param  SYSCLK_Frequency SYSCLK clock frequency
  * @retval HCLK clock frequency (in Hz)
  */
static uint32_t RCC_GetHCLKClockFreq(uint32_t SYSCLK_Frequency)
{
 8006eac:	b580      	push	{r7, lr}
 8006eae:	b082      	sub	sp, #8
 8006eb0:	af00      	add	r7, sp, #0
 8006eb2:	6078      	str	r0, [r7, #4]
  /* HCLK clock frequency */
  return __LL_RCC_CALC_HCLK_FREQ(SYSCLK_Frequency, LL_RCC_GetAHBPrescaler());
 8006eb4:	f7ff fd6a 	bl	800698c <LL_RCC_GetAHBPrescaler>
 8006eb8:	4603      	mov	r3, r0
 8006eba:	091b      	lsrs	r3, r3, #4
 8006ebc:	f003 030f 	and.w	r3, r3, #15
 8006ec0:	4a04      	ldr	r2, [pc, #16]	@ (8006ed4 <RCC_GetHCLKClockFreq+0x28>)
 8006ec2:	5cd3      	ldrb	r3, [r2, r3]
 8006ec4:	461a      	mov	r2, r3
 8006ec6:	687b      	ldr	r3, [r7, #4]
 8006ec8:	40d3      	lsrs	r3, r2
}
 8006eca:	4618      	mov	r0, r3
 8006ecc:	3708      	adds	r7, #8
 8006ece:	46bd      	mov	sp, r7
 8006ed0:	bd80      	pop	{r7, pc}
 8006ed2:	bf00      	nop
 8006ed4:	080074f8 	.word	0x080074f8

08006ed8 <RCC_GetPCLK1ClockFreq>:
  * @brief  Return PCLK1 clock frequency
  * @param  HCLK_Frequency HCLK clock frequency
  * @retval PCLK1 clock frequency (in Hz)
  */
static uint32_t RCC_GetPCLK1ClockFreq(uint32_t HCLK_Frequency)
{
 8006ed8:	b580      	push	{r7, lr}
 8006eda:	b082      	sub	sp, #8
 8006edc:	af00      	add	r7, sp, #0
 8006ede:	6078      	str	r0, [r7, #4]
  /* PCLK1 clock frequency */
  return __LL_RCC_CALC_PCLK1_FREQ(HCLK_Frequency, LL_RCC_GetAPB1Prescaler());
 8006ee0:	f7ff fd62 	bl	80069a8 <LL_RCC_GetAPB1Prescaler>
 8006ee4:	4603      	mov	r3, r0
 8006ee6:	0a1b      	lsrs	r3, r3, #8
 8006ee8:	4a04      	ldr	r2, [pc, #16]	@ (8006efc <RCC_GetPCLK1ClockFreq+0x24>)
 8006eea:	5cd3      	ldrb	r3, [r2, r3]
 8006eec:	461a      	mov	r2, r3
 8006eee:	687b      	ldr	r3, [r7, #4]
 8006ef0:	40d3      	lsrs	r3, r2
}
 8006ef2:	4618      	mov	r0, r3
 8006ef4:	3708      	adds	r7, #8
 8006ef6:	46bd      	mov	sp, r7
 8006ef8:	bd80      	pop	{r7, pc}
 8006efa:	bf00      	nop
 8006efc:	08007508 	.word	0x08007508

08006f00 <RCC_GetPCLK2ClockFreq>:
  * @brief  Return PCLK2 clock frequency
  * @param  HCLK_Frequency HCLK clock frequency
  * @retval PCLK2 clock frequency (in Hz)
  */
static uint32_t RCC_GetPCLK2ClockFreq(uint32_t HCLK_Frequency)
{
 8006f00:	b580      	push	{r7, lr}
 8006f02:	b082      	sub	sp, #8
 8006f04:	af00      	add	r7, sp, #0
 8006f06:	6078      	str	r0, [r7, #4]
  /* PCLK2 clock frequency */
  return __LL_RCC_CALC_PCLK2_FREQ(HCLK_Frequency, LL_RCC_GetAPB2Prescaler());
 8006f08:	f7ff fd5c 	bl	80069c4 <LL_RCC_GetAPB2Prescaler>
 8006f0c:	4603      	mov	r3, r0
 8006f0e:	0adb      	lsrs	r3, r3, #11
 8006f10:	4a04      	ldr	r2, [pc, #16]	@ (8006f24 <RCC_GetPCLK2ClockFreq+0x24>)
 8006f12:	5cd3      	ldrb	r3, [r2, r3]
 8006f14:	461a      	mov	r2, r3
 8006f16:	687b      	ldr	r3, [r7, #4]
 8006f18:	40d3      	lsrs	r3, r2
}
 8006f1a:	4618      	mov	r0, r3
 8006f1c:	3708      	adds	r7, #8
 8006f1e:	46bd      	mov	sp, r7
 8006f20:	bd80      	pop	{r7, pc}
 8006f22:	bf00      	nop
 8006f24:	08007508 	.word	0x08007508

08006f28 <RCC_PLL_GetFreqDomain_SYS>:
/**
  * @brief  Return PLL clock frequency used for system domain
  * @retval PLL clock frequency (in Hz)
  */
static uint32_t RCC_PLL_GetFreqDomain_SYS(void)
{
 8006f28:	b590      	push	{r4, r7, lr}
 8006f2a:	b083      	sub	sp, #12
 8006f2c:	af00      	add	r7, sp, #0
  uint32_t pllinputfreq, pllsource;

  /* PLL_VCO = (HSE_VALUE or HSI_VALUE or MSI_VALUE/ PLLM) * PLLN
     SYSCLK = PLL_VCO / PLLR
  */
  pllsource = LL_RCC_PLL_GetMainSource();
 8006f2e:	f7ff fd7f 	bl	8006a30 <LL_RCC_PLL_GetMainSource>
 8006f32:	6038      	str	r0, [r7, #0]

  switch (pllsource)
 8006f34:	683b      	ldr	r3, [r7, #0]
 8006f36:	2b03      	cmp	r3, #3
 8006f38:	d036      	beq.n	8006fa8 <RCC_PLL_GetFreqDomain_SYS+0x80>
 8006f3a:	683b      	ldr	r3, [r7, #0]
 8006f3c:	2b03      	cmp	r3, #3
 8006f3e:	d836      	bhi.n	8006fae <RCC_PLL_GetFreqDomain_SYS+0x86>
 8006f40:	683b      	ldr	r3, [r7, #0]
 8006f42:	2b01      	cmp	r3, #1
 8006f44:	d003      	beq.n	8006f4e <RCC_PLL_GetFreqDomain_SYS+0x26>
 8006f46:	683b      	ldr	r3, [r7, #0]
 8006f48:	2b02      	cmp	r3, #2
 8006f4a:	d02a      	beq.n	8006fa2 <RCC_PLL_GetFreqDomain_SYS+0x7a>
 8006f4c:	e02f      	b.n	8006fae <RCC_PLL_GetFreqDomain_SYS+0x86>
  {
    case LL_RCC_PLLSOURCE_MSI:  /* MSI used as PLL clock source */
      pllinputfreq = __LL_RCC_CALC_MSI_FREQ(LL_RCC_MSI_IsEnabledRangeSelect(),
 8006f4e:	f7ff fce1 	bl	8006914 <LL_RCC_MSI_IsEnabledRangeSelect>
 8006f52:	4603      	mov	r3, r0
 8006f54:	2b00      	cmp	r3, #0
 8006f56:	d111      	bne.n	8006f7c <RCC_PLL_GetFreqDomain_SYS+0x54>
 8006f58:	f7ff fcdc 	bl	8006914 <LL_RCC_MSI_IsEnabledRangeSelect>
 8006f5c:	4603      	mov	r3, r0
 8006f5e:	2b00      	cmp	r3, #0
 8006f60:	d004      	beq.n	8006f6c <RCC_PLL_GetFreqDomain_SYS+0x44>
 8006f62:	f7ff fce9 	bl	8006938 <LL_RCC_MSI_GetRange>
 8006f66:	4603      	mov	r3, r0
 8006f68:	0a1b      	lsrs	r3, r3, #8
 8006f6a:	e003      	b.n	8006f74 <RCC_PLL_GetFreqDomain_SYS+0x4c>
 8006f6c:	f7ff fcf2 	bl	8006954 <LL_RCC_MSI_GetRangeAfterStandby>
 8006f70:	4603      	mov	r3, r0
 8006f72:	0a1b      	lsrs	r3, r3, #8
 8006f74:	4a2f      	ldr	r2, [pc, #188]	@ (8007034 <RCC_PLL_GetFreqDomain_SYS+0x10c>)
 8006f76:	f852 3023 	ldr.w	r3, [r2, r3, lsl #2]
 8006f7a:	e010      	b.n	8006f9e <RCC_PLL_GetFreqDomain_SYS+0x76>
 8006f7c:	f7ff fcca 	bl	8006914 <LL_RCC_MSI_IsEnabledRangeSelect>
 8006f80:	4603      	mov	r3, r0
 8006f82:	2b00      	cmp	r3, #0
 8006f84:	d004      	beq.n	8006f90 <RCC_PLL_GetFreqDomain_SYS+0x68>
 8006f86:	f7ff fcd7 	bl	8006938 <LL_RCC_MSI_GetRange>
 8006f8a:	4603      	mov	r3, r0
 8006f8c:	091b      	lsrs	r3, r3, #4
 8006f8e:	e003      	b.n	8006f98 <RCC_PLL_GetFreqDomain_SYS+0x70>
 8006f90:	f7ff fce0 	bl	8006954 <LL_RCC_MSI_GetRangeAfterStandby>
 8006f94:	4603      	mov	r3, r0
 8006f96:	091b      	lsrs	r3, r3, #4
 8006f98:	4a26      	ldr	r2, [pc, #152]	@ (8007034 <RCC_PLL_GetFreqDomain_SYS+0x10c>)
 8006f9a:	f852 3023 	ldr.w	r3, [r2, r3, lsl #2]
 8006f9e:	607b      	str	r3, [r7, #4]
                                    ((LL_RCC_MSI_IsEnabledRangeSelect() != 0U) ?
                                     LL_RCC_MSI_GetRange() :
                                     LL_RCC_MSI_GetRangeAfterStandby()));
      break;
 8006fa0:	e02f      	b.n	8007002 <RCC_PLL_GetFreqDomain_SYS+0xda>

    case LL_RCC_PLLSOURCE_HSI:  /* HSI used as PLL clock source */
      pllinputfreq = HSI_VALUE;
 8006fa2:	4b25      	ldr	r3, [pc, #148]	@ (8007038 <RCC_PLL_GetFreqDomain_SYS+0x110>)
 8006fa4:	607b      	str	r3, [r7, #4]
      break;
 8006fa6:	e02c      	b.n	8007002 <RCC_PLL_GetFreqDomain_SYS+0xda>

    case LL_RCC_PLLSOURCE_HSE:  /* HSE used as PLL clock source */
      pllinputfreq = HSE_VALUE;
 8006fa8:	4b24      	ldr	r3, [pc, #144]	@ (800703c <RCC_PLL_GetFreqDomain_SYS+0x114>)
 8006faa:	607b      	str	r3, [r7, #4]
      break;
 8006fac:	e029      	b.n	8007002 <RCC_PLL_GetFreqDomain_SYS+0xda>

    default:
      pllinputfreq = __LL_RCC_CALC_MSI_FREQ(LL_RCC_MSI_IsEnabledRangeSelect(),
 8006fae:	f7ff fcb1 	bl	8006914 <LL_RCC_MSI_IsEnabledRangeSelect>
 8006fb2:	4603      	mov	r3, r0
 8006fb4:	2b00      	cmp	r3, #0
 8006fb6:	d111      	bne.n	8006fdc <RCC_PLL_GetFreqDomain_SYS+0xb4>
 8006fb8:	f7ff fcac 	bl	8006914 <LL_RCC_MSI_IsEnabledRangeSelect>
 8006fbc:	4603      	mov	r3, r0
 8006fbe:	2b00      	cmp	r3, #0
 8006fc0:	d004      	beq.n	8006fcc <RCC_PLL_GetFreqDomain_SYS+0xa4>
 8006fc2:	f7ff fcb9 	bl	8006938 <LL_RCC_MSI_GetRange>
 8006fc6:	4603      	mov	r3, r0
 8006fc8:	0a1b      	lsrs	r3, r3, #8
 8006fca:	e003      	b.n	8006fd4 <RCC_PLL_GetFreqDomain_SYS+0xac>
 8006fcc:	f7ff fcc2 	bl	8006954 <LL_RCC_MSI_GetRangeAfterStandby>
 8006fd0:	4603      	mov	r3, r0
 8006fd2:	0a1b      	lsrs	r3, r3, #8
 8006fd4:	4a17      	ldr	r2, [pc, #92]	@ (8007034 <RCC_PLL_GetFreqDomain_SYS+0x10c>)
 8006fd6:	f852 3023 	ldr.w	r3, [r2, r3, lsl #2]
 8006fda:	e010      	b.n	8006ffe <RCC_PLL_GetFreqDomain_SYS+0xd6>
 8006fdc:	f7ff fc9a 	bl	8006914 <LL_RCC_MSI_IsEnabledRangeSelect>
 8006fe0:	4603      	mov	r3, r0
 8006fe2:	2b00      	cmp	r3, #0
 8006fe4:	d004      	beq.n	8006ff0 <RCC_PLL_GetFreqDomain_SYS+0xc8>
 8006fe6:	f7ff fca7 	bl	8006938 <LL_RCC_MSI_GetRange>
 8006fea:	4603      	mov	r3, r0
 8006fec:	091b      	lsrs	r3, r3, #4
 8006fee:	e003      	b.n	8006ff8 <RCC_PLL_GetFreqDomain_SYS+0xd0>
 8006ff0:	f7ff fcb0 	bl	8006954 <LL_RCC_MSI_GetRangeAfterStandby>
 8006ff4:	4603      	mov	r3, r0
 8006ff6:	091b      	lsrs	r3, r3, #4
 8006ff8:	4a0e      	ldr	r2, [pc, #56]	@ (8007034 <RCC_PLL_GetFreqDomain_SYS+0x10c>)
 8006ffa:	f852 3023 	ldr.w	r3, [r2, r3, lsl #2]
 8006ffe:	607b      	str	r3, [r7, #4]
                                    ((LL_RCC_MSI_IsEnabledRangeSelect() != 0U) ?
                                     LL_RCC_MSI_GetRange() :
                                     LL_RCC_MSI_GetRangeAfterStandby()));
      break;
 8007000:	bf00      	nop
  }
  return __LL_RCC_CALC_PLLCLK_FREQ(pllinputfreq, LL_RCC_PLL_GetDivider(),
 8007002:	f7ff fd3f 	bl	8006a84 <LL_RCC_PLL_GetDivider>
 8007006:	4603      	mov	r3, r0
 8007008:	091b      	lsrs	r3, r3, #4
 800700a:	3301      	adds	r3, #1
 800700c:	687a      	ldr	r2, [r7, #4]
 800700e:	fbb2 f4f3 	udiv	r4, r2, r3
 8007012:	f7ff fd1b 	bl	8006a4c <LL_RCC_PLL_GetN>
 8007016:	4603      	mov	r3, r0
 8007018:	fb03 f404 	mul.w	r4, r3, r4
 800701c:	f7ff fd24 	bl	8006a68 <LL_RCC_PLL_GetR>
 8007020:	4603      	mov	r3, r0
 8007022:	0e5b      	lsrs	r3, r3, #25
 8007024:	3301      	adds	r3, #1
 8007026:	005b      	lsls	r3, r3, #1
 8007028:	fbb4 f3f3 	udiv	r3, r4, r3
                                        LL_RCC_PLL_GetN(), LL_RCC_PLL_GetR());
}
 800702c:	4618      	mov	r0, r3
 800702e:	370c      	adds	r7, #12
 8007030:	46bd      	mov	sp, r7
 8007032:	bd90      	pop	{r4, r7, pc}
 8007034:	08007510 	.word	0x08007510
 8007038:	00f42400 	.word	0x00f42400
 800703c:	007a1200 	.word	0x007a1200

08007040 <LL_SPI_IsEnabled>:
{
 8007040:	b480      	push	{r7}
 8007042:	b083      	sub	sp, #12
 8007044:	af00      	add	r7, sp, #0
 8007046:	6078      	str	r0, [r7, #4]
  return ((READ_BIT(SPIx->CR1, SPI_CR1_SPE) == (SPI_CR1_SPE)) ? 1UL : 0UL);
 8007048:	687b      	ldr	r3, [r7, #4]
 800704a:	681b      	ldr	r3, [r3, #0]
 800704c:	f003 0340 	and.w	r3, r3, #64	@ 0x40
 8007050:	2b40      	cmp	r3, #64	@ 0x40
 8007052:	d101      	bne.n	8007058 <LL_SPI_IsEnabled+0x18>
 8007054:	2301      	movs	r3, #1
 8007056:	e000      	b.n	800705a <LL_SPI_IsEnabled+0x1a>
 8007058:	2300      	movs	r3, #0
}
 800705a:	4618      	mov	r0, r3
 800705c:	370c      	adds	r7, #12
 800705e:	46bd      	mov	sp, r7
 8007060:	f85d 7b04 	ldr.w	r7, [sp], #4
 8007064:	4770      	bx	lr

08007066 <LL_SPI_SetRxFIFOThreshold>:
{
 8007066:	b480      	push	{r7}
 8007068:	b083      	sub	sp, #12
 800706a:	af00      	add	r7, sp, #0
 800706c:	6078      	str	r0, [r7, #4]
 800706e:	6039      	str	r1, [r7, #0]
  MODIFY_REG(SPIx->CR2, SPI_CR2_FRXTH, Threshold);
 8007070:	687b      	ldr	r3, [r7, #4]
 8007072:	685b      	ldr	r3, [r3, #4]
 8007074:	f423 5280 	bic.w	r2, r3, #4096	@ 0x1000
 8007078:	683b      	ldr	r3, [r7, #0]
 800707a:	431a      	orrs	r2, r3
 800707c:	687b      	ldr	r3, [r7, #4]
 800707e:	605a      	str	r2, [r3, #4]
}
 8007080:	bf00      	nop
 8007082:	370c      	adds	r7, #12
 8007084:	46bd      	mov	sp, r7
 8007086:	f85d 7b04 	ldr.w	r7, [sp], #4
 800708a:	4770      	bx	lr

0800708c <LL_SPI_SetCRCPolynomial>:
{
 800708c:	b480      	push	{r7}
 800708e:	b083      	sub	sp, #12
 8007090:	af00      	add	r7, sp, #0
 8007092:	6078      	str	r0, [r7, #4]
 8007094:	6039      	str	r1, [r7, #0]
  WRITE_REG(SPIx->CRCPR, (uint16_t)CRCPoly);
 8007096:	683b      	ldr	r3, [r7, #0]
 8007098:	b29b      	uxth	r3, r3
 800709a:	461a      	mov	r2, r3
 800709c:	687b      	ldr	r3, [r7, #4]
 800709e:	611a      	str	r2, [r3, #16]
}
 80070a0:	bf00      	nop
 80070a2:	370c      	adds	r7, #12
 80070a4:	46bd      	mov	sp, r7
 80070a6:	f85d 7b04 	ldr.w	r7, [sp], #4
 80070aa:	4770      	bx	lr

080070ac <LL_SPI_Init>:
  * @param  SPIx SPI Instance
  * @param  SPI_InitStruct pointer to a @ref LL_SPI_InitTypeDef structure
  * @retval An ErrorStatus enumeration value. (Return always SUCCESS)
  */
ErrorStatus LL_SPI_Init(SPI_TypeDef *SPIx, LL_SPI_InitTypeDef *SPI_InitStruct)
{
 80070ac:	b580      	push	{r7, lr}
 80070ae:	b084      	sub	sp, #16
 80070b0:	af00      	add	r7, sp, #0
 80070b2:	6078      	str	r0, [r7, #4]
 80070b4:	6039      	str	r1, [r7, #0]
  ErrorStatus status = ERROR;
 80070b6:	2301      	movs	r3, #1
 80070b8:	73fb      	strb	r3, [r7, #15]
  assert_param(IS_LL_SPI_NSS(SPI_InitStruct->NSS));
  assert_param(IS_LL_SPI_BAUDRATE(SPI_InitStruct->BaudRate));
  assert_param(IS_LL_SPI_BITORDER(SPI_InitStruct->BitOrder));
  assert_param(IS_LL_SPI_CRCCALCULATION(SPI_InitStruct->CRCCalculation));

  if (LL_SPI_IsEnabled(SPIx) == 0x00000000U)
 80070ba:	6878      	ldr	r0, [r7, #4]
 80070bc:	f7ff ffc0 	bl	8007040 <LL_SPI_IsEnabled>
 80070c0:	4603      	mov	r3, r0
 80070c2:	2b00      	cmp	r3, #0
 80070c4:	d145      	bne.n	8007152 <LL_SPI_Init+0xa6>
     * - NSS management:     SPI_CR1_SSM bit
     * - BaudRate prescaler: SPI_CR1_BR[2:0] bits
     * - BitOrder:           SPI_CR1_LSBFIRST bit
     * - CRCCalculation:     SPI_CR1_CRCEN bit
     */
    MODIFY_REG(SPIx->CR1,
 80070c6:	687b      	ldr	r3, [r7, #4]
 80070c8:	681b      	ldr	r3, [r3, #0]
 80070ca:	f423 437f 	bic.w	r3, r3, #65280	@ 0xff00
 80070ce:	f023 03bf 	bic.w	r3, r3, #191	@ 0xbf
 80070d2:	683a      	ldr	r2, [r7, #0]
 80070d4:	6811      	ldr	r1, [r2, #0]
 80070d6:	683a      	ldr	r2, [r7, #0]
 80070d8:	6852      	ldr	r2, [r2, #4]
 80070da:	4311      	orrs	r1, r2
 80070dc:	683a      	ldr	r2, [r7, #0]
 80070de:	68d2      	ldr	r2, [r2, #12]
 80070e0:	4311      	orrs	r1, r2
 80070e2:	683a      	ldr	r2, [r7, #0]
 80070e4:	6912      	ldr	r2, [r2, #16]
 80070e6:	4311      	orrs	r1, r2
 80070e8:	683a      	ldr	r2, [r7, #0]
 80070ea:	6952      	ldr	r2, [r2, #20]
 80070ec:	4311      	orrs	r1, r2
 80070ee:	683a      	ldr	r2, [r7, #0]
 80070f0:	6992      	ldr	r2, [r2, #24]
 80070f2:	4311      	orrs	r1, r2
 80070f4:	683a      	ldr	r2, [r7, #0]
 80070f6:	69d2      	ldr	r2, [r2, #28]
 80070f8:	4311      	orrs	r1, r2
 80070fa:	683a      	ldr	r2, [r7, #0]
 80070fc:	6a12      	ldr	r2, [r2, #32]
 80070fe:	430a      	orrs	r2, r1
 8007100:	431a      	orrs	r2, r3
 8007102:	687b      	ldr	r3, [r7, #4]
 8007104:	601a      	str	r2, [r3, #0]
    /*---------------------------- SPIx CR2 Configuration ------------------------
     * Configure SPIx CR2 with parameters:
     * - DataWidth:          DS[3:0] bits
     * - NSS management:     SSOE bit
     */
    MODIFY_REG(SPIx->CR2,
 8007106:	687b      	ldr	r3, [r7, #4]
 8007108:	685b      	ldr	r3, [r3, #4]
 800710a:	f423 6370 	bic.w	r3, r3, #3840	@ 0xf00
 800710e:	f023 0304 	bic.w	r3, r3, #4
 8007112:	683a      	ldr	r2, [r7, #0]
 8007114:	6891      	ldr	r1, [r2, #8]
 8007116:	683a      	ldr	r2, [r7, #0]
 8007118:	6952      	ldr	r2, [r2, #20]
 800711a:	0c12      	lsrs	r2, r2, #16
 800711c:	430a      	orrs	r2, r1
 800711e:	431a      	orrs	r2, r3
 8007120:	687b      	ldr	r3, [r7, #4]
 8007122:	605a      	str	r2, [r3, #4]
               SPI_CR2_DS | SPI_CR2_SSOE,
               SPI_InitStruct->DataWidth | (SPI_InitStruct->NSS >> 16U));

    /* Set Rx FIFO to Quarter (1 Byte) in case of 8 Bits mode. No DataPacking by default */
    if (SPI_InitStruct->DataWidth < LL_SPI_DATAWIDTH_9BIT)
 8007124:	683b      	ldr	r3, [r7, #0]
 8007126:	689b      	ldr	r3, [r3, #8]
 8007128:	f5b3 6f00 	cmp.w	r3, #2048	@ 0x800
 800712c:	d204      	bcs.n	8007138 <LL_SPI_Init+0x8c>
    {
      LL_SPI_SetRxFIFOThreshold(SPIx, LL_SPI_RX_FIFO_TH_QUARTER);
 800712e:	f44f 5180 	mov.w	r1, #4096	@ 0x1000
 8007132:	6878      	ldr	r0, [r7, #4]
 8007134:	f7ff ff97 	bl	8007066 <LL_SPI_SetRxFIFOThreshold>

    /*---------------------------- SPIx CRCPR Configuration ----------------------
     * Configure SPIx CRCPR with parameters:
     * - CRCPoly:            CRCPOLY[15:0] bits
     */
    if (SPI_InitStruct->CRCCalculation == LL_SPI_CRCCALCULATION_ENABLE)
 8007138:	683b      	ldr	r3, [r7, #0]
 800713a:	6a1b      	ldr	r3, [r3, #32]
 800713c:	f5b3 5f00 	cmp.w	r3, #8192	@ 0x2000
 8007140:	d105      	bne.n	800714e <LL_SPI_Init+0xa2>
    {
      assert_param(IS_LL_SPI_CRC_POLYNOMIAL(SPI_InitStruct->CRCPoly));
      LL_SPI_SetCRCPolynomial(SPIx, SPI_InitStruct->CRCPoly);
 8007142:	683b      	ldr	r3, [r7, #0]
 8007144:	6a5b      	ldr	r3, [r3, #36]	@ 0x24
 8007146:	4619      	mov	r1, r3
 8007148:	6878      	ldr	r0, [r7, #4]
 800714a:	f7ff ff9f 	bl	800708c <LL_SPI_SetCRCPolynomial>
    }
    status = SUCCESS;
 800714e:	2300      	movs	r3, #0
 8007150:	73fb      	strb	r3, [r7, #15]
  }

  return status;
 8007152:	7bfb      	ldrb	r3, [r7, #15]
}
 8007154:	4618      	mov	r0, r3
 8007156:	3710      	adds	r7, #16
 8007158:	46bd      	mov	sp, r7
 800715a:	bd80      	pop	{r7, pc}

0800715c <LL_USART_IsEnabled>:
{
 800715c:	b480      	push	{r7}
 800715e:	b083      	sub	sp, #12
 8007160:	af00      	add	r7, sp, #0
 8007162:	6078      	str	r0, [r7, #4]
  return ((READ_BIT(USARTx->CR1, USART_CR1_UE) == (USART_CR1_UE)) ? 1UL : 0UL);
 8007164:	687b      	ldr	r3, [r7, #4]
 8007166:	681b      	ldr	r3, [r3, #0]
 8007168:	f003 0301 	and.w	r3, r3, #1
 800716c:	2b01      	cmp	r3, #1
 800716e:	d101      	bne.n	8007174 <LL_USART_IsEnabled+0x18>
 8007170:	2301      	movs	r3, #1
 8007172:	e000      	b.n	8007176 <LL_USART_IsEnabled+0x1a>
 8007174:	2300      	movs	r3, #0
}
 8007176:	4618      	mov	r0, r3
 8007178:	370c      	adds	r7, #12
 800717a:	46bd      	mov	sp, r7
 800717c:	f85d 7b04 	ldr.w	r7, [sp], #4
 8007180:	4770      	bx	lr

08007182 <LL_USART_SetStopBitsLength>:
{
 8007182:	b480      	push	{r7}
 8007184:	b083      	sub	sp, #12
 8007186:	af00      	add	r7, sp, #0
 8007188:	6078      	str	r0, [r7, #4]
 800718a:	6039      	str	r1, [r7, #0]
  MODIFY_REG(USARTx->CR2, USART_CR2_STOP, StopBits);
 800718c:	687b      	ldr	r3, [r7, #4]
 800718e:	685b      	ldr	r3, [r3, #4]
 8007190:	f423 5240 	bic.w	r2, r3, #12288	@ 0x3000
 8007194:	683b      	ldr	r3, [r7, #0]
 8007196:	431a      	orrs	r2, r3
 8007198:	687b      	ldr	r3, [r7, #4]
 800719a:	605a      	str	r2, [r3, #4]
}
 800719c:	bf00      	nop
 800719e:	370c      	adds	r7, #12
 80071a0:	46bd      	mov	sp, r7
 80071a2:	f85d 7b04 	ldr.w	r7, [sp], #4
 80071a6:	4770      	bx	lr

080071a8 <LL_USART_SetHWFlowCtrl>:
{
 80071a8:	b480      	push	{r7}
 80071aa:	b083      	sub	sp, #12
 80071ac:	af00      	add	r7, sp, #0
 80071ae:	6078      	str	r0, [r7, #4]
 80071b0:	6039      	str	r1, [r7, #0]
  MODIFY_REG(USARTx->CR3, USART_CR3_RTSE | USART_CR3_CTSE, HardwareFlowControl);
 80071b2:	687b      	ldr	r3, [r7, #4]
 80071b4:	689b      	ldr	r3, [r3, #8]
 80071b6:	f423 7240 	bic.w	r2, r3, #768	@ 0x300
 80071ba:	683b      	ldr	r3, [r7, #0]
 80071bc:	431a      	orrs	r2, r3
 80071be:	687b      	ldr	r3, [r7, #4]
 80071c0:	609a      	str	r2, [r3, #8]
}
 80071c2:	bf00      	nop
 80071c4:	370c      	adds	r7, #12
 80071c6:	46bd      	mov	sp, r7
 80071c8:	f85d 7b04 	ldr.w	r7, [sp], #4
 80071cc:	4770      	bx	lr

080071ce <LL_USART_SetBaudRate>:
{
 80071ce:	b480      	push	{r7}
 80071d0:	b087      	sub	sp, #28
 80071d2:	af00      	add	r7, sp, #0
 80071d4:	60f8      	str	r0, [r7, #12]
 80071d6:	60b9      	str	r1, [r7, #8]
 80071d8:	607a      	str	r2, [r7, #4]
 80071da:	603b      	str	r3, [r7, #0]
  if (OverSampling == LL_USART_OVERSAMPLING_8)
 80071dc:	687b      	ldr	r3, [r7, #4]
 80071de:	f5b3 4f00 	cmp.w	r3, #32768	@ 0x8000
 80071e2:	d11a      	bne.n	800721a <LL_USART_SetBaudRate+0x4c>
    usartdiv = (uint16_t)(__LL_USART_DIV_SAMPLING8(PeriphClk, BaudRate));
 80071e4:	68bb      	ldr	r3, [r7, #8]
 80071e6:	005a      	lsls	r2, r3, #1
 80071e8:	683b      	ldr	r3, [r7, #0]
 80071ea:	085b      	lsrs	r3, r3, #1
 80071ec:	441a      	add	r2, r3
 80071ee:	683b      	ldr	r3, [r7, #0]
 80071f0:	fbb2 f3f3 	udiv	r3, r2, r3
 80071f4:	b29b      	uxth	r3, r3
 80071f6:	617b      	str	r3, [r7, #20]
    brrtemp = usartdiv & 0xFFF0U;
 80071f8:	697a      	ldr	r2, [r7, #20]
 80071fa:	f64f 73f0 	movw	r3, #65520	@ 0xfff0
 80071fe:	4013      	ands	r3, r2
 8007200:	613b      	str	r3, [r7, #16]
    brrtemp |= (uint16_t)((usartdiv & (uint16_t)0x000FU) >> 1U);
 8007202:	697b      	ldr	r3, [r7, #20]
 8007204:	085b      	lsrs	r3, r3, #1
 8007206:	b29b      	uxth	r3, r3
 8007208:	f003 0307 	and.w	r3, r3, #7
 800720c:	693a      	ldr	r2, [r7, #16]
 800720e:	4313      	orrs	r3, r2
 8007210:	613b      	str	r3, [r7, #16]
    USARTx->BRR = brrtemp;
 8007212:	68fb      	ldr	r3, [r7, #12]
 8007214:	693a      	ldr	r2, [r7, #16]
 8007216:	60da      	str	r2, [r3, #12]
}
 8007218:	e00a      	b.n	8007230 <LL_USART_SetBaudRate+0x62>
    USARTx->BRR = (uint16_t)(__LL_USART_DIV_SAMPLING16(PeriphClk, BaudRate));
 800721a:	683b      	ldr	r3, [r7, #0]
 800721c:	085a      	lsrs	r2, r3, #1
 800721e:	68bb      	ldr	r3, [r7, #8]
 8007220:	441a      	add	r2, r3
 8007222:	683b      	ldr	r3, [r7, #0]
 8007224:	fbb2 f3f3 	udiv	r3, r2, r3
 8007228:	b29b      	uxth	r3, r3
 800722a:	461a      	mov	r2, r3
 800722c:	68fb      	ldr	r3, [r7, #12]
 800722e:	60da      	str	r2, [r3, #12]
}
 8007230:	bf00      	nop
 8007232:	371c      	adds	r7, #28
 8007234:	46bd      	mov	sp, r7
 8007236:	f85d 7b04 	ldr.w	r7, [sp], #4
 800723a:	4770      	bx	lr

0800723c <LL_USART_Init>:
  * @retval An ErrorStatus enumeration value:
  *          - SUCCESS: USART registers are initialized according to USART_InitStruct content
  *          - ERROR: Problem occurred during USART Registers initialization
  */
ErrorStatus LL_USART_Init(USART_TypeDef *USARTx, const LL_USART_InitTypeDef *USART_InitStruct)
{
 800723c:	b580      	push	{r7, lr}
 800723e:	b084      	sub	sp, #16
 8007240:	af00      	add	r7, sp, #0
 8007242:	6078      	str	r0, [r7, #4]
 8007244:	6039      	str	r1, [r7, #0]
  ErrorStatus status = ERROR;
 8007246:	2301      	movs	r3, #1
 8007248:	73fb      	strb	r3, [r7, #15]
  uint32_t periphclk = LL_RCC_PERIPH_FREQUENCY_NO;
 800724a:	2300      	movs	r3, #0
 800724c:	60bb      	str	r3, [r7, #8]
  assert_param(IS_LL_USART_HWCONTROL(USART_InitStruct->HardwareFlowControl));
  assert_param(IS_LL_USART_OVERSAMPLING(USART_InitStruct->OverSampling));

  /* USART needs to be in disabled state, in order to be able to configure some bits in
     CRx registers */
  if (LL_USART_IsEnabled(USARTx) == 0U)
 800724e:	6878      	ldr	r0, [r7, #4]
 8007250:	f7ff ff84 	bl	800715c <LL_USART_IsEnabled>
 8007254:	4603      	mov	r3, r0
 8007256:	2b00      	cmp	r3, #0
 8007258:	d15b      	bne.n	8007312 <LL_USART_Init+0xd6>
     * - DataWidth:          USART_CR1_M bits according to USART_InitStruct->DataWidth value
     * - Parity:             USART_CR1_PCE, USART_CR1_PS bits according to USART_InitStruct->Parity value
     * - TransferDirection:  USART_CR1_TE, USART_CR1_RE bits according to USART_InitStruct->TransferDirection value
     * - Oversampling:       USART_CR1_OVER8 bit according to USART_InitStruct->OverSampling value.
     */
    MODIFY_REG(USARTx->CR1,
 800725a:	687b      	ldr	r3, [r7, #4]
 800725c:	681a      	ldr	r2, [r3, #0]
 800725e:	4b2f      	ldr	r3, [pc, #188]	@ (800731c <LL_USART_Init+0xe0>)
 8007260:	4013      	ands	r3, r2
 8007262:	683a      	ldr	r2, [r7, #0]
 8007264:	6851      	ldr	r1, [r2, #4]
 8007266:	683a      	ldr	r2, [r7, #0]
 8007268:	68d2      	ldr	r2, [r2, #12]
 800726a:	4311      	orrs	r1, r2
 800726c:	683a      	ldr	r2, [r7, #0]
 800726e:	6912      	ldr	r2, [r2, #16]
 8007270:	4311      	orrs	r1, r2
 8007272:	683a      	ldr	r2, [r7, #0]
 8007274:	6992      	ldr	r2, [r2, #24]
 8007276:	430a      	orrs	r2, r1
 8007278:	431a      	orrs	r2, r3
 800727a:	687b      	ldr	r3, [r7, #4]
 800727c:	601a      	str	r2, [r3, #0]
    /*---------------------------- USART CR2 Configuration ---------------------
     * Configure USARTx CR2 (Stop bits) with parameters:
     * - Stop Bits:          USART_CR2_STOP bits according to USART_InitStruct->StopBits value.
     * - CLKEN, CPOL, CPHA and LBCL bits are to be configured using LL_USART_ClockInit().
     */
    LL_USART_SetStopBitsLength(USARTx, USART_InitStruct->StopBits);
 800727e:	683b      	ldr	r3, [r7, #0]
 8007280:	689b      	ldr	r3, [r3, #8]
 8007282:	4619      	mov	r1, r3
 8007284:	6878      	ldr	r0, [r7, #4]
 8007286:	f7ff ff7c 	bl	8007182 <LL_USART_SetStopBitsLength>
    /*---------------------------- USART CR3 Configuration ---------------------
     * Configure USARTx CR3 (Hardware Flow Control) with parameters:
     * - HardwareFlowControl: USART_CR3_RTSE, USART_CR3_CTSE bits according to
     *   USART_InitStruct->HardwareFlowControl value.
     */
    LL_USART_SetHWFlowCtrl(USARTx, USART_InitStruct->HardwareFlowControl);
 800728a:	683b      	ldr	r3, [r7, #0]
 800728c:	695b      	ldr	r3, [r3, #20]
 800728e:	4619      	mov	r1, r3
 8007290:	6878      	ldr	r0, [r7, #4]
 8007292:	f7ff ff89 	bl	80071a8 <LL_USART_SetHWFlowCtrl>

    /*---------------------------- USART BRR Configuration ---------------------
     * Retrieve Clock frequency used for USART Peripheral
     */
    if (USARTx == USART1)
 8007296:	687b      	ldr	r3, [r7, #4]
 8007298:	4a21      	ldr	r2, [pc, #132]	@ (8007320 <LL_USART_Init+0xe4>)
 800729a:	4293      	cmp	r3, r2
 800729c:	d104      	bne.n	80072a8 <LL_USART_Init+0x6c>
    {
      periphclk = LL_RCC_GetUSARTClockFreq(LL_RCC_USART1_CLKSOURCE);
 800729e:	2003      	movs	r0, #3
 80072a0:	f7ff fbfe 	bl	8006aa0 <LL_RCC_GetUSARTClockFreq>
 80072a4:	60b8      	str	r0, [r7, #8]
 80072a6:	e023      	b.n	80072f0 <LL_USART_Init+0xb4>
    }
    else if (USARTx == USART2)
 80072a8:	687b      	ldr	r3, [r7, #4]
 80072aa:	4a1e      	ldr	r2, [pc, #120]	@ (8007324 <LL_USART_Init+0xe8>)
 80072ac:	4293      	cmp	r3, r2
 80072ae:	d104      	bne.n	80072ba <LL_USART_Init+0x7e>
    {
      periphclk = LL_RCC_GetUSARTClockFreq(LL_RCC_USART2_CLKSOURCE);
 80072b0:	200c      	movs	r0, #12
 80072b2:	f7ff fbf5 	bl	8006aa0 <LL_RCC_GetUSARTClockFreq>
 80072b6:	60b8      	str	r0, [r7, #8]
 80072b8:	e01a      	b.n	80072f0 <LL_USART_Init+0xb4>
    }
#if defined(USART3)
    else if (USARTx == USART3)
 80072ba:	687b      	ldr	r3, [r7, #4]
 80072bc:	4a1a      	ldr	r2, [pc, #104]	@ (8007328 <LL_USART_Init+0xec>)
 80072be:	4293      	cmp	r3, r2
 80072c0:	d104      	bne.n	80072cc <LL_USART_Init+0x90>
    {
      periphclk = LL_RCC_GetUSARTClockFreq(LL_RCC_USART3_CLKSOURCE);
 80072c2:	2030      	movs	r0, #48	@ 0x30
 80072c4:	f7ff fbec 	bl	8006aa0 <LL_RCC_GetUSARTClockFreq>
 80072c8:	60b8      	str	r0, [r7, #8]
 80072ca:	e011      	b.n	80072f0 <LL_USART_Init+0xb4>
    }
#endif /* USART3 */
#if defined(UART4)
    else if (USARTx == UART4)
 80072cc:	687b      	ldr	r3, [r7, #4]
 80072ce:	4a17      	ldr	r2, [pc, #92]	@ (800732c <LL_USART_Init+0xf0>)
 80072d0:	4293      	cmp	r3, r2
 80072d2:	d104      	bne.n	80072de <LL_USART_Init+0xa2>
    {
      periphclk = LL_RCC_GetUARTClockFreq(LL_RCC_UART4_CLKSOURCE);
 80072d4:	20c0      	movs	r0, #192	@ 0xc0
 80072d6:	f7ff fcc5 	bl	8006c64 <LL_RCC_GetUARTClockFreq>
 80072da:	60b8      	str	r0, [r7, #8]
 80072dc:	e008      	b.n	80072f0 <LL_USART_Init+0xb4>
    }
#endif /* UART4 */
#if defined(UART5)
    else if (USARTx == UART5)
 80072de:	687b      	ldr	r3, [r7, #4]
 80072e0:	4a13      	ldr	r2, [pc, #76]	@ (8007330 <LL_USART_Init+0xf4>)
 80072e2:	4293      	cmp	r3, r2
 80072e4:	d104      	bne.n	80072f0 <LL_USART_Init+0xb4>
    {
      periphclk = LL_RCC_GetUARTClockFreq(LL_RCC_UART5_CLKSOURCE);
 80072e6:	f44f 7040 	mov.w	r0, #768	@ 0x300
 80072ea:	f7ff fcbb 	bl	8006c64 <LL_RCC_GetUARTClockFreq>
 80072ee:	60b8      	str	r0, [r7, #8]
       - prescaler value is required
#endif
       - valid baud rate value (different from 0) is required
       - Peripheral clock as returned by RCC service, should be valid (different from 0).
    */
    if ((periphclk != LL_RCC_PERIPH_FREQUENCY_NO)
 80072f0:	68bb      	ldr	r3, [r7, #8]
 80072f2:	2b00      	cmp	r3, #0
 80072f4:	d00d      	beq.n	8007312 <LL_USART_Init+0xd6>
        && (USART_InitStruct->BaudRate != 0U))
 80072f6:	683b      	ldr	r3, [r7, #0]
 80072f8:	681b      	ldr	r3, [r3, #0]
 80072fa:	2b00      	cmp	r3, #0
 80072fc:	d009      	beq.n	8007312 <LL_USART_Init+0xd6>
    {
      status = SUCCESS;
 80072fe:	2300      	movs	r3, #0
 8007300:	73fb      	strb	r3, [r7, #15]
      LL_USART_SetBaudRate(USARTx,
                           periphclk,
#if defined(USART_PRESC_PRESCALER)
                           USART_InitStruct->PrescalerValue,
#endif /* USART_PRESC_PRESCALER */
                           USART_InitStruct->OverSampling,
 8007302:	683b      	ldr	r3, [r7, #0]
 8007304:	699a      	ldr	r2, [r3, #24]
                           USART_InitStruct->BaudRate);
 8007306:	683b      	ldr	r3, [r7, #0]
 8007308:	681b      	ldr	r3, [r3, #0]
      LL_USART_SetBaudRate(USARTx,
 800730a:	68b9      	ldr	r1, [r7, #8]
 800730c:	6878      	ldr	r0, [r7, #4]
 800730e:	f7ff ff5e 	bl	80071ce <LL_USART_SetBaudRate>
    LL_USART_SetPrescaler(USARTx, USART_InitStruct->PrescalerValue);
#endif /* USART_PRESC_PRESCALER */
  }
  /* Endif (=> USART not in Disabled state => return ERROR) */

  return (status);
 8007312:	7bfb      	ldrb	r3, [r7, #15]
}
 8007314:	4618      	mov	r0, r3
 8007316:	3710      	adds	r7, #16
 8007318:	46bd      	mov	sp, r7
 800731a:	bd80      	pop	{r7, pc}
 800731c:	efff69f3 	.word	0xefff69f3
 8007320:	40013800 	.word	0x40013800
 8007324:	40004400 	.word	0x40004400
 8007328:	40004800 	.word	0x40004800
 800732c:	40004c00 	.word	0x40004c00
 8007330:	40005000 	.word	0x40005000

08007334 <LL_InitTick>:
  *         configuration by calling this function, for a delay use rather osDelay RTOS service.
  * @param  Ticks Number of ticks
  * @retval None
  */
__STATIC_INLINE void LL_InitTick(uint32_t HCLKFrequency, uint32_t Ticks)
{
 8007334:	b480      	push	{r7}
 8007336:	b083      	sub	sp, #12
 8007338:	af00      	add	r7, sp, #0
 800733a:	6078      	str	r0, [r7, #4]
 800733c:	6039      	str	r1, [r7, #0]
  /* Configure the SysTick to have interrupt in 1ms time base */
  SysTick->LOAD  = (uint32_t)((HCLKFrequency / Ticks) - 1UL);  /* set reload register */
 800733e:	687a      	ldr	r2, [r7, #4]
 8007340:	683b      	ldr	r3, [r7, #0]
 8007342:	fbb2 f3f3 	udiv	r3, r2, r3
 8007346:	4a07      	ldr	r2, [pc, #28]	@ (8007364 <LL_InitTick+0x30>)
 8007348:	3b01      	subs	r3, #1
 800734a:	6053      	str	r3, [r2, #4]
  SysTick->VAL   = 0UL;                                       /* Load the SysTick Counter Value */
 800734c:	4b05      	ldr	r3, [pc, #20]	@ (8007364 <LL_InitTick+0x30>)
 800734e:	2200      	movs	r2, #0
 8007350:	609a      	str	r2, [r3, #8]
  SysTick->CTRL  = SysTick_CTRL_CLKSOURCE_Msk |
 8007352:	4b04      	ldr	r3, [pc, #16]	@ (8007364 <LL_InitTick+0x30>)
 8007354:	2205      	movs	r2, #5
 8007356:	601a      	str	r2, [r3, #0]
                   SysTick_CTRL_ENABLE_Msk;                   /* Enable the Systick Timer */
}
 8007358:	bf00      	nop
 800735a:	370c      	adds	r7, #12
 800735c:	46bd      	mov	sp, r7
 800735e:	f85d 7b04 	ldr.w	r7, [sp], #4
 8007362:	4770      	bx	lr
 8007364:	e000e010 	.word	0xe000e010

08007368 <LL_Init1msTick>:
  * @param  HCLKFrequency HCLK frequency in Hz
  * @note   HCLK frequency can be calculated thanks to RCC helper macro or function @ref LL_RCC_GetSystemClocksFreq
  * @retval None
  */
void LL_Init1msTick(uint32_t HCLKFrequency)
{
 8007368:	b580      	push	{r7, lr}
 800736a:	b082      	sub	sp, #8
 800736c:	af00      	add	r7, sp, #0
 800736e:	6078      	str	r0, [r7, #4]
  /* Use frequency provided in argument */
  LL_InitTick(HCLKFrequency, 1000U);
 8007370:	f44f 717a 	mov.w	r1, #1000	@ 0x3e8
 8007374:	6878      	ldr	r0, [r7, #4]
 8007376:	f7ff ffdd 	bl	8007334 <LL_InitTick>
}
 800737a:	bf00      	nop
 800737c:	3708      	adds	r7, #8
 800737e:	46bd      	mov	sp, r7
 8007380:	bd80      	pop	{r7, pc}
	...

08007384 <LL_mDelay>:
  *         will configure Systick to 1ms
  * @param  Delay specifies the delay time length, in milliseconds.
  * @retval None
  */
void LL_mDelay(uint32_t Delay)
{
 8007384:	b480      	push	{r7}
 8007386:	b085      	sub	sp, #20
 8007388:	af00      	add	r7, sp, #0
 800738a:	6078      	str	r0, [r7, #4]
  __IO uint32_t  tmp = SysTick->CTRL;  /* Clear the COUNTFLAG first */
 800738c:	4b10      	ldr	r3, [pc, #64]	@ (80073d0 <LL_mDelay+0x4c>)
 800738e:	681b      	ldr	r3, [r3, #0]
 8007390:	60bb      	str	r3, [r7, #8]
  uint32_t tmpDelay = Delay;
 8007392:	687b      	ldr	r3, [r7, #4]
 8007394:	60fb      	str	r3, [r7, #12]

  /* Add this code to indicate that local variable is not used */
  ((void)tmp);
 8007396:	68bb      	ldr	r3, [r7, #8]

  /* Add a period to guaranty minimum wait */
  if(tmpDelay < LL_MAX_DELAY)
 8007398:	68fb      	ldr	r3, [r7, #12]
 800739a:	f1b3 3fff 	cmp.w	r3, #4294967295
 800739e:	d00c      	beq.n	80073ba <LL_mDelay+0x36>
  {
    tmpDelay++;
 80073a0:	68fb      	ldr	r3, [r7, #12]
 80073a2:	3301      	adds	r3, #1
 80073a4:	60fb      	str	r3, [r7, #12]
  }

  while (tmpDelay != 0U)
 80073a6:	e008      	b.n	80073ba <LL_mDelay+0x36>
  {
    if((SysTick->CTRL & SysTick_CTRL_COUNTFLAG_Msk) != 0U)
 80073a8:	4b09      	ldr	r3, [pc, #36]	@ (80073d0 <LL_mDelay+0x4c>)
 80073aa:	681b      	ldr	r3, [r3, #0]
 80073ac:	f403 3380 	and.w	r3, r3, #65536	@ 0x10000
 80073b0:	2b00      	cmp	r3, #0
 80073b2:	d002      	beq.n	80073ba <LL_mDelay+0x36>
    {
      tmpDelay--;
 80073b4:	68fb      	ldr	r3, [r7, #12]
 80073b6:	3b01      	subs	r3, #1
 80073b8:	60fb      	str	r3, [r7, #12]
  while (tmpDelay != 0U)
 80073ba:	68fb      	ldr	r3, [r7, #12]
 80073bc:	2b00      	cmp	r3, #0
 80073be:	d1f3      	bne.n	80073a8 <LL_mDelay+0x24>
    }
  }
}
 80073c0:	bf00      	nop
 80073c2:	bf00      	nop
 80073c4:	3714      	adds	r7, #20
 80073c6:	46bd      	mov	sp, r7
 80073c8:	f85d 7b04 	ldr.w	r7, [sp], #4
 80073cc:	4770      	bx	lr
 80073ce:	bf00      	nop
 80073d0:	e000e010 	.word	0xe000e010

080073d4 <LL_SetSystemCoreClock>:
  * @note   Variable can be calculated also through SystemCoreClockUpdate function.
  * @param  HCLKFrequency HCLK frequency in Hz (can be calculated thanks to RCC helper macro)
  * @retval None
  */
void LL_SetSystemCoreClock(uint32_t HCLKFrequency)
{
 80073d4:	b480      	push	{r7}
 80073d6:	b083      	sub	sp, #12
 80073d8:	af00      	add	r7, sp, #0
 80073da:	6078      	str	r0, [r7, #4]
  /* HCLK clock frequency */
  SystemCoreClock = HCLKFrequency;
 80073dc:	4a04      	ldr	r2, [pc, #16]	@ (80073f0 <LL_SetSystemCoreClock+0x1c>)
 80073de:	687b      	ldr	r3, [r7, #4]
 80073e0:	6013      	str	r3, [r2, #0]
}
 80073e2:	bf00      	nop
 80073e4:	370c      	adds	r7, #12
 80073e6:	46bd      	mov	sp, r7
 80073e8:	f85d 7b04 	ldr.w	r7, [sp], #4
 80073ec:	4770      	bx	lr
 80073ee:	bf00      	nop
 80073f0:	2000000c 	.word	0x2000000c

080073f4 <memcmp>:
 80073f4:	b510      	push	{r4, lr}
 80073f6:	3901      	subs	r1, #1
 80073f8:	4402      	add	r2, r0
 80073fa:	4290      	cmp	r0, r2
 80073fc:	d101      	bne.n	8007402 <memcmp+0xe>
 80073fe:	2000      	movs	r0, #0
 8007400:	e005      	b.n	800740e <memcmp+0x1a>
 8007402:	7803      	ldrb	r3, [r0, #0]
 8007404:	f811 4f01 	ldrb.w	r4, [r1, #1]!
 8007408:	42a3      	cmp	r3, r4
 800740a:	d001      	beq.n	8007410 <memcmp+0x1c>
 800740c:	1b18      	subs	r0, r3, r4
 800740e:	bd10      	pop	{r4, pc}
 8007410:	3001      	adds	r0, #1
 8007412:	e7f2      	b.n	80073fa <memcmp+0x6>

08007414 <memset>:
 8007414:	4402      	add	r2, r0
 8007416:	4603      	mov	r3, r0
 8007418:	4293      	cmp	r3, r2
 800741a:	d100      	bne.n	800741e <memset+0xa>
 800741c:	4770      	bx	lr
 800741e:	f803 1b01 	strb.w	r1, [r3], #1
 8007422:	e7f9      	b.n	8007418 <memset+0x4>

08007424 <__libc_init_array>:
 8007424:	b570      	push	{r4, r5, r6, lr}
 8007426:	4d0d      	ldr	r5, [pc, #52]	@ (800745c <__libc_init_array+0x38>)
 8007428:	4c0d      	ldr	r4, [pc, #52]	@ (8007460 <__libc_init_array+0x3c>)
 800742a:	1b64      	subs	r4, r4, r5
 800742c:	10a4      	asrs	r4, r4, #2
 800742e:	2600      	movs	r6, #0
 8007430:	42a6      	cmp	r6, r4
 8007432:	d109      	bne.n	8007448 <__libc_init_array+0x24>
 8007434:	4d0b      	ldr	r5, [pc, #44]	@ (8007464 <__libc_init_array+0x40>)
 8007436:	4c0c      	ldr	r4, [pc, #48]	@ (8007468 <__libc_init_array+0x44>)
 8007438:	f000 f826 	bl	8007488 <_init>
 800743c:	1b64      	subs	r4, r4, r5
 800743e:	10a4      	asrs	r4, r4, #2
 8007440:	2600      	movs	r6, #0
 8007442:	42a6      	cmp	r6, r4
 8007444:	d105      	bne.n	8007452 <__libc_init_array+0x2e>
 8007446:	bd70      	pop	{r4, r5, r6, pc}
 8007448:	f855 3b04 	ldr.w	r3, [r5], #4
 800744c:	4798      	blx	r3
 800744e:	3601      	adds	r6, #1
 8007450:	e7ee      	b.n	8007430 <__libc_init_array+0xc>
 8007452:	f855 3b04 	ldr.w	r3, [r5], #4
 8007456:	4798      	blx	r3
 8007458:	3601      	adds	r6, #1
 800745a:	e7f2      	b.n	8007442 <__libc_init_array+0x1e>
 800745c:	080081a4 	.word	0x080081a4
 8007460:	080081a4 	.word	0x080081a4
 8007464:	080081a4 	.word	0x080081a4
 8007468:	080081a8 	.word	0x080081a8

0800746c <memcpy>:
 800746c:	440a      	add	r2, r1
 800746e:	4291      	cmp	r1, r2
 8007470:	f100 33ff 	add.w	r3, r0, #4294967295
 8007474:	d100      	bne.n	8007478 <memcpy+0xc>
 8007476:	4770      	bx	lr
 8007478:	b510      	push	{r4, lr}
 800747a:	f811 4b01 	ldrb.w	r4, [r1], #1
 800747e:	f803 4f01 	strb.w	r4, [r3, #1]!
 8007482:	4291      	cmp	r1, r2
 8007484:	d1f9      	bne.n	800747a <memcpy+0xe>
 8007486:	bd10      	pop	{r4, pc}

08007488 <_init>:
 8007488:	b5f8      	push	{r3, r4, r5, r6, r7, lr}
 800748a:	bf00      	nop
 800748c:	bcf8      	pop	{r3, r4, r5, r6, r7}
 800748e:	bc08      	pop	{r3}
 8007490:	469e      	mov	lr, r3
 8007492:	4770      	bx	lr

08007494 <_fini>:
 8007494:	b5f8      	push	{r3, r4, r5, r6, r7, lr}
 8007496:	bf00      	nop
 8007498:	bcf8      	pop	{r3, r4, r5, r6, r7}
 800749a:	bc08      	pop	{r3}
 800749c:	469e      	mov	lr, r3
 800749e:	4770      	bx	lr
